ARM GAS  /tmp/ccIXPISK.s 			page 1


   1              		.syntax unified
   2              		.cpu cortex-m4
   3              		.fpu softvfp
   4              		.eabi_attribute 20, 1
   5              		.eabi_attribute 21, 1
   6              		.eabi_attribute 23, 3
   7              		.eabi_attribute 24, 1
   8              		.eabi_attribute 25, 1
   9              		.eabi_attribute 26, 1
  10              		.eabi_attribute 30, 2
  11              		.eabi_attribute 34, 1
  12              		.eabi_attribute 18, 4
  13              		.thumb
  14              		.file	"chcore_v7m.c"
  15              		.text
  16              	.Ltext0:
  17              		.cfi_sections	.debug_frame
  18              		.section	.text._port_switch_from_isr,"ax",%progbits
  19              		.align	2
  20              		.p2align 4,,15
  21              		.global	_port_switch_from_isr
  22              		.thumb
  23              		.thumb_func
  24              		.type	_port_switch_from_isr, %function
  25              	_port_switch_from_isr:
  26              	.LFB11:
  27              		.file 1 "/home/gokul/ChibiOS_2.5.0/os/ports/GCC/ARMCMx/chcore_v7m.c"
  28              		.loc 1 200 0
  29              		.cfi_startproc
  30              		@ Naked Function: prologue and epilogue provided by programmer.
  31              		@ args = 0, pretend = 0, frame = 0
  32              		@ frame_needed = 0, uses_anonymous_args = 0
  33              		.loc 1 202 0
  34 0000 FFF7FEFF 		bl	dbg_check_lock
  35              	.LVL0:
  36              		.loc 1 203 0
  37 0004 FFF7FEFF 		bl	chSchDoReschedule
  38              	.LVL1:
  39              		.loc 1 204 0
  40 0008 FFF7FEFF 		bl	dbg_check_unlock
  41              	.LVL2:
  42              		.loc 1 205 0
  43              	@ 205 "/home/gokul/ChibiOS_2.5.0/os/ports/GCC/ARMCMx/chcore_v7m.c" 1
  44              		_port_exit_from_isr:
  45              	@ 0 "" 2
  46              		.loc 1 207 0
  47              	@ 207 "/home/gokul/ChibiOS_2.5.0/os/ports/GCC/ARMCMx/chcore_v7m.c" 1
  48 000c 00DF     		svc     #0
  49              	@ 0 "" 2
  50              		.loc 1 214 0
  51              		.thumb
  52              		.cfi_endproc
  53              	.LFE11:
  54              		.size	_port_switch_from_isr, .-_port_switch_from_isr
  55 000e 00BF     		.section	.text.SVCallVector,"ax",%progbits
  56              		.align	2
  57              		.p2align 4,,15
ARM GAS  /tmp/ccIXPISK.s 			page 2


  58              		.global	SVCallVector
  59              		.thumb
  60              		.thumb_func
  61              		.type	SVCallVector, %function
  62              	SVCallVector:
  63              	.LFB8:
  64              		.loc 1 58 0
  65              		.cfi_startproc
  66              		@ args = 0, pretend = 0, frame = 0
  67              		@ frame_needed = 0, uses_anonymous_args = 0
  68              		@ link register save eliminated.
  69              		.loc 1 62 0
  70              	@ 62 "/home/gokul/ChibiOS_2.5.0/os/ports/GCC/ARMCMx/chcore_v7m.c" 1
  71 0000 EFF30983 		mrs     r3, PSP
  72              	@ 0 "" 2
  73              	.LVL3:
  74              		.loc 1 66 0
  75              		.thumb
  76 0004 2033     		adds	r3, r3, #32
  77              	.LVL4:
  78              		.loc 1 73 0
  79              	@ 73 "/home/gokul/ChibiOS_2.5.0/os/ports/GCC/ARMCMx/chcore_v7m.c" 1
  80 0006 83F30988 		msr     PSP, r3
  81              	@ 0 "" 2
  82              		.thumb
  83              	.LBB2:
  84              		.loc 1 74 0
  85 000a 0023     		movs	r3, #0
  86              	.LVL5:
  87              	@ 74 "/home/gokul/ChibiOS_2.5.0/os/ports/GCC/ARMCMx/chcore_v7m.c" 1
  88 000c 83F31188 		msr     BASEPRI, r3
  89              	@ 0 "" 2
  90              	.LVL6:
  91              		.thumb
  92 0010 7047     		bx	lr
  93              	.LBE2:
  94              		.cfi_endproc
  95              	.LFE8:
  96              		.size	SVCallVector, .-SVCallVector
  97 0012 00BFAFF3 		.section	.text._port_init,"ax",%progbits
  97      0080AFF3 
  97      0080AFF3 
  97      0080
  98              		.align	2
  99              		.p2align 4,,15
 100              		.global	_port_init
 101              		.thumb
 102              		.thumb_func
 103              		.type	_port_init, %function
 104              	_port_init:
 105              	.LFB9:
 106              		.loc 1 111 0
 107              		.cfi_startproc
 108              		@ args = 0, pretend = 0, frame = 0
 109              		@ frame_needed = 0, uses_anonymous_args = 0
 110 0000 08B5     		push	{r3, lr}
 111              	.LCFI0:
ARM GAS  /tmp/ccIXPISK.s 			page 3


 112              		.cfi_def_cfa_offset 8
 113              		.cfi_offset 3, -8
 114              		.cfi_offset 14, -4
 115              		.loc 1 114 0
 116 0002 4FF46D43 		mov	r3, #60672
 117 0006 CEF20003 		movt	r3, 57344
 118              		.loc 1 115 0
 119 000a 4FF44072 		mov	r2, #768
 120 000e C0F2FA52 		movt	r2, 1530
 121              		.loc 1 114 0
 122 0012 0021     		movs	r1, #0
 123 0014 9960     		str	r1, [r3, #8]
 124              		.loc 1 118 0
 125 0016 0720     		movs	r0, #7
 126 0018 1021     		movs	r1, #16
 127              		.loc 1 115 0
 128 001a DA60     		str	r2, [r3, #12]
 129              		.loc 1 118 0
 130 001c FFF7FEFF 		bl	nvicSetSystemHandlerPriority
 131              	.LVL7:
 132              		.loc 1 120 0
 133 0020 0A20     		movs	r0, #10
 134 0022 4FF40071 		mov	r1, #512
 135 0026 FFF7FEFF 		bl	nvicSetSystemHandlerPriority
 136              	.LVL8:
 137              		.loc 1 122 0
 138 002a 0B20     		movs	r0, #11
 139 002c 8021     		movs	r1, #128
 140              		.loc 1 124 0
 141 002e BDE80840 		pop	{r3, lr}
 142              		.loc 1 122 0
 143 0032 FFF7FEBF 		b	nvicSetSystemHandlerPriority
 144              	.LVL9:
 145              		.cfi_endproc
 146              	.LFE9:
 147              		.size	_port_init, .-_port_init
 148 0036 00BFAFF3 		.section	.text._port_irq_epilogue,"ax",%progbits
 148      0080AFF3 
 148      0080
 149              		.align	2
 150              		.p2align 4,,15
 151              		.global	_port_irq_epilogue
 152              		.thumb
 153              		.thumb_func
 154              		.type	_port_irq_epilogue, %function
 155              	_port_irq_epilogue:
 156              	.LFB10:
 157              		.loc 1 141 0
 158              		.cfi_startproc
 159              		@ args = 0, pretend = 0, frame = 0
 160              		@ frame_needed = 0, uses_anonymous_args = 0
 161              		@ link register save eliminated.
 162              	.LBB3:
 163              		.loc 1 143 0
 164 0000 2023     		movs	r3, #32
 165              	.LVL10:
 166              	@ 143 "/home/gokul/ChibiOS_2.5.0/os/ports/GCC/ARMCMx/chcore_v7m.c" 1
ARM GAS  /tmp/ccIXPISK.s 			page 4


 167 0002 83F31188 		msr     BASEPRI, r3
 168              	@ 0 "" 2
 169              	.LVL11:
 170              		.thumb
 171              	.LBE3:
 172              		.loc 1 144 0
 173 0006 4FF46D43 		mov	r3, #60672
 174              	.LVL12:
 175 000a CEF20003 		movt	r3, 57344
 176 000e 5868     		ldr	r0, [r3, #4]
 177 0010 10F40063 		ands	r3, r0, #2048
 178 0014 1AD0     		beq	.L5
 179              	.LBB4:
 180              		.loc 1 148 0
 181              	@ 148 "/home/gokul/ChibiOS_2.5.0/os/ports/GCC/ARMCMx/chcore_v7m.c" 1
 182 0016 EFF30983 		mrs     r3, PSP
 183              	@ 0 "" 2
 184              	.LVL13:
 185              		.loc 1 152 0
 186              		.thumb
 187 001a A3F12002 		sub	r2, r3, #32
 188              	.LVL14:
 189              		.loc 1 153 0
 190              	@ 153 "/home/gokul/ChibiOS_2.5.0/os/ports/GCC/ARMCMx/chcore_v7m.c" 1
 191 001e 82F30988 		msr     PSP, r2
 192              	@ 0 "" 2
 193              		.loc 1 158 0
 194              		.thumb
 195 0022 1149     		ldr	r1, .L12
 196              		.loc 1 154 0
 197 0024 4FF08070 		mov	r0, #16777216
 198              		.loc 1 158 0
 199 0028 8A69     		ldr	r2, [r1, #24]
 200              	.LVL15:
 201              		.loc 1 154 0
 202 002a 43F8040C 		str	r0, [r3, #-4]
 203              		.loc 1 158 0
 204 002e 92F82300 		ldrb	r0, [r2, #35]	@ zero_extendqisi2
 205 0032 0968     		ldr	r1, [r1, #0]
 206 0034 9268     		ldr	r2, [r2, #8]
 207 0036 8968     		ldr	r1, [r1, #8]
 208 0038 58B1     		cbz	r0, .L6
 209              		.loc 1 158 0 is_stmt 0 discriminator 1
 210 003a 9142     		cmp	r1, r2
 211 003c 94BF     		ite	ls
 212 003e 0022     		movls	r2, #0
 213 0040 0122     		movhi	r2, #1
 214 0042 62B1     		cbz	r2, .L8
 215              	.L11:
 216              		.loc 1 160 0 is_stmt 1
 217 0044 094A     		ldr	r2, .L12+4
 218 0046 43F8082C 		str	r2, [r3, #-8]
 219 004a 7047     		bx	lr
 220              	.LVL16:
 221              	.L5:
 222              	.LBE4:
 223              	.LBB5:
ARM GAS  /tmp/ccIXPISK.s 			page 5


 224              		.loc 1 190 0
 225              	@ 190 "/home/gokul/ChibiOS_2.5.0/os/ports/GCC/ARMCMx/chcore_v7m.c" 1
 226 004c 83F31188 		msr     BASEPRI, r3
 227              	@ 0 "" 2
 228              	.LVL17:
 229              		.thumb
 230 0050 7047     		bx	lr
 231              	.LVL18:
 232              	.L6:
 233              	.LBE5:
 234              	.LBB6:
 235              		.loc 1 158 0 discriminator 2
 236 0052 9142     		cmp	r1, r2
 237 0054 34BF     		ite	cc
 238 0056 0022     		movcc	r2, #0
 239 0058 0122     		movcs	r2, #1
 240 005a 002A     		cmp	r2, #0
 241 005c F2D1     		bne	.L11
 242              	.L8:
 243              		.loc 1 169 0
 244 005e 0448     		ldr	r0, .L12+8
 245 0060 43F8080C 		str	r0, [r3, #-8]
 246 0064 7047     		bx	lr
 247              	.L13:
 248 0066 00BF     		.align	2
 249              	.L12:
 250 0068 00000000 		.word	rlist
 251 006c 00000000 		.word	_port_switch_from_isr
 252 0070 0C000000 		.word	_port_exit_from_isr
 253              	.LBE6:
 254              		.cfi_endproc
 255              	.LFE10:
 256              		.size	_port_irq_epilogue, .-_port_irq_epilogue
 257 0074 AFF30080 		.section	.text.SysTickVector,"ax",%progbits
 257      AFF30080 
 257      AFF30080 
 258              		.align	2
 259              		.p2align 4,,15
 260              		.global	SysTickVector
 261              		.thumb
 262              		.thumb_func
 263              		.type	SysTickVector, %function
 264              	SysTickVector:
 265              	.LFB7:
 266              		.loc 1 40 0
 267              		.cfi_startproc
 268              		@ args = 0, pretend = 0, frame = 0
 269              		@ frame_needed = 0, uses_anonymous_args = 0
 270 0000 08B5     		push	{r3, lr}
 271              	.LCFI1:
 272              		.cfi_def_cfa_offset 8
 273              		.cfi_offset 3, -8
 274              		.cfi_offset 14, -4
 275              		.loc 1 42 0
 276 0002 FFF7FEFF 		bl	dbg_check_enter_isr
 277              	.LVL19:
 278              	.LBB7:
ARM GAS  /tmp/ccIXPISK.s 			page 6


 279              		.loc 1 44 0
 280 0006 2023     		movs	r3, #32
 281              	.LVL20:
 282              	@ 44 "/home/gokul/ChibiOS_2.5.0/os/ports/GCC/ARMCMx/chcore_v7m.c" 1
 283 0008 83F31188 		msr     BASEPRI, r3
 284              	@ 0 "" 2
 285              	.LVL21:
 286              		.thumb
 287              	.LBE7:
 288 000c FFF7FEFF 		bl	dbg_check_lock_from_isr
 289              	.LVL22:
 290              		.loc 1 45 0
 291 0010 FFF7FEFF 		bl	chSysTimerHandlerI
 292              	.LVL23:
 293              		.loc 1 46 0
 294 0014 FFF7FEFF 		bl	dbg_check_unlock_from_isr
 295              	.LVL24:
 296              	.LBB8:
 297 0018 0023     		movs	r3, #0
 298              	.LVL25:
 299              	@ 46 "/home/gokul/ChibiOS_2.5.0/os/ports/GCC/ARMCMx/chcore_v7m.c" 1
 300 001a 83F31188 		msr     BASEPRI, r3
 301              	@ 0 "" 2
 302              	.LVL26:
 303              		.thumb
 304              	.LBE8:
 305              		.loc 1 48 0
 306 001e FFF7FEFF 		bl	dbg_check_leave_isr
 307              	.LVL27:
 308              		.loc 1 49 0
 309 0022 BDE80840 		pop	{r3, lr}
 310              		.loc 1 48 0
 311 0026 FFF7FEBF 		b	_port_irq_epilogue
 312              	.LVL28:
 313              		.cfi_endproc
 314              	.LFE7:
 315              		.size	SysTickVector, .-SysTickVector
 316 002a 00BFAFF3 		.section	.text._port_switch,"ax",%progbits
 316      0080
 317              		.align	2
 318              		.p2align 4,,15
 319              		.global	_port_switch
 320              		.thumb
 321              		.thumb_func
 322              		.type	_port_switch, %function
 323              	_port_switch:
 324              	.LFB12:
 325              		.loc 1 229 0
 326              		.cfi_startproc
 327              		@ Naked Function: prologue and epilogue provided by programmer.
 328              		@ args = 0, pretend = 0, frame = 0
 329              		@ frame_needed = 0, uses_anonymous_args = 0
 330              	.LVL29:
 331              		.loc 1 231 0
 332              	@ 231 "/home/gokul/ChibiOS_2.5.0/os/ports/GCC/ARMCMx/chcore_v7m.c" 1
 333 0000 2DE9F04F 		push    {r4, r5, r6, r7, r8, r9, r10, r11, lr}
 334              	@ 0 "" 2
ARM GAS  /tmp/ccIXPISK.s 			page 7


 335              		.loc 1 237 0
 336              	@ 237 "/home/gokul/ChibiOS_2.5.0/os/ports/GCC/ARMCMx/chcore_v7m.c" 1
 337 0004 C1F80CD0 		str     sp, [r1, #12]                          
 338 0008 D0F80CD0 		ldr     sp, [r0, #12]
 339              	@ 0 "" 2
 340              		.loc 1 243 0
 341              	@ 243 "/home/gokul/ChibiOS_2.5.0/os/ports/GCC/ARMCMx/chcore_v7m.c" 1
 342 000c BDE8F08F 		pop     {r4, r5, r6, r7, r8, r9, r10, r11, pc}
 343              	@ 0 "" 2
 344              		.loc 1 245 0
 345              		.thumb
 346              		.cfi_endproc
 347              	.LFE12:
 348              		.size	_port_switch, .-_port_switch
 349              		.section	.text._port_thread_start,"ax",%progbits
 350              		.align	2
 351              		.p2align 4,,15
 352              		.global	_port_thread_start
 353              		.thumb
 354              		.thumb_func
 355              		.type	_port_thread_start, %function
 356              	_port_thread_start:
 357              	.LFB13:
 358              		.loc 1 252 0
 359              		.cfi_startproc
 360              		@ args = 0, pretend = 0, frame = 0
 361              		@ frame_needed = 0, uses_anonymous_args = 0
 362 0000 08B5     		push	{r3, lr}
 363              	.LCFI2:
 364              		.cfi_def_cfa_offset 8
 365              		.cfi_offset 3, -8
 366              		.cfi_offset 14, -4
 367              		.loc 1 254 0
 368 0002 FFF7FEFF 		bl	dbg_check_unlock
 369              	.LVL30:
 370              	.LBB9:
 371 0006 0023     		movs	r3, #0
 372              	.LVL31:
 373              	@ 254 "/home/gokul/ChibiOS_2.5.0/os/ports/GCC/ARMCMx/chcore_v7m.c" 1
 374 0008 83F31188 		msr     BASEPRI, r3
 375              	@ 0 "" 2
 376              	.LVL32:
 377              		.thumb
 378              	.LBE9:
 379              		.loc 1 255 0
 380              	@ 255 "/home/gokul/ChibiOS_2.5.0/os/ports/GCC/ARMCMx/chcore_v7m.c" 1
 381 000c 2846     		mov     r0, r5                                 
 382 000e A047     		blx     r4                                     
 383 0010 FFF7FEFF 		bl      chThdExit
 384              	@ 0 "" 2
 385              		.thumb
 386 0014 08BD     		pop	{r3, pc}
 387              		.cfi_endproc
 388              	.LFE13:
 389              		.size	_port_thread_start, .-_port_thread_start
 390 0016 00BFAFF3 		.text
 390      0080AFF3 
ARM GAS  /tmp/ccIXPISK.s 			page 8


 390      0080
 391              	.Letext0:
 392              		.file 2 "/opt/gcc-arm-none-eabi-4_7-2013q1/bin/../lib/gcc/arm-none-eabi/4.7.3/../../../../arm-none
 393              		.file 3 "/home/gokul/ChibiOS_2.5.0/os/ports/GCC/ARMCMx/chtypes.h"
 394              		.file 4 "/home/gokul/ChibiOS_2.5.0/os/kernel/include/chlists.h"
 395              		.file 5 "/home/gokul/ChibiOS_2.5.0/os/kernel/include/chthreads.h"
 396              		.file 6 "/home/gokul/ChibiOS_2.5.0/os/ports/GCC/ARMCMx/chcore_v7m.h"
 397              		.file 7 "/home/gokul/ChibiOS_2.5.0/os/ports/common/ARMCMx/nvic.h"
 398              		.file 8 "/home/gokul/ChibiOS_2.5.0/os/kernel/include/chschd.h"
 399              		.file 9 "/home/gokul/ChibiOS_2.5.0/os/kernel/include/chmtx.h"
 400              		.file 10 "/home/gokul/ChibiOS_2.5.0/os/kernel/include/chdebug.h"
 401              		.file 11 "/home/gokul/ChibiOS_2.5.0/os/kernel/include/chsys.h"