ARM GAS  /tmp/cc0xcaEe.s 			page 1


   1              		.syntax unified
   2              		.cpu cortex-m4
   3              		.fpu softvfp
   4              		.eabi_attribute 20, 1
   5              		.eabi_attribute 21, 1
   6              		.eabi_attribute 23, 3
   7              		.eabi_attribute 24, 1
   8              		.eabi_attribute 25, 1
   9              		.eabi_attribute 26, 1
  10              		.eabi_attribute 30, 2
  11              		.eabi_attribute 34, 1
  12              		.eabi_attribute 18, 4
  13              		.thumb
  14              		.file	"chmemcore.c"
  15              		.text
  16              	.Ltext0:
  17              		.cfi_sections	.debug_frame
  18              		.section	.text._core_init,"ax",%progbits
  19              		.align	2
  20              		.p2align 4,,15
  21              		.global	_core_init
  22              		.thumb
  23              		.thumb_func
  24              		.type	_core_init, %function
  25              	_core_init:
  26              	.LFB7:
  27              		.file 1 "/home/gokul/ChibiOS_2.5.0/os/kernel/src/chmemcore.c"
  28              		.loc 1 59 0
  29              		.cfi_startproc
  30              		@ args = 0, pretend = 0, frame = 0
  31              		@ frame_needed = 0, uses_anonymous_args = 0
  32              		@ link register save eliminated.
  33              		.loc 1 63 0
  34 0000 40F20002 		movw	r2, #:lower16:.LANCHOR0
  35              		.loc 1 64 0
  36 0004 40F20003 		movw	r3, #:lower16:.LANCHOR1
  37 0008 40F20001 		movw	r1, #:lower16:__heap_end__
  38              		.loc 1 63 0
  39 000c 0648     		ldr	r0, .L2
  40 000e C0F20002 		movt	r2, #:upper16:.LANCHOR0
  41              		.loc 1 64 0
  42 0012 C0F20003 		movt	r3, #:upper16:.LANCHOR1
  43 0016 C0F20001 		movt	r1, #:upper16:__heap_end__
  44              		.loc 1 63 0
  45 001a 20F00700 		bic	r0, r0, #7
  46              		.loc 1 64 0
  47 001e 21F00701 		bic	r1, r1, #7
  48              		.loc 1 63 0
  49 0022 1060     		str	r0, [r2, #0]
  50              		.loc 1 64 0
  51 0024 1960     		str	r1, [r3, #0]
  52 0026 7047     		bx	lr
  53              	.L3:
  54              		.align	2
  55              	.L2:
  56 0028 07000000 		.word	__heap_base__+7
  57              		.cfi_endproc
ARM GAS  /tmp/cc0xcaEe.s 			page 2


  58              	.LFE7:
  59              		.size	_core_init, .-_core_init
  60 002c AFF30080 		.section	.text.chCoreAllocI,"ax",%progbits
  61              		.align	2
  62              		.p2align 4,,15
  63              		.global	chCoreAllocI
  64              		.thumb
  65              		.thumb_func
  66              		.type	chCoreAllocI, %function
  67              	chCoreAllocI:
  68              	.LFB9:
  69              		.loc 1 105 0
  70              		.cfi_startproc
  71              		@ args = 0, pretend = 0, frame = 0
  72              		@ frame_needed = 0, uses_anonymous_args = 0
  73              	.LVL0:
  74 0000 10B5     		push	{r4, lr}
  75              	.LCFI0:
  76              		.cfi_def_cfa_offset 8
  77              		.cfi_offset 4, -8
  78              		.cfi_offset 14, -4
  79              		.loc 1 105 0
  80 0002 0446     		mov	r4, r0
  81              		.loc 1 108 0
  82 0004 FFF7FEFF 		bl	chDbgCheckClassI
  83              	.LVL1:
  84              		.loc 1 111 0
  85 0008 074A     		ldr	r2, .L7
  86 000a 0849     		ldr	r1, .L7+4
  87 000c 1368     		ldr	r3, [r2, #0]
  88 000e 0968     		ldr	r1, [r1, #0]
  89              		.loc 1 110 0
  90 0010 E01D     		adds	r0, r4, #7
  91 0012 20F00700 		bic	r0, r0, #7
  92              	.LVL2:
  93              		.loc 1 111 0
  94 0016 C91A     		subs	r1, r1, r3
  95 0018 8842     		cmp	r0, r1
  96              	.LVL3:
  97              		.loc 1 114 0
  98 001a 9ABF     		itte	ls
  99 001c 1818     		addls	r0, r3, r0
 100              	.LVL4:
 101 001e 1060     		strls	r0, [r2, #0]
 102              		.loc 1 112 0
 103 0020 0023     		movhi	r3, #0
 104              	.LVL5:
 105              		.loc 1 116 0
 106 0022 1846     		mov	r0, r3
 107 0024 10BD     		pop	{r4, pc}
 108              	.L8:
 109 0026 00BF     		.align	2
 110              	.L7:
 111 0028 00000000 		.word	.LANCHOR0
 112 002c 00000000 		.word	.LANCHOR1
 113              		.cfi_endproc
 114              	.LFE9:
ARM GAS  /tmp/cc0xcaEe.s 			page 3


 115              		.size	chCoreAllocI, .-chCoreAllocI
 116              		.section	.text.chCoreAlloc,"ax",%progbits
 117              		.align	2
 118              		.p2align 4,,15
 119              		.global	chCoreAlloc
 120              		.thumb
 121              		.thumb_func
 122              		.type	chCoreAlloc, %function
 123              	chCoreAlloc:
 124              	.LFB8:
 125              		.loc 1 84 0
 126              		.cfi_startproc
 127              		@ args = 0, pretend = 0, frame = 0
 128              		@ frame_needed = 0, uses_anonymous_args = 0
 129              	.LVL6:
 130 0000 10B5     		push	{r4, lr}
 131              	.LCFI1:
 132              		.cfi_def_cfa_offset 8
 133              		.cfi_offset 4, -8
 134              		.cfi_offset 14, -4
 135              	.LBB2:
 136              		.loc 1 87 0
 137 0002 2023     		movs	r3, #32
 138              	.LVL7:
 139              	.LBE2:
 140              		.loc 1 84 0
 141 0004 0446     		mov	r4, r0
 142              	.LBB3:
 143              		.loc 1 87 0
 144              	@ 87 "/home/gokul/ChibiOS_2.5.0/os/kernel/src/chmemcore.c" 1
 145 0006 83F31188 		msr     BASEPRI, r3
 146              	@ 0 "" 2
 147              	.LVL8:
 148              		.thumb
 149              	.LBE3:
 150 000a FFF7FEFF 		bl	dbg_check_lock
 151              	.LVL9:
 152              		.loc 1 88 0
 153 000e 2046     		mov	r0, r4
 154 0010 FFF7FEFF 		bl	chCoreAllocI
 155              	.LVL10:
 156 0014 0446     		mov	r4, r0
 157              	.LVL11:
 158              		.loc 1 89 0
 159 0016 FFF7FEFF 		bl	dbg_check_unlock
 160              	.LVL12:
 161              	.LBB4:
 162 001a 0023     		movs	r3, #0
 163              	.LVL13:
 164              	@ 89 "/home/gokul/ChibiOS_2.5.0/os/kernel/src/chmemcore.c" 1
 165 001c 83F31188 		msr     BASEPRI, r3
 166              	@ 0 "" 2
 167              	.LVL14:
 168              		.thumb
 169              	.LBE4:
 170              		.loc 1 91 0
 171 0020 2046     		mov	r0, r4
ARM GAS  /tmp/cc0xcaEe.s 			page 4


 172 0022 10BD     		pop	{r4, pc}
 173              		.cfi_endproc
 174              	.LFE8:
 175              		.size	chCoreAlloc, .-chCoreAlloc
 176 0024 AFF30080 		.section	.text.chCoreStatus,"ax",%progbits
 176      AFF30080 
 176      AFF30080 
 177              		.align	2
 178              		.p2align 4,,15
 179              		.global	chCoreStatus
 180              		.thumb
 181              		.thumb_func
 182              		.type	chCoreStatus, %function
 183              	chCoreStatus:
 184              	.LFB10:
 185              		.loc 1 125 0
 186              		.cfi_startproc
 187              		@ args = 0, pretend = 0, frame = 0
 188              		@ frame_needed = 0, uses_anonymous_args = 0
 189              		@ link register save eliminated.
 190              		.loc 1 127 0
 191 0000 40F20002 		movw	r2, #:lower16:.LANCHOR1
 192 0004 40F20003 		movw	r3, #:lower16:.LANCHOR0
 193 0008 C0F20002 		movt	r2, #:upper16:.LANCHOR1
 194 000c C0F20003 		movt	r3, #:upper16:.LANCHOR0
 195 0010 1068     		ldr	r0, [r2, #0]
 196 0012 1968     		ldr	r1, [r3, #0]
 197              		.loc 1 128 0
 198 0014 401A     		subs	r0, r0, r1
 199 0016 7047     		bx	lr
 200              		.cfi_endproc
 201              	.LFE10:
 202              		.size	chCoreStatus, .-chCoreStatus
 203 0018 AFF30080 		.section	.bss.endmem,"aw",%nobits
 203      AFF30080 
 204              		.align	2
 205              		.set	.LANCHOR1,. + 0
 206              		.type	endmem, %object
 207              		.size	endmem, 4
 208              	endmem:
 209 0000 00000000 		.space	4
 210              		.section	.bss.nextmem,"aw",%nobits
 211              		.align	2
 212              		.set	.LANCHOR0,. + 0
 213              		.type	nextmem, %object
 214              		.size	nextmem, 4
 215              	nextmem:
 216 0000 00000000 		.space	4
 217              		.text
 218              	.Letext0:
 219              		.file 2 "/opt/gcc-arm-none-eabi-4_7-2013q1/bin/../lib/gcc/arm-none-eabi/4.7.3/include/stddef.h"
 220              		.file 3 "/opt/gcc-arm-none-eabi-4_7-2013q1/bin/../lib/gcc/arm-none-eabi/4.7.3/../../../../arm-none
 221              		.file 4 "/home/gokul/ChibiOS_2.5.0/os/kernel/include/chdebug.h"