ARM GAS  /tmp/cc5ML9bA.s 			page 1


   1              		.syntax unified
   2              		.cpu cortex-m4
   3              		.fpu softvfp
   4              		.eabi_attribute 20, 1
   5              		.eabi_attribute 21, 1
   6              		.eabi_attribute 23, 3
   7              		.eabi_attribute 24, 1
   8              		.eabi_attribute 25, 1
   9              		.eabi_attribute 26, 1
  10              		.eabi_attribute 30, 2
  11              		.eabi_attribute 34, 1
  12              		.eabi_attribute 18, 4
  13              		.thumb
  14              		.file	"chmtx.c"
  15              		.text
  16              	.Ltext0:
  17              		.cfi_sections	.debug_frame
  18              		.section	.text.chMtxInit,"ax",%progbits
  19              		.align	2
  20              		.p2align 4,,15
  21              		.global	chMtxInit
  22              		.thumb
  23              		.thumb_func
  24              		.type	chMtxInit, %function
  25              	chMtxInit:
  26              	.LFB7:
  27              		.file 1 "/home/gokul/ChibiOS_2.5.0/os/kernel/src/chmtx.c"
  28              		.loc 1 79 0
  29              		.cfi_startproc
  30              		@ args = 0, pretend = 0, frame = 0
  31              		@ frame_needed = 0, uses_anonymous_args = 0
  32              	.LVL0:
  33 0000 10B5     		push	{r4, lr}
  34              	.LCFI0:
  35              		.cfi_def_cfa_offset 8
  36              		.cfi_offset 4, -8
  37              		.cfi_offset 14, -4
  38              		.loc 1 81 0
  39 0002 0446     		mov	r4, r0
  40 0004 20B1     		cbz	r0, .L4
  41              	.LVL1:
  42              	.L2:
  43              		.loc 1 84 0
  44 0006 0023     		movs	r3, #0
  45              		.loc 1 83 0
  46 0008 6460     		str	r4, [r4, #4]
  47 000a 2460     		str	r4, [r4, #0]
  48              		.loc 1 84 0
  49 000c A360     		str	r3, [r4, #8]
  50 000e 10BD     		pop	{r4, pc}
  51              	.LVL2:
  52              	.L4:
  53              		.loc 1 81 0 discriminator 1
  54 0010 0148     		ldr	r0, .L5
  55              	.LVL3:
  56 0012 FFF7FEFF 		bl	chDbgPanic
  57              	.LVL4:
ARM GAS  /tmp/cc5ML9bA.s 			page 2


  58 0016 F6E7     		b	.L2
  59              	.L6:
  60              		.align	2
  61              	.L5:
  62 0018 00000000 		.word	.LC0
  63              		.cfi_endproc
  64              	.LFE7:
  65              		.size	chMtxInit, .-chMtxInit
  66 001c AFF30080 		.section	.text.chMtxLockS,"ax",%progbits
  67              		.align	2
  68              		.p2align 4,,15
  69              		.global	chMtxLockS
  70              		.thumb
  71              		.thumb_func
  72              		.type	chMtxLockS, %function
  73              	chMtxLockS:
  74              	.LFB9:
  75              		.loc 1 114 0
  76              		.cfi_startproc
  77              		@ args = 0, pretend = 0, frame = 0
  78              		@ frame_needed = 0, uses_anonymous_args = 0
  79              	.LVL5:
  80 0000 F8B5     		push	{r3, r4, r5, r6, r7, lr}
  81              	.LCFI1:
  82              		.cfi_def_cfa_offset 24
  83              		.cfi_offset 3, -24
  84              		.cfi_offset 4, -20
  85              		.cfi_offset 5, -16
  86              		.cfi_offset 6, -12
  87              		.cfi_offset 7, -8
  88              		.cfi_offset 14, -4
  89              		.loc 1 115 0
  90 0002 3B4B     		ldr	r3, .L36
  91              		.loc 1 114 0
  92 0004 0546     		mov	r5, r0
  93              		.loc 1 115 0
  94 0006 9C69     		ldr	r4, [r3, #24]
  95              	.LVL6:
  96              		.loc 1 117 0
  97 0008 FFF7FEFF 		bl	chDbgCheckClassS
  98              	.LVL7:
  99              		.loc 1 118 0
 100 000c 002D     		cmp	r5, #0
 101 000e 6BD0     		beq	.L34
 102              	.L8:
 103              		.loc 1 121 0
 104 0010 A868     		ldr	r0, [r5, #8]
 105 0012 0028     		cmp	r0, #0
 106 0014 36D0     		beq	.L9
 107              	.LVL8:
 108              	.LBB29:
 109              		.loc 1 128 0 discriminator 1
 110 0016 A268     		ldr	r2, [r4, #8]
 111 0018 8168     		ldr	r1, [r0, #8]
 112 001a 9142     		cmp	r1, r2
 113 001c 08D2     		bcs	.L11
 114              	.L29:
ARM GAS  /tmp/cc5ML9bA.s 			page 3


 115              		.loc 1 132 0
 116 001e 90F82030 		ldrb	r3, [r0, #32]	@ zero_extendqisi2
 117              		.loc 1 130 0
 118 0022 8260     		str	r2, [r0, #8]
 119              		.loc 1 132 0
 120 0024 042B     		cmp	r3, #4
 121 0026 45D0     		beq	.L13
 122 0028 052B     		cmp	r3, #5
 123 002a 30D0     		beq	.L14
 124 002c 002B     		cmp	r3, #0
 125 002e 1ED0     		beq	.L12
 126              	.LVL9:
 127              	.L11:
 128              		.file 2 "/home/gokul/ChibiOS_2.5.0/os/kernel/include/chinline.h"
 129              		.loc 2 36 0
 130 0030 2846     		mov	r0, r5
 131              	.LVL10:
 132              	.L26:
 133              	.LBB30:
 134              	.LBB31:
 135              		.loc 2 38 0
 136 0032 0068     		ldr	r0, [r0, #0]
 137              	.LVL11:
 138              		.loc 2 39 0
 139 0034 8542     		cmp	r5, r0
 140 0036 03D0     		beq	.L27
 141 0038 8168     		ldr	r1, [r0, #8]
 142 003a A268     		ldr	r2, [r4, #8]
 143 003c 9142     		cmp	r1, r2
 144 003e F8D2     		bcs	.L26
 145              	.L27:
 146              		.loc 2 41 0
 147 0040 4368     		ldr	r3, [r0, #4]
 148              		.loc 2 40 0
 149 0042 2060     		str	r0, [r4, #0]
 150              		.loc 2 41 0
 151 0044 6360     		str	r3, [r4, #4]
 152              		.loc 2 42 0
 153 0046 1C60     		str	r4, [r3, #0]
 154 0048 4460     		str	r4, [r0, #4]
 155              	.LBE31:
 156              	.LBE30:
 157              		.loc 1 167 0
 158 004a A562     		str	r5, [r4, #40]
 159              		.loc 1 168 0
 160 004c 0420     		movs	r0, #4
 161              	.LVL12:
 162 004e FFF7FEFF 		bl	chSchGoSleepS
 163              	.LVL13:
 164              		.loc 1 171 0
 165 0052 A868     		ldr	r0, [r5, #8]
 166 0054 A042     		cmp	r0, r4
 167 0056 02D0     		beq	.L25
 168              		.loc 1 171 0 is_stmt 0 discriminator 1
 169 0058 2648     		ldr	r0, .L36+4
 170 005a FFF7FEFF 		bl	chDbgPanic
 171              	.LVL14:
ARM GAS  /tmp/cc5ML9bA.s 			page 4


 172              	.L25:
 173              		.loc 1 172 0 is_stmt 1
 174 005e 216C     		ldr	r1, [r4, #64]
 175 0060 A942     		cmp	r1, r5
 176 0062 13D0     		beq	.L7
 177              		.loc 1 172 0 is_stmt 0 discriminator 1
 178 0064 2448     		ldr	r0, .L36+8
 179              	.LBE29:
 180              		.loc 1 180 0 is_stmt 1 discriminator 1
 181 0066 BDE8F840 		pop	{r3, r4, r5, r6, r7, lr}
 182              	.LBB54:
 183              		.loc 1 172 0 discriminator 1
 184 006a FFF7FEBF 		b	chDbgPanic
 185              	.LVL15:
 186              	.L12:
 187              	.LBB32:
 188              	.LBB33:
 189              		.loc 2 68 0
 190 006e 90E80C00 		ldmia	r0, {r2, r3}
 191 0072 1A60     		str	r2, [r3, #0]
 192              		.loc 2 69 0
 193 0074 0268     		ldr	r2, [r0, #0]
 194              	.LBE33:
 195              	.LBE32:
 196              		.loc 1 157 0
 197 0076 0121     		movs	r1, #1
 198 0078 80F82010 		strb	r1, [r0, #32]
 199              	.LVL16:
 200              	.LBB35:
 201              	.LBB34:
 202              		.loc 2 69 0
 203 007c 5360     		str	r3, [r2, #4]
 204              	.LBE34:
 205              	.LBE35:
 206              		.loc 1 160 0
 207 007e FFF7FEFF 		bl	chSchReadyI
 208              	.LVL17:
 209              		.loc 1 161 0
 210 0082 D5E7     		b	.L11
 211              	.L9:
 212              	.LBE54:
 213              		.loc 1 177 0
 214 0084 206C     		ldr	r0, [r4, #64]
 215              		.loc 1 176 0
 216 0086 AC60     		str	r4, [r5, #8]
 217              		.loc 1 177 0
 218 0088 E860     		str	r0, [r5, #12]
 219              		.loc 1 178 0
 220 008a 2564     		str	r5, [r4, #64]
 221              	.L7:
 222 008c F8BD     		pop	{r3, r4, r5, r6, r7, pc}
 223              	.LVL18:
 224              	.L14:
 225              	.LBB55:
 226              	.LBB36:
 227              	.LBB37:
 228              		.loc 2 68 0
ARM GAS  /tmp/cc5ML9bA.s 			page 5


 229 008e 4168     		ldr	r1, [r0, #4]
 230 0090 0768     		ldr	r7, [r0, #0]
 231              	.LBE37:
 232              	.LBE36:
 233              		.loc 1 151 0
 234 0092 866A     		ldr	r6, [r0, #40]
 235              	.LVL19:
 236              	.LBB40:
 237              	.LBB38:
 238              		.loc 2 68 0
 239 0094 0F60     		str	r7, [r1, #0]
 240              		.loc 2 69 0
 241 0096 0768     		ldr	r7, [r0, #0]
 242              	.LBE38:
 243              	.LBE40:
 244              		.loc 2 36 0
 245 0098 3346     		mov	r3, r6
 246              	.LBB41:
 247              	.LBB39:
 248              		.loc 2 69 0
 249 009a 7960     		str	r1, [r7, #4]
 250              	.LVL20:
 251              	.L21:
 252              	.LBE39:
 253              	.LBE41:
 254              	.LBB42:
 255              	.LBB43:
 256              		.loc 2 38 0
 257 009c 1B68     		ldr	r3, [r3, #0]
 258              	.LVL21:
 259              		.loc 2 39 0
 260 009e 9E42     		cmp	r6, r3
 261 00a0 02D0     		beq	.L22
 262 00a2 9968     		ldr	r1, [r3, #8]
 263 00a4 9142     		cmp	r1, r2
 264 00a6 F9D2     		bcs	.L21
 265              	.L22:
 266              		.loc 2 41 0
 267 00a8 5A68     		ldr	r2, [r3, #4]
 268              		.loc 2 40 0
 269 00aa 0360     		str	r3, [r0, #0]
 270              		.loc 2 41 0
 271 00ac 4260     		str	r2, [r0, #4]
 272              		.loc 2 42 0
 273 00ae 1060     		str	r0, [r2, #0]
 274 00b0 5860     		str	r0, [r3, #4]
 275 00b2 BDE7     		b	.L11
 276              	.LVL22:
 277              	.L13:
 278              	.LBE43:
 279              	.LBE42:
 280              	.LBB44:
 281              	.LBB45:
 282              		.loc 2 68 0
 283 00b4 4168     		ldr	r1, [r0, #4]
 284 00b6 0768     		ldr	r7, [r0, #0]
 285              	.LBE45:
ARM GAS  /tmp/cc5ML9bA.s 			page 6


 286              	.LBE44:
 287              		.loc 1 135 0
 288 00b8 866A     		ldr	r6, [r0, #40]
 289              	.LVL23:
 290              	.LBB48:
 291              	.LBB46:
 292              		.loc 2 68 0
 293 00ba 0F60     		str	r7, [r1, #0]
 294              		.loc 2 69 0
 295 00bc 0768     		ldr	r7, [r0, #0]
 296              	.LBE46:
 297              	.LBE48:
 298              		.loc 1 135 0
 299 00be 3346     		mov	r3, r6
 300              	.LBB49:
 301              	.LBB47:
 302              		.loc 2 69 0
 303 00c0 7960     		str	r1, [r7, #4]
 304              	.LVL24:
 305              	.L18:
 306              	.LBE47:
 307              	.LBE49:
 308              	.LBB50:
 309              	.LBB51:
 310              		.loc 2 38 0
 311 00c2 1B68     		ldr	r3, [r3, #0]
 312              	.LVL25:
 313              		.loc 2 39 0
 314 00c4 9E42     		cmp	r6, r3
 315 00c6 0DD0     		beq	.L35
 316 00c8 9968     		ldr	r1, [r3, #8]
 317 00ca 9142     		cmp	r1, r2
 318 00cc F9D2     		bcs	.L18
 319              	.LVL26:
 320              	.L19:
 321              		.loc 2 41 0
 322 00ce 5A68     		ldr	r2, [r3, #4]
 323              		.loc 2 40 0
 324 00d0 0360     		str	r3, [r0, #0]
 325              		.loc 2 41 0
 326 00d2 4260     		str	r2, [r0, #4]
 327              		.loc 2 42 0
 328 00d4 1060     		str	r0, [r2, #0]
 329 00d6 5860     		str	r0, [r3, #4]
 330              	.LBE51:
 331              	.LBE50:
 332              		.loc 1 136 0
 333 00d8 B068     		ldr	r0, [r6, #8]
 334              	.LVL27:
 335              		.loc 1 128 0
 336 00da A268     		ldr	r2, [r4, #8]
 337 00dc 8368     		ldr	r3, [r0, #8]
 338              	.LVL28:
 339 00de 9342     		cmp	r3, r2
 340 00e0 9DD3     		bcc	.L29
 341 00e2 A5E7     		b	.L11
 342              	.LVL29:
ARM GAS  /tmp/cc5ML9bA.s 			page 7


 343              	.L35:
 344              	.LBB53:
 345              	.LBB52:
 346              		.loc 2 39 0
 347 00e4 3346     		mov	r3, r6
 348              	.LVL30:
 349 00e6 F2E7     		b	.L19
 350              	.LVL31:
 351              	.L34:
 352              	.LBE52:
 353              	.LBE53:
 354              	.LBE55:
 355              		.loc 1 118 0 discriminator 1
 356 00e8 0448     		ldr	r0, .L36+12
 357 00ea FFF7FEFF 		bl	chDbgPanic
 358              	.LVL32:
 359 00ee 8FE7     		b	.L8
 360              	.L37:
 361              		.align	2
 362              	.L36:
 363 00f0 00000000 		.word	rlist
 364 00f4 20000000 		.word	.LC2
 365 00f8 34000000 		.word	.LC3
 366 00fc 10000000 		.word	.LC1
 367              		.cfi_endproc
 368              	.LFE9:
 369              		.size	chMtxLockS, .-chMtxLockS
 370              		.section	.text.chMtxLock,"ax",%progbits
 371              		.align	2
 372              		.p2align 4,,15
 373              		.global	chMtxLock
 374              		.thumb
 375              		.thumb_func
 376              		.type	chMtxLock, %function
 377              	chMtxLock:
 378              	.LFB8:
 379              		.loc 1 96 0
 380              		.cfi_startproc
 381              		@ args = 0, pretend = 0, frame = 0
 382              		@ frame_needed = 0, uses_anonymous_args = 0
 383              	.LVL33:
 384 0000 10B5     		push	{r4, lr}
 385              	.LCFI2:
 386              		.cfi_def_cfa_offset 8
 387              		.cfi_offset 4, -8
 388              		.cfi_offset 14, -4
 389              	.LBB56:
 390              		.loc 1 98 0
 391 0002 2023     		movs	r3, #32
 392              	.LVL34:
 393              	.LBE56:
 394              		.loc 1 96 0
 395 0004 0446     		mov	r4, r0
 396              	.LBB57:
 397              		.loc 1 98 0
 398              	@ 98 "/home/gokul/ChibiOS_2.5.0/os/kernel/src/chmtx.c" 1
 399 0006 83F31188 		msr     BASEPRI, r3
ARM GAS  /tmp/cc5ML9bA.s 			page 8


 400              	@ 0 "" 2
 401              	.LVL35:
 402              		.thumb
 403              	.LBE57:
 404 000a FFF7FEFF 		bl	dbg_check_lock
 405              	.LVL36:
 406              		.loc 1 100 0
 407 000e 2046     		mov	r0, r4
 408 0010 FFF7FEFF 		bl	chMtxLockS
 409              	.LVL37:
 410              		.loc 1 102 0
 411 0014 FFF7FEFF 		bl	dbg_check_unlock
 412              	.LVL38:
 413              	.LBB58:
 414 0018 0023     		movs	r3, #0
 415              	.LVL39:
 416              	@ 102 "/home/gokul/ChibiOS_2.5.0/os/kernel/src/chmtx.c" 1
 417 001a 83F31188 		msr     BASEPRI, r3
 418              	@ 0 "" 2
 419              	.LVL40:
 420              		.thumb
 421 001e 10BD     		pop	{r4, pc}
 422              	.LBE58:
 423              		.cfi_endproc
 424              	.LFE8:
 425              		.size	chMtxLock, .-chMtxLock
 426              		.section	.text.chMtxTryLockS,"ax",%progbits
 427              		.align	2
 428              		.p2align 4,,15
 429              		.global	chMtxTryLockS
 430              		.thumb
 431              		.thumb_func
 432              		.type	chMtxTryLockS, %function
 433              	chMtxTryLockS:
 434              	.LFB11:
 435              		.loc 1 227 0
 436              		.cfi_startproc
 437              		@ args = 0, pretend = 0, frame = 0
 438              		@ frame_needed = 0, uses_anonymous_args = 0
 439              	.LVL41:
 440 0000 10B5     		push	{r4, lr}
 441              	.LCFI3:
 442              		.cfi_def_cfa_offset 8
 443              		.cfi_offset 4, -8
 444              		.cfi_offset 14, -4
 445              		.loc 1 227 0
 446 0002 0446     		mov	r4, r0
 447              		.loc 1 229 0
 448 0004 FFF7FEFF 		bl	chDbgCheckClassS
 449              	.LVL42:
 450              		.loc 1 230 0
 451 0008 5CB1     		cbz	r4, .L43
 452              	.L40:
 453              		.loc 1 232 0
 454 000a A368     		ldr	r3, [r4, #8]
 455 000c 0BB1     		cbz	r3, .L44
 456              		.loc 1 233 0
ARM GAS  /tmp/cc5ML9bA.s 			page 9


 457 000e 0020     		movs	r0, #0
 458              		.loc 1 238 0
 459 0010 10BD     		pop	{r4, pc}
 460              	.L44:
 461              		.loc 1 234 0
 462 0012 0648     		ldr	r0, .L45
 463 0014 8169     		ldr	r1, [r0, #24]
 464              		.loc 1 235 0
 465 0016 0A6C     		ldr	r2, [r1, #64]
 466              		.loc 1 234 0
 467 0018 A160     		str	r1, [r4, #8]
 468              		.loc 1 235 0
 469 001a E260     		str	r2, [r4, #12]
 470              		.loc 1 237 0
 471 001c 0120     		movs	r0, #1
 472              		.loc 1 236 0
 473 001e 0C64     		str	r4, [r1, #64]
 474              		.loc 1 237 0
 475 0020 10BD     		pop	{r4, pc}
 476              	.L43:
 477              		.loc 1 230 0 discriminator 1
 478 0022 0348     		ldr	r0, .L45+4
 479 0024 FFF7FEFF 		bl	chDbgPanic
 480              	.LVL43:
 481 0028 EFE7     		b	.L40
 482              	.L46:
 483 002a 00BF     		.align	2
 484              	.L45:
 485 002c 00000000 		.word	rlist
 486 0030 48000000 		.word	.LC4
 487              		.cfi_endproc
 488              	.LFE11:
 489              		.size	chMtxTryLockS, .-chMtxTryLockS
 490 0034 AFF30080 		.section	.text.chMtxTryLock,"ax",%progbits
 490      AFF30080 
 490      AFF30080 
 491              		.align	2
 492              		.p2align 4,,15
 493              		.global	chMtxTryLock
 494              		.thumb
 495              		.thumb_func
 496              		.type	chMtxTryLock, %function
 497              	chMtxTryLock:
 498              	.LFB10:
 499              		.loc 1 199 0
 500              		.cfi_startproc
 501              		@ args = 0, pretend = 0, frame = 0
 502              		@ frame_needed = 0, uses_anonymous_args = 0
 503              	.LVL44:
 504 0000 10B5     		push	{r4, lr}
 505              	.LCFI4:
 506              		.cfi_def_cfa_offset 8
 507              		.cfi_offset 4, -8
 508              		.cfi_offset 14, -4
 509              	.LBB59:
 510              		.loc 1 202 0
 511 0002 2023     		movs	r3, #32
ARM GAS  /tmp/cc5ML9bA.s 			page 10


 512              	.LVL45:
 513              	.LBE59:
 514              		.loc 1 199 0
 515 0004 0446     		mov	r4, r0
 516              	.LBB60:
 517              		.loc 1 202 0
 518              	@ 202 "/home/gokul/ChibiOS_2.5.0/os/kernel/src/chmtx.c" 1
 519 0006 83F31188 		msr     BASEPRI, r3
 520              	@ 0 "" 2
 521              	.LVL46:
 522              		.thumb
 523              	.LBE60:
 524 000a FFF7FEFF 		bl	dbg_check_lock
 525              	.LVL47:
 526              		.loc 1 204 0
 527 000e 2046     		mov	r0, r4
 528 0010 FFF7FEFF 		bl	chMtxTryLockS
 529              	.LVL48:
 530 0014 0446     		mov	r4, r0
 531              	.LVL49:
 532              		.loc 1 206 0
 533 0016 FFF7FEFF 		bl	dbg_check_unlock
 534              	.LVL50:
 535              	.LBB61:
 536 001a 0023     		movs	r3, #0
 537              	.LVL51:
 538              	@ 206 "/home/gokul/ChibiOS_2.5.0/os/kernel/src/chmtx.c" 1
 539 001c 83F31188 		msr     BASEPRI, r3
 540              	@ 0 "" 2
 541              	.LVL52:
 542              		.thumb
 543              	.LBE61:
 544              		.loc 1 208 0
 545 0020 2046     		mov	r0, r4
 546 0022 10BD     		pop	{r4, pc}
 547              		.cfi_endproc
 548              	.LFE10:
 549              		.size	chMtxTryLock, .-chMtxTryLock
 550 0024 AFF30080 		.section	.text.chMtxUnlock,"ax",%progbits
 550      AFF30080 
 550      AFF30080 
 551              		.align	2
 552              		.p2align 4,,15
 553              		.global	chMtxUnlock
 554              		.thumb
 555              		.thumb_func
 556              		.type	chMtxUnlock, %function
 557              	chMtxUnlock:
 558              	.LFB12:
 559              		.loc 1 250 0
 560              		.cfi_startproc
 561              		@ args = 0, pretend = 0, frame = 0
 562              		@ frame_needed = 0, uses_anonymous_args = 0
 563              		.loc 1 251 0
 564 0000 1E4A     		ldr	r2, .L62
 565              		.loc 1 250 0
 566 0002 70B5     		push	{r4, r5, r6, lr}
ARM GAS  /tmp/cc5ML9bA.s 			page 11


 567              	.LCFI5:
 568              		.cfi_def_cfa_offset 16
 569              		.cfi_offset 4, -16
 570              		.cfi_offset 5, -12
 571              		.cfi_offset 6, -8
 572              		.cfi_offset 14, -4
 573              	.LBB62:
 574              		.loc 1 254 0
 575 0004 2023     		movs	r3, #32
 576              	.LVL53:
 577              	.LBE62:
 578              		.loc 1 251 0
 579 0006 9569     		ldr	r5, [r2, #24]
 580              	.LVL54:
 581              	.LBB63:
 582              		.loc 1 254 0
 583              	@ 254 "/home/gokul/ChibiOS_2.5.0/os/kernel/src/chmtx.c" 1
 584 0008 83F31188 		msr     BASEPRI, r3
 585              	@ 0 "" 2
 586              	.LVL55:
 587              		.thumb
 588              	.LBE63:
 589 000c FFF7FEFF 		bl	dbg_check_lock
 590              	.LVL56:
 591              		.loc 1 255 0
 592 0010 2C6C     		ldr	r4, [r5, #64]
 593 0012 002C     		cmp	r4, #0
 594 0014 2DD0     		beq	.L61
 595              	.L49:
 596              		.loc 1 258 0
 597 0016 A368     		ldr	r3, [r4, #8]
 598 0018 AB42     		cmp	r3, r5
 599 001a 03D0     		beq	.L50
 600              		.loc 1 258 0 is_stmt 0 discriminator 1
 601 001c 1848     		ldr	r0, .L62+4
 602 001e FFF7FEFF 		bl	chDbgPanic
 603              	.LVL57:
 604 0022 2C6C     		ldr	r4, [r5, #64]
 605              	.L50:
 606              	.LVL58:
 607              		.loc 1 266 0 is_stmt 1
 608 0024 2668     		ldr	r6, [r4, #0]
 609              		.loc 1 264 0
 610 0026 E368     		ldr	r3, [r4, #12]
 611              		.loc 1 266 0
 612 0028 A642     		cmp	r6, r4
 613              		.loc 1 264 0
 614 002a 2B64     		str	r3, [r5, #64]
 615              		.loc 1 266 0
 616 002c 1ED0     		beq	.L51
 617              	.LBB64:
 618              		.loc 1 271 0
 619 002e 696C     		ldr	r1, [r5, #68]
 620              	.LVL59:
 621              		.loc 1 273 0
 622 0030 4BB1     		cbz	r3, .L52
 623              	.L58:
ARM GAS  /tmp/cc5ML9bA.s 			page 12


 624              		.loc 1 277 0
 625 0032 1A68     		ldr	r2, [r3, #0]
 626 0034 9A42     		cmp	r2, r3
 627 0036 03D0     		beq	.L53
 628              		.loc 1 277 0 is_stmt 0 discriminator 1
 629 0038 9068     		ldr	r0, [r2, #8]
 630 003a 8142     		cmp	r1, r0
 631 003c 38BF     		it	cc
 632 003e 0146     		movcc	r1, r0
 633              	.LVL60:
 634              	.L53:
 635              		.loc 1 279 0 is_stmt 1
 636 0040 DB68     		ldr	r3, [r3, #12]
 637              	.LVL61:
 638              		.loc 1 273 0
 639 0042 002B     		cmp	r3, #0
 640 0044 F5D1     		bne	.L58
 641              	.L52:
 642              	.LBB65:
 643              	.LBB66:
 644              		.loc 2 55 0
 645 0046 3368     		ldr	r3, [r6, #0]
 646              	.LVL62:
 647              	.LBE66:
 648              	.LBE65:
 649              		.loc 1 288 0
 650 0048 326C     		ldr	r2, [r6, #64]
 651              		.loc 1 283 0
 652 004a A960     		str	r1, [r5, #8]
 653              	.LVL63:
 654              		.loc 1 290 0
 655 004c 3046     		mov	r0, r6
 656              	.LBB69:
 657              	.LBB67:
 658              		.loc 2 55 0
 659 004e 2360     		str	r3, [r4, #0]
 660              	.LBE67:
 661              	.LBE69:
 662              		.loc 1 290 0
 663 0050 0021     		movs	r1, #0
 664              	.LVL64:
 665              	.LBB70:
 666              	.LBB68:
 667              		.loc 2 55 0
 668 0052 5C60     		str	r4, [r3, #4]
 669              	.LBE68:
 670              	.LBE70:
 671              		.loc 1 287 0
 672 0054 A660     		str	r6, [r4, #8]
 673              		.loc 1 288 0
 674 0056 E260     		str	r2, [r4, #12]
 675              		.loc 1 289 0
 676 0058 3464     		str	r4, [r6, #64]
 677              		.loc 1 290 0
 678 005a FFF7FEFF 		bl	chSchWakeupS
 679              	.LVL65:
 680              	.L55:
ARM GAS  /tmp/cc5ML9bA.s 			page 13


 681              	.LBE64:
 682              		.loc 1 294 0
 683 005e FFF7FEFF 		bl	dbg_check_unlock
 684              	.LVL66:
 685              	.LBB71:
 686 0062 0023     		movs	r3, #0
 687              	.LVL67:
 688              	@ 294 "/home/gokul/ChibiOS_2.5.0/os/kernel/src/chmtx.c" 1
 689 0064 83F31188 		msr     BASEPRI, r3
 690              	@ 0 "" 2
 691              	.LVL68:
 692              		.thumb
 693              	.LBE71:
 694              		.loc 1 296 0
 695 0068 2046     		mov	r0, r4
 696 006a 70BD     		pop	{r4, r5, r6, pc}
 697              	.LVL69:
 698              	.L51:
 699              		.loc 1 293 0
 700 006c 0020     		movs	r0, #0
 701 006e A060     		str	r0, [r4, #8]
 702 0070 F5E7     		b	.L55
 703              	.LVL70:
 704              	.L61:
 705              		.loc 1 255 0 discriminator 1
 706 0072 0448     		ldr	r0, .L62+8
 707 0074 FFF7FEFF 		bl	chDbgPanic
 708              	.LVL71:
 709 0078 2C6C     		ldr	r4, [r5, #64]
 710 007a CCE7     		b	.L49
 711              	.L63:
 712              		.align	2
 713              	.L62:
 714 007c 00000000 		.word	rlist
 715 0080 70000000 		.word	.LC6
 716 0084 5C000000 		.word	.LC5
 717              		.cfi_endproc
 718              	.LFE12:
 719              		.size	chMtxUnlock, .-chMtxUnlock
 720 0088 AFF30080 		.section	.text.chMtxUnlockS,"ax",%progbits
 720      AFF30080 
 721              		.align	2
 722              		.p2align 4,,15
 723              		.global	chMtxUnlockS
 724              		.thumb
 725              		.thumb_func
 726              		.type	chMtxUnlockS, %function
 727              	chMtxUnlockS:
 728              	.LFB13:
 729              		.loc 1 310 0
 730              		.cfi_startproc
 731              		@ args = 0, pretend = 0, frame = 0
 732              		@ frame_needed = 0, uses_anonymous_args = 0
 733              		.loc 1 311 0
 734 0000 1A4B     		ldr	r3, .L78
 735              		.loc 1 310 0
 736 0002 70B5     		push	{r4, r5, r6, lr}
ARM GAS  /tmp/cc5ML9bA.s 			page 14


 737              	.LCFI6:
 738              		.cfi_def_cfa_offset 16
 739              		.cfi_offset 4, -16
 740              		.cfi_offset 5, -12
 741              		.cfi_offset 6, -8
 742              		.cfi_offset 14, -4
 743              		.loc 1 311 0
 744 0004 9D69     		ldr	r5, [r3, #24]
 745              	.LVL72:
 746              		.loc 1 314 0
 747 0006 FFF7FEFF 		bl	chDbgCheckClassS
 748              	.LVL73:
 749              		.loc 1 315 0
 750 000a 2C6C     		ldr	r4, [r5, #64]
 751 000c 002C     		cmp	r4, #0
 752 000e 28D0     		beq	.L77
 753              	.L65:
 754              		.loc 1 318 0
 755 0010 A068     		ldr	r0, [r4, #8]
 756 0012 A842     		cmp	r0, r5
 757 0014 03D0     		beq	.L66
 758              		.loc 1 318 0 is_stmt 0 discriminator 1
 759 0016 1648     		ldr	r0, .L78+4
 760 0018 FFF7FEFF 		bl	chDbgPanic
 761              	.LVL74:
 762 001c 2C6C     		ldr	r4, [r5, #64]
 763              	.L66:
 764              	.LVL75:
 765              		.loc 1 327 0 is_stmt 1
 766 001e 2668     		ldr	r6, [r4, #0]
 767              		.loc 1 325 0
 768 0020 E368     		ldr	r3, [r4, #12]
 769              		.loc 1 327 0
 770 0022 A642     		cmp	r6, r4
 771              		.loc 1 325 0
 772 0024 2B64     		str	r3, [r5, #64]
 773              		.loc 1 327 0
 774 0026 18D0     		beq	.L67
 775              	.LBB72:
 776              		.loc 1 332 0
 777 0028 686C     		ldr	r0, [r5, #68]
 778              	.LVL76:
 779              		.loc 1 334 0
 780 002a 4BB1     		cbz	r3, .L68
 781              	.L74:
 782              		.loc 1 338 0
 783 002c 1A68     		ldr	r2, [r3, #0]
 784 002e 9A42     		cmp	r2, r3
 785 0030 03D0     		beq	.L69
 786              		.loc 1 338 0 is_stmt 0 discriminator 1
 787 0032 9168     		ldr	r1, [r2, #8]
 788 0034 8842     		cmp	r0, r1
 789 0036 38BF     		it	cc
 790 0038 0846     		movcc	r0, r1
 791              	.LVL77:
 792              	.L69:
 793              		.loc 1 340 0 is_stmt 1
ARM GAS  /tmp/cc5ML9bA.s 			page 15


 794 003a DB68     		ldr	r3, [r3, #12]
 795              	.LVL78:
 796              		.loc 1 334 0
 797 003c 002B     		cmp	r3, #0
 798 003e F5D1     		bne	.L74
 799              	.L68:
 800              	.LBB73:
 801              	.LBB74:
 802              		.loc 2 55 0
 803 0040 3168     		ldr	r1, [r6, #0]
 804              	.LBE74:
 805              	.LBE73:
 806              		.loc 1 347 0
 807 0042 326C     		ldr	r2, [r6, #64]
 808              		.loc 1 342 0
 809 0044 A860     		str	r0, [r5, #8]
 810              	.LVL79:
 811              	.LBB77:
 812              	.LBB75:
 813              		.loc 2 55 0
 814 0046 2160     		str	r1, [r4, #0]
 815              	.LBE75:
 816              	.LBE77:
 817              		.loc 1 349 0
 818 0048 3046     		mov	r0, r6
 819              	.LVL80:
 820              	.LBB78:
 821              	.LBB76:
 822              		.loc 2 55 0
 823 004a 4C60     		str	r4, [r1, #4]
 824              	.LBE76:
 825              	.LBE78:
 826              		.loc 1 346 0
 827 004c A660     		str	r6, [r4, #8]
 828              		.loc 1 347 0
 829 004e E260     		str	r2, [r4, #12]
 830              		.loc 1 348 0
 831 0050 3464     		str	r4, [r6, #64]
 832              		.loc 1 349 0
 833 0052 FFF7FEFF 		bl	chSchReadyI
 834              	.LVL81:
 835              	.LBE72:
 836              		.loc 1 354 0
 837 0056 2046     		mov	r0, r4
 838 0058 70BD     		pop	{r4, r5, r6, pc}
 839              	.LVL82:
 840              	.L67:
 841              		.loc 1 352 0
 842 005a 0021     		movs	r1, #0
 843 005c A160     		str	r1, [r4, #8]
 844              		.loc 1 354 0
 845 005e 2046     		mov	r0, r4
 846 0060 70BD     		pop	{r4, r5, r6, pc}
 847              	.LVL83:
 848              	.L77:
 849              		.loc 1 315 0 discriminator 1
 850 0062 0448     		ldr	r0, .L78+8
ARM GAS  /tmp/cc5ML9bA.s 			page 16


 851 0064 FFF7FEFF 		bl	chDbgPanic
 852              	.LVL84:
 853 0068 2C6C     		ldr	r4, [r5, #64]
 854 006a D1E7     		b	.L65
 855              	.L79:
 856              		.align	2
 857              	.L78:
 858 006c 00000000 		.word	rlist
 859 0070 98000000 		.word	.LC8
 860 0074 84000000 		.word	.LC7
 861              		.cfi_endproc
 862              	.LFE13:
 863              		.size	chMtxUnlockS, .-chMtxUnlockS
 864 0078 AFF30080 		.section	.text.chMtxUnlockAll,"ax",%progbits
 864      AFF30080 
 865              		.align	2
 866              		.p2align 4,,15
 867              		.global	chMtxUnlockAll
 868              		.thumb
 869              		.thumb_func
 870              		.type	chMtxUnlockAll, %function
 871              	chMtxUnlockAll:
 872              	.LFB14:
 873              		.loc 1 367 0
 874              		.cfi_startproc
 875              		@ args = 0, pretend = 0, frame = 0
 876              		@ frame_needed = 0, uses_anonymous_args = 0
 877              		.loc 1 368 0
 878 0000 154A     		ldr	r2, .L92
 879              		.loc 1 367 0
 880 0002 70B5     		push	{r4, r5, r6, lr}
 881              	.LCFI7:
 882              		.cfi_def_cfa_offset 16
 883              		.cfi_offset 4, -16
 884              		.cfi_offset 5, -12
 885              		.cfi_offset 6, -8
 886              		.cfi_offset 14, -4
 887              	.LBB79:
 888              		.loc 1 370 0
 889 0004 2023     		movs	r3, #32
 890              	.LVL85:
 891              	.LBE79:
 892              		.loc 1 368 0
 893 0006 9469     		ldr	r4, [r2, #24]
 894              	.LVL86:
 895              	.LBB80:
 896              		.loc 1 370 0
 897              	@ 370 "/home/gokul/ChibiOS_2.5.0/os/kernel/src/chmtx.c" 1
 898 0008 83F31188 		msr     BASEPRI, r3
 899              	@ 0 "" 2
 900              	.LVL87:
 901              		.thumb
 902              	.LBE80:
 903 000c FFF7FEFF 		bl	dbg_check_lock
 904              	.LVL88:
 905              		.loc 1 371 0
 906 0010 236C     		ldr	r3, [r4, #64]
ARM GAS  /tmp/cc5ML9bA.s 			page 17


 907 0012 D3B1     		cbz	r3, .L81
 908              	.LBB81:
 909              		.loc 1 383 0
 910 0014 0026     		movs	r6, #0
 911 0016 0BE0     		b	.L87
 912              	.LVL89:
 913              	.L91:
 914              	.LBB82:
 915              	.LBB83:
 916              	.LBB84:
 917              		.loc 2 55 0
 918 0018 1168     		ldr	r1, [r2, #0]
 919              	.LBE84:
 920              	.LBE83:
 921              		.loc 1 378 0
 922 001a 156C     		ldr	r5, [r2, #64]
 923              	.LBB87:
 924              	.LBB85:
 925              		.loc 2 55 0
 926 001c 1960     		str	r1, [r3, #0]
 927              	.LBE85:
 928              	.LBE87:
 929              		.loc 1 380 0
 930 001e 1046     		mov	r0, r2
 931              	.LBB88:
 932              	.LBB86:
 933              		.loc 2 55 0
 934 0020 4B60     		str	r3, [r1, #4]
 935              	.LBE86:
 936              	.LBE88:
 937              		.loc 1 377 0
 938 0022 9A60     		str	r2, [r3, #8]
 939              		.loc 1 378 0
 940 0024 DD60     		str	r5, [r3, #12]
 941              		.loc 1 379 0
 942 0026 1364     		str	r3, [r2, #64]
 943              		.loc 1 380 0
 944 0028 FFF7FEFF 		bl	chSchReadyI
 945              	.LVL90:
 946              	.LBE82:
 947              	.LBE81:
 948              		.loc 1 384 0
 949 002c 236C     		ldr	r3, [r4, #64]
 950 002e 43B1     		cbz	r3, .L90
 951              	.L87:
 952              	.LVL91:
 953              	.LBB89:
 954              		.loc 1 375 0
 955 0030 1A68     		ldr	r2, [r3, #0]
 956              	.LVL92:
 957              		.loc 1 374 0
 958 0032 D968     		ldr	r1, [r3, #12]
 959              		.loc 1 375 0
 960 0034 9A42     		cmp	r2, r3
 961              		.loc 1 374 0
 962 0036 2164     		str	r1, [r4, #64]
 963              		.loc 1 375 0
ARM GAS  /tmp/cc5ML9bA.s 			page 18


 964 0038 EED1     		bne	.L91
 965              		.loc 1 383 0
 966 003a 9E60     		str	r6, [r3, #8]
 967              	.LBE89:
 968              		.loc 1 384 0
 969 003c 236C     		ldr	r3, [r4, #64]
 970              	.LVL93:
 971 003e 002B     		cmp	r3, #0
 972 0040 F6D1     		bne	.L87
 973              	.LVL94:
 974              	.L90:
 975              		.loc 1 385 0
 976 0042 606C     		ldr	r0, [r4, #68]
 977 0044 A060     		str	r0, [r4, #8]
 978              		.loc 1 386 0
 979 0046 FFF7FEFF 		bl	chSchRescheduleS
 980              	.LVL95:
 981              	.L81:
 982              		.loc 1 388 0
 983 004a FFF7FEFF 		bl	dbg_check_unlock
 984              	.LVL96:
 985              	.LBB90:
 986 004e 0023     		movs	r3, #0
 987              	.LVL97:
 988              	@ 388 "/home/gokul/ChibiOS_2.5.0/os/kernel/src/chmtx.c" 1
 989 0050 83F31188 		msr     BASEPRI, r3
 990              	@ 0 "" 2
 991              	.LVL98:
 992              		.thumb
 993 0054 70BD     		pop	{r4, r5, r6, pc}
 994              	.L93:
 995 0056 00BF     		.align	2
 996              	.L92:
 997 0058 00000000 		.word	rlist
 998              	.LBE90:
 999              		.cfi_endproc
 1000              	.LFE14:
 1001              		.size	chMtxUnlockAll, .-chMtxUnlockAll
 1002 005c AFF30080 		.section	.rodata.str1.4,"aMS",%progbits,1
 1003              		.align	2
 1004              	.LC0:
 1005 0000 2263684D 		.ascii	"\"chMtxInit\"()\000"
 1005      7478496E 
 1005      69742228 
 1005      2900
 1006 000e 0000     		.space	2
 1007              	.LC1:
 1008 0010 2263684D 		.ascii	"\"chMtxLockS\"()\000"
 1008      74784C6F 
 1008      636B5322 
 1008      282900
 1009 001f 00       		.space	1
 1010              	.LC2:
 1011 0020 63684D74 		.ascii	"chMtxLockS(), #1\000"
 1011      784C6F63 
 1011      6B532829 
 1011      2C202331 
ARM GAS  /tmp/cc5ML9bA.s 			page 19


 1011      00
 1012 0031 000000   		.space	3
 1013              	.LC3:
 1014 0034 63684D74 		.ascii	"chMtxLockS(), #2\000"
 1014      784C6F63 
 1014      6B532829 
 1014      2C202332 
 1014      00
 1015 0045 000000   		.space	3
 1016              	.LC4:
 1017 0048 2263684D 		.ascii	"\"chMtxTryLockS\"()\000"
 1017      74785472 
 1017      794C6F63 
 1017      6B532228 
 1017      2900
 1018 005a 0000     		.space	2
 1019              	.LC5:
 1020 005c 63684D74 		.ascii	"chMtxUnlock(), #1\000"
 1020      78556E6C 
 1020      6F636B28 
 1020      292C2023 
 1020      3100
 1021 006e 0000     		.space	2
 1022              	.LC6:
 1023 0070 63684D74 		.ascii	"chMtxUnlock(), #2\000"
 1023      78556E6C 
 1023      6F636B28 
 1023      292C2023 
 1023      3200
 1024 0082 0000     		.space	2
 1025              	.LC7:
 1026 0084 63684D74 		.ascii	"chMtxUnlockS(), #1\000"
 1026      78556E6C 
 1026      6F636B53 
 1026      28292C20 
 1026      233100
 1027 0097 00       		.space	1
 1028              	.LC8:
 1029 0098 63684D74 		.ascii	"chMtxUnlockS(), #2\000"
 1029      78556E6C 
 1029      6F636B53 
 1029      28292C20 
 1029      233200
 1030 00ab 00       		.text
 1031              	.Letext0:
 1032              		.file 3 "/opt/gcc-arm-none-eabi-4_7-2013q1/bin/../lib/gcc/arm-none-eabi/4.7.3/../../../../arm-none
 1033              		.file 4 "/home/gokul/ChibiOS_2.5.0/os/ports/GCC/ARMCMx/chtypes.h"
 1034              		.file 5 "/home/gokul/ChibiOS_2.5.0/os/kernel/include/chlists.h"
 1035              		.file 6 "/home/gokul/ChibiOS_2.5.0/os/kernel/include/chthreads.h"
 1036              		.file 7 "/home/gokul/ChibiOS_2.5.0/os/ports/GCC/ARMCMx/chcore_v7m.h"
 1037              		.file 8 "/home/gokul/ChibiOS_2.5.0/os/kernel/include/chschd.h"
 1038              		.file 9 "/home/gokul/ChibiOS_2.5.0/os/kernel/include/chmtx.h"
 1039              		.file 10 "/home/gokul/ChibiOS_2.5.0/os/kernel/include/chdebug.h"