ARM GAS  /tmp/ccohrN6T.s 			page 1


   1              		.syntax unified
   2              		.cpu cortex-m4
   3              		.fpu softvfp
   4              		.eabi_attribute 20, 1
   5              		.eabi_attribute 21, 1
   6              		.eabi_attribute 23, 3
   7              		.eabi_attribute 24, 1
   8              		.eabi_attribute 25, 1
   9              		.eabi_attribute 26, 1
  10              		.eabi_attribute 30, 2
  11              		.eabi_attribute 34, 1
  12              		.eabi_attribute 18, 4
  13              		.thumb
  14              		.file	"chsys.c"
  15              		.text
  16              	.Ltext0:
  17              		.cfi_sections	.debug_frame
  18              		.section	.text._idle_thread,"ax",%progbits
  19              		.align	2
  20              		.p2align 4,,15
  21              		.global	_idle_thread
  22              		.thumb
  23              		.thumb_func
  24              		.type	_idle_thread, %function
  25              	_idle_thread:
  26              	.LFB7:
  27              		.file 1 "/home/gokul/ChibiOS_2.5.0/os/kernel/src/chsys.c"
  28              		.loc 1 54 0
  29              		.cfi_startproc
  30              		@ args = 0, pretend = 0, frame = 0
  31              		@ frame_needed = 0, uses_anonymous_args = 0
  32              		@ link register save eliminated.
  33              	.LVL0:
  34              		.loc 1 57 0
  35 0000 024B     		ldr	r3, .L4
  36 0002 034A     		ldr	r2, .L4+4
  37 0004 9869     		ldr	r0, [r3, #24]
  38              	.LVL1:
  39 0006 8261     		str	r2, [r0, #24]
  40              	.L2:
  41 0008 FEE7     		b	.L2
  42              	.L5:
  43 000a 00BF     		.align	2
  44              	.L4:
  45 000c 00000000 		.word	rlist
  46 0010 00000000 		.word	.LC0
  47              		.cfi_endproc
  48              	.LFE7:
  49              		.size	_idle_thread, .-_idle_thread
  50 0014 AFF30080 		.section	.text.chSysInit,"ax",%progbits
  50      AFF30080 
  50      AFF30080 
  51              		.align	2
  52              		.p2align 4,,15
  53              		.global	chSysInit
  54              		.thumb
  55              		.thumb_func
ARM GAS  /tmp/ccohrN6T.s 			page 2


  56              		.type	chSysInit, %function
  57              	chSysInit:
  58              	.LFB8:
  59              		.loc 1 77 0
  60              		.cfi_startproc
  61              		@ args = 0, pretend = 0, frame = 0
  62              		@ frame_needed = 0, uses_anonymous_args = 0
  63 0000 30B5     		push	{r4, r5, lr}
  64              	.LCFI0:
  65              		.cfi_def_cfa_offset 12
  66              		.cfi_offset 4, -12
  67              		.cfi_offset 5, -8
  68              		.cfi_offset 14, -4
  69 0002 83B0     		sub	sp, sp, #12
  70              	.LCFI1:
  71              		.cfi_def_cfa_offset 24
  72              		.loc 1 83 0
  73 0004 FFF7FEFF 		bl	_port_init
  74              	.LVL2:
  75              		.loc 1 84 0
  76 0008 FFF7FEFF 		bl	_scheduler_init
  77              	.LVL3:
  78              		.loc 1 85 0
  79 000c FFF7FEFF 		bl	_vt_init
  80              	.LVL4:
  81              		.loc 1 87 0
  82 0010 FFF7FEFF 		bl	_core_init
  83              	.LVL5:
  84              		.loc 1 90 0
  85 0014 FFF7FEFF 		bl	_heap_init
  86              	.LVL6:
  87              		.loc 1 93 0
  88 0018 FFF7FEFF 		bl	_trace_init
  89              	.LVL7:
  90              		.loc 1 97 0
  91 001c 40F20000 		movw	r0, #:lower16:.LANCHOR0
  92 0020 4021     		movs	r1, #64
  93 0022 C0F20000 		movt	r0, #:upper16:.LANCHOR0
  94 0026 FFF7FEFF 		bl	_thread_init
  95              	.LVL8:
  96 002a 40F20004 		movw	r4, #:lower16:rlist
  97              		.loc 1 102 0
  98 002e 40F20003 		movw	r3, #:lower16:__main_thread_stack_base__
  99 0032 C0F20003 		movt	r3, #:upper16:__main_thread_stack_base__
 100              		.loc 1 97 0
 101 0036 C0F20004 		movt	r4, #:upper16:rlist
 102              		.loc 1 98 0
 103 003a 0125     		movs	r5, #1
 104              		.loc 1 102 0
 105 003c C361     		str	r3, [r0, #28]
 106              		.loc 1 98 0
 107 003e 80F82050 		strb	r5, [r0, #32]
 108              		.loc 1 97 0
 109 0042 A061     		str	r0, [r4, #24]
 110              		.loc 1 104 0
 111 0044 FFF7FEFF 		bl	dbg_check_enable
 112              	.LVL9:
ARM GAS  /tmp/ccohrN6T.s 			page 3


 113              	.LBB2:
 114 0048 0023     		movs	r3, #0
 115              	.LVL10:
 116              	@ 104 "/home/gokul/ChibiOS_2.5.0/os/kernel/src/chsys.c" 1
 117 004a 83F31188 		msr     BASEPRI, r3                    
 118 004e 62B6     		cpsie   i
 119              	@ 0 "" 2
 120              	.LVL11:
 121              		.thumb
 122              	.LBE2:
 123              		.loc 1 106 0
 124 0050 40F20001 		movw	r1, #:lower16:.LC1
 125 0054 A269     		ldr	r2, [r4, #24]
 126 0056 C0F20001 		movt	r1, #:upper16:.LC1
 127 005a 9161     		str	r1, [r2, #24]
 128              		.loc 1 112 0
 129 005c 40F20000 		movw	r0, #:lower16:.LANCHOR1
 130 0060 0093     		str	r3, [sp, #0]
 131 0062 40F20003 		movw	r3, #:lower16:_idle_thread
 132              	.LVL12:
 133 0066 C021     		movs	r1, #192
 134 0068 2A46     		mov	r2, r5
 135 006a C0F20003 		movt	r3, #:upper16:_idle_thread
 136 006e C0F20000 		movt	r0, #:upper16:.LANCHOR1
 137 0072 FFF7FEFF 		bl	chThdCreateStatic
 138              	.LVL13:
 139              		.loc 1 115 0
 140 0076 03B0     		add	sp, sp, #12
 141 0078 30BD     		pop	{r4, r5, pc}
 142              		.cfi_endproc
 143              	.LFE8:
 144              		.size	chSysInit, .-chSysInit
 145 007a 00BFAFF3 		.section	.text.chSysTimerHandlerI,"ax",%progbits
 145      0080
 146              		.align	2
 147              		.p2align 4,,15
 148              		.global	chSysTimerHandlerI
 149              		.thumb
 150              		.thumb_func
 151              		.type	chSysTimerHandlerI, %function
 152              	chSysTimerHandlerI:
 153              	.LFB9:
 154              		.loc 1 128 0
 155              		.cfi_startproc
 156              		@ args = 0, pretend = 0, frame = 0
 157              		@ frame_needed = 0, uses_anonymous_args = 0
 158 0000 F8B5     		push	{r3, r4, r5, r6, r7, lr}
 159              	.LCFI2:
 160              		.cfi_def_cfa_offset 24
 161              		.cfi_offset 3, -24
 162              		.cfi_offset 4, -20
 163              		.cfi_offset 5, -16
 164              		.cfi_offset 6, -12
 165              		.cfi_offset 7, -8
 166              		.cfi_offset 14, -4
 167              		.loc 1 130 0
 168 0002 FFF7FEFF 		bl	chDbgCheckClassI
ARM GAS  /tmp/ccohrN6T.s 			page 4


 169              	.LVL14:
 170              		.loc 1 134 0
 171 0006 164B     		ldr	r3, .L20
 172 0008 9869     		ldr	r0, [r3, #24]
 173 000a 90F82320 		ldrb	r2, [r0, #35]	@ zero_extendqisi2
 174 000e 12B1     		cbz	r2, .L8
 175              		.loc 1 136 0
 176 0010 511E     		subs	r1, r2, #1
 177 0012 80F82310 		strb	r1, [r0, #35]
 178              	.L8:
 179              		.loc 1 139 0
 180 0016 446A     		ldr	r4, [r0, #36]
 181              		.loc 1 141 0
 182 0018 124D     		ldr	r5, .L20+4
 183              		.loc 1 139 0
 184 001a 631C     		adds	r3, r4, #1
 185 001c 4362     		str	r3, [r0, #36]
 186              		.loc 1 141 0
 187 001e E868     		ldr	r0, [r5, #12]
 188 0020 2C68     		ldr	r4, [r5, #0]
 189 0022 421C     		adds	r2, r0, #1
 190 0024 AC42     		cmp	r4, r5
 191 0026 EA60     		str	r2, [r5, #12]
 192 0028 18D0     		beq	.L7
 193              	.LBB3:
 194              		.loc 1 141 0 is_stmt 0 discriminator 1
 195 002a A768     		ldr	r7, [r4, #8]
 196 002c 013F     		subs	r7, r7, #1
 197 002e A760     		str	r7, [r4, #8]
 198              	.LVL15:
 199 0030 A7B9     		cbnz	r7, .L7
 200              	.L16:
 201              	.LBB4:
 202              		.loc 1 141 0 discriminator 3
 203 0032 2168     		ldr	r1, [r4, #0]
 204 0034 E668     		ldr	r6, [r4, #12]
 205              	.LVL16:
 206 0036 4D60     		str	r5, [r1, #4]
 207 0038 E760     		str	r7, [r4, #12]
 208 003a 2960     		str	r1, [r5, #0]
 209 003c FFF7FEFF 		bl	dbg_check_unlock_from_isr
 210              	.LVL17:
 211              	.LBB5:
 212 0040 0023     		movs	r3, #0
 213              	.LVL18:
 214              	@ 141 "/home/gokul/ChibiOS_2.5.0/os/kernel/src/chsys.c" 1
 215 0042 83F31188 		msr     BASEPRI, r3
 216              	@ 0 "" 2
 217              	.LVL19:
 218              		.thumb
 219              	.LBE5:
 220 0046 2069     		ldr	r0, [r4, #16]
 221 0048 B047     		blx	r6
 222              	.LVL20:
 223              	.LBB6:
 224 004a 2023     		movs	r3, #32
 225              	.LVL21:
ARM GAS  /tmp/ccohrN6T.s 			page 5


 226              	@ 141 "/home/gokul/ChibiOS_2.5.0/os/kernel/src/chsys.c" 1
 227 004c 83F31188 		msr     BASEPRI, r3
 228              	@ 0 "" 2
 229              	.LVL22:
 230              		.thumb
 231              	.LBE6:
 232 0050 FFF7FEFF 		bl	dbg_check_lock_from_isr
 233              	.LVL23:
 234              	.LBE4:
 235 0054 2C68     		ldr	r4, [r5, #0]
 236              	.LVL24:
 237 0056 A368     		ldr	r3, [r4, #8]
 238 0058 002B     		cmp	r3, #0
 239 005a EAD0     		beq	.L16
 240              	.LVL25:
 241              	.L7:
 242 005c F8BD     		pop	{r3, r4, r5, r6, r7, pc}
 243              	.L21:
 244 005e 00BF     		.align	2
 245              	.L20:
 246 0060 00000000 		.word	rlist
 247 0064 00000000 		.word	vtlist
 248              	.LBE3:
 249              		.cfi_endproc
 250              	.LFE9:
 251              		.size	chSysTimerHandlerI, .-chSysTimerHandlerI
 252              		.global	_idle_thread_wa
 253 0068 AFF30080 		.section	.bss.mainthread.4816,"aw",%nobits
 253      AFF30080 
 254              		.align	2
 255              		.set	.LANCHOR0,. + 0
 256              		.type	mainthread.4816, %object
 257              		.size	mainthread.4816, 76
 258              	mainthread.4816:
 259 0000 00000000 		.space	76
 259      00000000 
 259      00000000 
 259      00000000 
 259      00000000 
 260              		.section	.rodata.str1.4,"aMS",%progbits,1
 261              		.align	2
 262              	.LC0:
 263 0000 69646C65 		.ascii	"idle\000"
 263      00
 264 0005 000000   		.space	3
 265              	.LC1:
 266 0008 6D61696E 		.ascii	"main\000"
 266      00
 267 000d 000000   		.section	.bss._idle_thread_wa,"aw",%nobits
 268              		.align	3
 269              		.set	.LANCHOR1,. + 0
 270              		.type	_idle_thread_wa, %object
 271              		.size	_idle_thread_wa, 192
 272              	_idle_thread_wa:
 273 0000 00000000 		.space	192
 273      00000000 
 273      00000000 
ARM GAS  /tmp/ccohrN6T.s 			page 6


 273      00000000 
 273      00000000 
 274              		.text
 275              	.Letext0:
 276              		.file 2 "/opt/gcc-arm-none-eabi-4_7-2013q1/bin/../lib/gcc/arm-none-eabi/4.7.3/include/stddef.h"
 277              		.file 3 "/opt/gcc-arm-none-eabi-4_7-2013q1/bin/../lib/gcc/arm-none-eabi/4.7.3/../../../../arm-none
 278              		.file 4 "/home/gokul/ChibiOS_2.5.0/os/ports/GCC/ARMCMx/chtypes.h"
 279              		.file 5 "/home/gokul/ChibiOS_2.5.0/os/kernel/include/chlists.h"
 280              		.file 6 "/home/gokul/ChibiOS_2.5.0/os/kernel/include/chthreads.h"
 281              		.file 7 "/home/gokul/ChibiOS_2.5.0/os/ports/GCC/ARMCMx/chcore_v7m.h"
 282              		.file 8 "/home/gokul/ChibiOS_2.5.0/os/kernel/include/chvt.h"
 283              		.file 9 "/home/gokul/ChibiOS_2.5.0/os/kernel/include/chschd.h"
 284              		.file 10 "/home/gokul/ChibiOS_2.5.0/os/kernel/include/chmtx.h"
 285              		.file 11 "/home/gokul/ChibiOS_2.5.0/os/kernel/include/chmemcore.h"
 286              		.file 12 "/home/gokul/ChibiOS_2.5.0/os/kernel/include/chheap.h"
 287              		.file 13 "/home/gokul/ChibiOS_2.5.0/os/kernel/include/chdebug.h"