ARM GAS  /tmp/ccQLIRzs.s 			page 1


   1              		.syntax unified
   2              		.cpu cortex-m4
   3              		.fpu softvfp
   4              		.eabi_attribute 20, 1
   5              		.eabi_attribute 21, 1
   6              		.eabi_attribute 23, 3
   7              		.eabi_attribute 24, 1
   8              		.eabi_attribute 25, 1
   9              		.eabi_attribute 26, 1
  10              		.eabi_attribute 30, 2
  11              		.eabi_attribute 34, 1
  12              		.eabi_attribute 18, 4
  13              		.thumb
  14              		.file	"crt0.c"
  15              		.text
  16              	.Ltext0:
  17              		.cfi_sections	.debug_frame
  18              		.section	.text.__early_init,"ax",%progbits
  19              		.align	2
  20              		.p2align 4,,15
  21              		.weak	__early_init
  22              		.thumb
  23              		.thumb_func
  24              		.type	__early_init, %function
  25              	__early_init:
  26              	.LFB7:
  27              		.file 1 "/home/gokul/ChibiOS_2.5.0/os/ports/GCC/ARMCMx/crt0.c"
  28              		.loc 1 202 0
  29              		.cfi_startproc
  30              		@ args = 0, pretend = 0, frame = 0
  31              		@ frame_needed = 0, uses_anonymous_args = 0
  32              		@ link register save eliminated.
  33 0000 7047     		bx	lr
  34              		.cfi_endproc
  35              	.LFE7:
  36              		.size	__early_init, .-__early_init
  37 0002 00BFAFF3 		.section	.text.__late_init,"ax",%progbits
  37      0080AFF3 
  37      0080AFF3 
  37      0080
  38              		.align	2
  39              		.p2align 4,,15
  40              		.weak	__late_init
  41              		.thumb
  42              		.thumb_func
  43              		.type	__late_init, %function
  44              	__late_init:
  45              	.LFB8:
  46              		.loc 1 214 0
  47              		.cfi_startproc
  48              		@ args = 0, pretend = 0, frame = 0
  49              		@ frame_needed = 0, uses_anonymous_args = 0
  50              		@ link register save eliminated.
  51 0000 7047     		bx	lr
  52              		.cfi_endproc
  53              	.LFE8:
  54              		.size	__late_init, .-__late_init
ARM GAS  /tmp/ccQLIRzs.s 			page 2


  55 0002 00BFAFF3 		.section	.text._default_exit,"ax",%progbits
  55      0080AFF3 
  55      0080AFF3 
  55      0080
  56              		.align	2
  57              		.p2align 4,,15
  58              		.weak	_default_exit
  59              		.thumb
  60              		.thumb_func
  61              		.type	_default_exit, %function
  62              	_default_exit:
  63              	.LFB9:
  64              		.loc 1 225 0
  65              		.cfi_startproc
  66              		@ Naked Function: prologue and epilogue provided by programmer.
  67              		@ args = 0, pretend = 0, frame = 0
  68              		@ frame_needed = 0, uses_anonymous_args = 0
  69              	.L4:
  70 0000 FEE7     		b	.L4
  71              		.cfi_endproc
  72              	.LFE9:
  73              		.size	_default_exit, .-_default_exit
  74 0002 00BFAFF3 		.section	.text.ResetHandler,"ax",%progbits
  74      0080AFF3 
  74      0080AFF3 
  74      0080
  75              		.align	2
  76              		.p2align 4,,15
  77              		.global	ResetHandler
  78              		.thumb
  79              		.thumb_func
  80              		.type	ResetHandler, %function
  81              	ResetHandler:
  82              	.LFB11:
  83              		.loc 1 249 0
  84              		.cfi_startproc
  85              		@ Naked Function: prologue and epilogue provided by programmer.
  86              		@ args = 0, pretend = 0, frame = 0
  87              		@ frame_needed = 0, uses_anonymous_args = 0
  88              		.loc 1 255 0
  89              	@ 255 "/home/gokul/ChibiOS_2.5.0/os/ports/GCC/ARMCMx/crt0.c" 1
  90 0000 72B6     		cpsid   i
  91              	@ 0 "" 2
  92              		.loc 1 256 0
  93              		.thumb
  94 0002 644C     		ldr	r4, .L68
  95              	.LVL0:
  96              		.loc 1 257 0
  97              	@ 257 "/home/gokul/ChibiOS_2.5.0/os/ports/GCC/ARMCMx/crt0.c" 1
  98 0004 84F30988 		msr     PSP, r4
  99              	@ 0 "" 2
 100              	.LVL1:
 101              		.loc 1 277 0
 102              		.thumb
 103 0008 0223     		movs	r3, #2
 104              	@ 277 "/home/gokul/ChibiOS_2.5.0/os/ports/GCC/ARMCMx/crt0.c" 1
 105 000a 83F31488 		msr     CONTROL, r3
ARM GAS  /tmp/ccQLIRzs.s 			page 3


 106              	@ 0 "" 2
 107              		.loc 1 278 0
 108              	@ 278 "/home/gokul/ChibiOS_2.5.0/os/ports/GCC/ARMCMx/crt0.c" 1
 109 000e BFF36F8F 		isb
 110              	@ 0 "" 2
 111              		.loc 1 281 0
 112              		.thumb
 113 0012 FFF7FEFF 		bl	__early_init
 114              	.LVL2:
 115              	.LBB11:
 116              	.LBB12:
 117              		.loc 1 239 0
 118 0016 6048     		ldr	r0, .L68+4
 119 0018 6049     		ldr	r1, .L68+8
 120 001a 8842     		cmp	r0, r1
 121 001c 18D2     		bcs	.L10
 122              	.LBE12:
 123              	.LBE11:
 124              	.LBB14:
 125              	.LBB15:
 126              		.loc 1 249 0
 127 001e CA1C     		adds	r2, r1, #3
 128 0020 051D     		adds	r5, r0, #4
 129 0022 531B     		subs	r3, r2, r5
 130 0024 23F00302 		bic	r2, r3, #3
 131 0028 0346     		mov	r3, r0
 132 002a 1018     		adds	r0, r2, r0
 133              	.LBE15:
 134              	.LBE14:
 135              	.LBB18:
 136              	.LBB13:
 137              		.loc 1 240 0
 138 002c 4FF05531 		mov	r1, #1431655765
 139              		.loc 1 239 0
 140 0030 8342     		cmp	r3, r0
 141              		.loc 1 240 0
 142 0032 1960     		str	r1, [r3, #0]
 143              	.LVL3:
 144 0034 C2F38002 		ubfx	r2, r2, #2, #1
 145              		.loc 1 239 0
 146 0038 0AD0     		beq	.L10
 147 003a 1AB1     		cbz	r2, .L9
 148 003c 8542     		cmp	r5, r0
 149 003e 2B46     		mov	r3, r5
 150              		.loc 1 240 0
 151 0040 2960     		str	r1, [r5, #0]
 152              		.loc 1 239 0
 153 0042 05D0     		beq	.L10
 154              	.L9:
 155 0044 1D1D     		adds	r5, r3, #4
 156              		.loc 1 240 0
 157 0046 5960     		str	r1, [r3, #4]
 158 0048 0833     		adds	r3, r3, #8
 159              		.loc 1 239 0
 160 004a 8342     		cmp	r3, r0
 161              		.loc 1 240 0
 162 004c 6960     		str	r1, [r5, #4]
ARM GAS  /tmp/ccQLIRzs.s 			page 4


 163              		.loc 1 239 0
 164 004e F9D1     		bne	.L9
 165              	.L10:
 166              	.LVL4:
 167              	.LBE13:
 168              	.LBE18:
 169              	.LBB19:
 170              	.LBB16:
 171 0050 5348     		ldr	r0, .L68+12
 172 0052 A042     		cmp	r0, r4
 173 0054 18D2     		bcs	.L8
 174              	.LBE16:
 175              	.LBE19:
 176              	.LBB20:
 177              		.loc 1 249 0
 178 0056 5349     		ldr	r1, .L68+16
 179 0058 041D     		adds	r4, r0, #4
 180 005a 0A1B     		subs	r2, r1, r4
 181 005c 22F00305 		bic	r5, r2, #3
 182 0060 0346     		mov	r3, r0
 183 0062 2818     		adds	r0, r5, r0
 184              	.LBE20:
 185              	.LBB21:
 186              	.LBB17:
 187              		.loc 1 240 0
 188 0064 4FF05531 		mov	r1, #1431655765
 189              		.loc 1 239 0
 190 0068 8342     		cmp	r3, r0
 191              		.loc 1 240 0
 192 006a 1960     		str	r1, [r3, #0]
 193              	.LVL5:
 194 006c C5F38002 		ubfx	r2, r5, #2, #1
 195              		.loc 1 239 0
 196 0070 0AD0     		beq	.L8
 197 0072 1AB1     		cbz	r2, .L13
 198 0074 8442     		cmp	r4, r0
 199 0076 2346     		mov	r3, r4
 200              		.loc 1 240 0
 201 0078 2160     		str	r1, [r4, #0]
 202              		.loc 1 239 0
 203 007a 05D0     		beq	.L8
 204              	.L13:
 205 007c 1D1D     		adds	r5, r3, #4
 206              		.loc 1 240 0
 207 007e 5960     		str	r1, [r3, #4]
 208 0080 0833     		adds	r3, r3, #8
 209              		.loc 1 239 0
 210 0082 8342     		cmp	r3, r0
 211              		.loc 1 240 0
 212 0084 6960     		str	r1, [r5, #4]
 213              		.loc 1 239 0
 214 0086 F9D1     		bne	.L13
 215              	.L8:
 216              	.LVL6:
 217              	.LBE17:
 218              	.LBE21:
 219              	.LBB22:
ARM GAS  /tmp/ccQLIRzs.s 			page 5


 220              		.loc 1 300 0
 221 0088 4749     		ldr	r1, .L68+20
 222 008a 4848     		ldr	r0, .L68+24
 223 008c 8142     		cmp	r1, r0
 224 008e 1BD2     		bcs	.L12
 225              	.LBE22:
 226              	.LBB23:
 227              	.LBB24:
 228              		.loc 1 249 0
 229 0090 C61C     		adds	r6, r0, #3
 230 0092 0C1D     		adds	r4, r1, #4
 231 0094 321B     		subs	r2, r6, r4
 232 0096 4648     		ldr	r0, .L68+28
 233 0098 22F00302 		bic	r2, r2, #3
 234 009c 161D     		adds	r6, r2, #4
 235              	.LBE24:
 236              	.LBE23:
 237              	.LBB27:
 238              		.loc 1 301 0
 239 009e 0568     		ldr	r5, [r0, #0]
 240 00a0 0423     		movs	r3, #4
 241              		.loc 1 300 0
 242 00a2 B342     		cmp	r3, r6
 243              		.loc 1 301 0
 244 00a4 0D60     		str	r5, [r1, #0]
 245              	.LVL7:
 246 00a6 C2F38002 		ubfx	r2, r2, #2, #1
 247              		.loc 1 300 0
 248 00aa 0DD0     		beq	.L12
 249 00ac 22B1     		cbz	r2, .L16
 250              		.loc 1 301 0
 251 00ae 4568     		ldr	r5, [r0, #4]
 252 00b0 0823     		movs	r3, #8
 253              		.loc 1 300 0
 254 00b2 B342     		cmp	r3, r6
 255              		.loc 1 301 0
 256 00b4 2560     		str	r5, [r4, #0]
 257              		.loc 1 300 0
 258 00b6 07D0     		beq	.L12
 259              	.L16:
 260 00b8 1A1D     		adds	r2, r3, #4
 261              		.loc 1 301 0
 262 00ba 1D58     		ldr	r5, [r3, r0]
 263 00bc 8458     		ldr	r4, [r0, r2]
 264 00be 5D50     		str	r5, [r3, r1]
 265 00c0 0833     		adds	r3, r3, #8
 266              		.loc 1 300 0
 267 00c2 B342     		cmp	r3, r6
 268              		.loc 1 301 0
 269 00c4 8C50     		str	r4, [r1, r2]
 270              		.loc 1 300 0
 271 00c6 F7D1     		bne	.L16
 272              	.L12:
 273              	.LVL8:
 274              	.LBE27:
 275              	.LBB28:
 276              	.LBB25:
ARM GAS  /tmp/ccQLIRzs.s 			page 6


 277              		.loc 1 239 0
 278 00c8 3A48     		ldr	r0, .L68+32
 279 00ca 3B49     		ldr	r1, .L68+36
 280 00cc 8842     		cmp	r0, r1
 281 00ce 17D2     		bcs	.L15
 282              	.LBE25:
 283              	.LBE28:
 284              	.LBB29:
 285              		.loc 1 249 0
 286 00d0 CB1C     		adds	r3, r1, #3
 287 00d2 041D     		adds	r4, r0, #4
 288 00d4 1A1B     		subs	r2, r3, r4
 289 00d6 22F00305 		bic	r5, r2, #3
 290 00da 0346     		mov	r3, r0
 291 00dc 2818     		adds	r0, r5, r0
 292              	.LBE29:
 293              	.LBB30:
 294              	.LBB26:
 295              		.loc 1 240 0
 296 00de 0021     		movs	r1, #0
 297              		.loc 1 239 0
 298 00e0 8342     		cmp	r3, r0
 299              		.loc 1 240 0
 300 00e2 1960     		str	r1, [r3, #0]
 301              	.LVL9:
 302 00e4 C5F38002 		ubfx	r2, r5, #2, #1
 303              		.loc 1 239 0
 304 00e8 0AD0     		beq	.L15
 305 00ea 1AB1     		cbz	r2, .L19
 306 00ec 8442     		cmp	r4, r0
 307 00ee 2346     		mov	r3, r4
 308              		.loc 1 240 0
 309 00f0 2160     		str	r1, [r4, #0]
 310              		.loc 1 239 0
 311 00f2 05D0     		beq	.L15
 312              	.L19:
 313 00f4 1D1D     		adds	r5, r3, #4
 314              		.loc 1 240 0
 315 00f6 5960     		str	r1, [r3, #4]
 316 00f8 0833     		adds	r3, r3, #8
 317              		.loc 1 239 0
 318 00fa 8342     		cmp	r3, r0
 319              		.loc 1 240 0
 320 00fc 6960     		str	r1, [r5, #4]
 321              		.loc 1 239 0
 322 00fe F9D1     		bne	.L19
 323              	.L15:
 324              	.LBE26:
 325              	.LBE30:
 326              		.loc 1 311 0
 327 0100 FFF7FEFF 		bl	__late_init
 328              	.LVL10:
 329              	.LBB31:
 330              		.loc 1 317 0
 331 0104 2D4D     		ldr	r5, .L68+40
 332 0106 2E49     		ldr	r1, .L68+44
 333 0108 8D42     		cmp	r5, r1
ARM GAS  /tmp/ccQLIRzs.s 			page 7


 334 010a 1DD2     		bcs	.L18
 335              	.LBE31:
 336              	.LBB32:
 337              		.loc 1 249 0
 338 010c CC1C     		adds	r4, r1, #3
 339 010e 2E1D     		adds	r6, r5, #4
 340 0110 A71B     		subs	r7, r4, r6
 341 0112 B808     		lsrs	r0, r7, #2
 342 0114 471C     		adds	r7, r0, #1
 343 0116 0124     		movs	r4, #1
 344              	.LBE32:
 345              	.LBB33:
 346              		.loc 1 318 0
 347 0118 2A68     		ldr	r2, [r5, #0]
 348 011a 00EA0408 		and	r8, r0, r4
 349 011e 9047     		blx	r2
 350              	.LVL11:
 351              		.loc 1 317 0
 352 0120 BC42     		cmp	r4, r7
 353 0122 11D0     		beq	.L18
 354 0124 B8F1000F 		cmp	r8, #0
 355 0128 05D0     		beq	.L22
 356 012a 0224     		movs	r4, #2
 357              		.loc 1 318 0
 358 012c 3368     		ldr	r3, [r6, #0]
 359 012e 9847     		blx	r3
 360              	.LVL12:
 361              		.loc 1 317 0
 362 0130 BC42     		cmp	r4, r7
 363 0132 3546     		mov	r5, r6
 364 0134 08D0     		beq	.L18
 365              	.L22:
 366              		.loc 1 318 0
 367 0136 6968     		ldr	r1, [r5, #4]
 368 0138 8847     		blx	r1
 369              	.LVL13:
 370 013a 0234     		adds	r4, r4, #2
 371 013c A868     		ldr	r0, [r5, #8]
 372 013e 2E1D     		adds	r6, r5, #4
 373 0140 8047     		blx	r0
 374              	.LVL14:
 375 0142 0835     		adds	r5, r5, #8
 376              		.loc 1 317 0
 377 0144 BC42     		cmp	r4, r7
 378 0146 F6D1     		bne	.L22
 379              	.L18:
 380              	.LBE33:
 381              		.loc 1 325 0
 382 0148 FFF7FEFF 		bl	main
 383              	.LVL15:
 384              	.LBB34:
 385              		.loc 1 331 0
 386 014c 1D4D     		ldr	r5, .L68+48
 387 014e 1E4A     		ldr	r2, .L68+52
 388 0150 9542     		cmp	r5, r2
 389 0152 1DD2     		bcs	.L21
 390              	.LBE34:
ARM GAS  /tmp/ccQLIRzs.s 			page 8


 391              		.loc 1 249 0
 392 0154 D41C     		adds	r4, r2, #3
 393 0156 2E1D     		adds	r6, r5, #4
 394 0158 A71B     		subs	r7, r4, r6
 395 015a BB08     		lsrs	r3, r7, #2
 396 015c 5F1C     		adds	r7, r3, #1
 397 015e 0124     		movs	r4, #1
 398              	.LBB35:
 399              		.loc 1 332 0
 400 0160 2968     		ldr	r1, [r5, #0]
 401 0162 03EA0408 		and	r8, r3, r4
 402 0166 8847     		blx	r1
 403              	.LVL16:
 404              		.loc 1 331 0
 405 0168 BC42     		cmp	r4, r7
 406 016a 11D0     		beq	.L21
 407 016c B8F1000F 		cmp	r8, #0
 408 0170 05D0     		beq	.L23
 409 0172 0224     		movs	r4, #2
 410              		.loc 1 332 0
 411 0174 3068     		ldr	r0, [r6, #0]
 412 0176 8047     		blx	r0
 413              	.LVL17:
 414              		.loc 1 331 0
 415 0178 BC42     		cmp	r4, r7
 416 017a 3546     		mov	r5, r6
 417 017c 08D0     		beq	.L21
 418              	.L23:
 419              		.loc 1 332 0
 420 017e 6A68     		ldr	r2, [r5, #4]
 421 0180 9047     		blx	r2
 422              	.LVL18:
 423 0182 0234     		adds	r4, r4, #2
 424 0184 AB68     		ldr	r3, [r5, #8]
 425 0186 2E1D     		adds	r6, r5, #4
 426 0188 9847     		blx	r3
 427              	.LVL19:
 428 018a 0835     		adds	r5, r5, #8
 429              		.loc 1 331 0
 430 018c BC42     		cmp	r4, r7
 431 018e F6D1     		bne	.L23
 432              	.L21:
 433              	.LBE35:
 434              		.loc 1 339 0
 435 0190 FFF7FEFF 		bl	_default_exit
 436              	.LVL20:
 437              		.loc 1 340 0
 438              	.L69:
 439              		.align	2
 440              	.L68:
 441 0194 00000000 		.word	__process_stack_end__
 442 0198 00000000 		.word	__main_stack_base__
 443 019c 00000000 		.word	__main_stack_end__
 444 01a0 00000000 		.word	__process_stack_base__
 445 01a4 03000000 		.word	__process_stack_end__+3
 446 01a8 00000000 		.word	_data
 447 01ac 00000000 		.word	_edata
ARM GAS  /tmp/ccQLIRzs.s 			page 9


 448 01b0 00000000 		.word	_textdata
 449 01b4 00000000 		.word	_bss_start
 450 01b8 00000000 		.word	_bss_end
 451 01bc 00000000 		.word	__init_array_start
 452 01c0 00000000 		.word	__init_array_end
 453 01c4 00000000 		.word	__fini_array_start
 454 01c8 00000000 		.word	__fini_array_end
 455              		.cfi_endproc
 456              	.LFE11:
 457              		.size	ResetHandler, .-ResetHandler
 458 01cc AFF30080 		.text
 459              	.Letext0:
 460              		.file 2 "/opt/gcc-arm-none-eabi-4_7-2013q1/bin/../lib/gcc/arm-none-eabi/4.7.3/../../../../arm-none