ARM GAS  /tmp/ccG0WOk6.s 			page 1


   1              		.syntax unified
   2              		.cpu cortex-m4
   3              		.fpu softvfp
   4              		.eabi_attribute 20, 1
   5              		.eabi_attribute 21, 1
   6              		.eabi_attribute 23, 3
   7              		.eabi_attribute 24, 1
   8              		.eabi_attribute 25, 1
   9              		.eabi_attribute 26, 1
  10              		.eabi_attribute 30, 2
  11              		.eabi_attribute 34, 1
  12              		.eabi_attribute 18, 4
  13              		.thumb
  14              		.file	"lis302dl.c"
  15              		.text
  16              	.Ltext0:
  17              		.cfi_sections	.debug_frame
  18              		.section	.text.lis302dlReadRegister,"ax",%progbits
  19              		.align	2
  20              		.p2align 4,,15
  21              		.global	lis302dlReadRegister
  22              		.thumb
  23              		.thumb_func
  24              		.type	lis302dlReadRegister, %function
  25              	lis302dlReadRegister:
  26              	.LFB118:
  27              		.file 1 "/home/gokul/ChibiOS_2.5.0/os/various/devices_lib/accel/lis302dl.c"
  28              		.loc 1 64 0
  29              		.cfi_startproc
  30              		@ args = 0, pretend = 0, frame = 0
  31              		@ frame_needed = 0, uses_anonymous_args = 0
  32              	.LVL0:
  33 0000 F8B5     		push	{r3, r4, r5, r6, r7, lr}
  34              	.LCFI0:
  35              		.cfi_def_cfa_offset 24
  36              		.cfi_offset 3, -24
  37              		.cfi_offset 4, -20
  38              		.cfi_offset 5, -16
  39              		.cfi_offset 6, -12
  40              		.cfi_offset 7, -8
  41              		.cfi_offset 14, -4
  42              		.loc 1 67 0
  43 0002 40F20004 		movw	r4, #:lower16:.LANCHOR0
  44 0006 C0F20004 		movt	r4, #:upper16:.LANCHOR0
  45              		.loc 1 64 0
  46 000a 0F46     		mov	r7, r1
  47              		.loc 1 69 0
  48 000c 40F20005 		movw	r5, #:lower16:.LANCHOR1
  49              		.loc 1 64 0
  50 0010 0646     		mov	r6, r0
  51              		.loc 1 69 0
  52 0012 C0F20005 		movt	r5, #:upper16:.LANCHOR1
  53              		.loc 1 67 0
  54 0016 67F07F07 		orn	r7, r7, #127
  55              		.loc 1 66 0
  56 001a FFF7FEFF 		bl	spiSelect
  57              	.LVL1:
ARM GAS  /tmp/ccG0WOk6.s 			page 2


  58              		.loc 1 69 0
  59 001e 0221     		movs	r1, #2
  60 0020 2246     		mov	r2, r4
  61 0022 2B46     		mov	r3, r5
  62 0024 3046     		mov	r0, r6
  63              		.loc 1 67 0
  64 0026 2770     		strb	r7, [r4, #0]
  65              		.loc 1 68 0
  66 0028 FF27     		movs	r7, #255
  67 002a 6770     		strb	r7, [r4, #1]
  68              		.loc 1 69 0
  69 002c FFF7FEFF 		bl	spiExchange
  70              	.LVL2:
  71              		.loc 1 70 0
  72 0030 3046     		mov	r0, r6
  73 0032 FFF7FEFF 		bl	spiUnselect
  74              	.LVL3:
  75              		.loc 1 72 0
  76 0036 6878     		ldrb	r0, [r5, #1]	@ zero_extendqisi2
  77 0038 F8BD     		pop	{r3, r4, r5, r6, r7, pc}
  78              		.cfi_endproc
  79              	.LFE118:
  80              		.size	lis302dlReadRegister, .-lis302dlReadRegister
  81 003a 00BFAFF3 		.section	.text.lis302dlWriteRegister,"ax",%progbits
  81      0080
  82              		.align	2
  83              		.p2align 4,,15
  84              		.global	lis302dlWriteRegister
  85              		.thumb
  86              		.thumb_func
  87              		.type	lis302dlWriteRegister, %function
  88              	lis302dlWriteRegister:
  89              	.LFB119:
  90              		.loc 1 82 0
  91              		.cfi_startproc
  92              		@ args = 0, pretend = 0, frame = 0
  93              		@ frame_needed = 0, uses_anonymous_args = 0
  94              	.LVL4:
  95              		.loc 1 84 0
  96 0000 A1F10F03 		sub	r3, r1, #15
  97              		.loc 1 82 0
  98 0004 70B5     		push	{r4, r5, r6, lr}
  99              	.LCFI1:
 100              		.cfi_def_cfa_offset 16
 101              		.cfi_offset 4, -16
 102              		.cfi_offset 5, -12
 103              		.cfi_offset 6, -8
 104              		.cfi_offset 14, -4
 105              		.loc 1 82 0
 106 0006 0C46     		mov	r4, r1
 107 0008 0546     		mov	r5, r0
 108 000a 1646     		mov	r6, r2
 109              		.loc 1 84 0
 110 000c 302B     		cmp	r3, #48
 111 000e 2AD8     		bhi	.L3
 112 0010 DFE803F0 		tbb	[pc, r3]
 113              	.LVL5:
ARM GAS  /tmp/ccG0WOk6.s 			page 3


 114              	.L6:
 115 0014 28       		.byte	(.L2-.L6)/2
 116 0015 29       		.byte	(.L3-.L6)/2
 117 0016 29       		.byte	(.L3-.L6)/2
 118 0017 29       		.byte	(.L3-.L6)/2
 119 0018 29       		.byte	(.L3-.L6)/2
 120 0019 29       		.byte	(.L3-.L6)/2
 121 001a 29       		.byte	(.L3-.L6)/2
 122 001b 29       		.byte	(.L3-.L6)/2
 123 001c 29       		.byte	(.L3-.L6)/2
 124 001d 29       		.byte	(.L3-.L6)/2
 125 001e 29       		.byte	(.L3-.L6)/2
 126 001f 29       		.byte	(.L3-.L6)/2
 127 0020 29       		.byte	(.L3-.L6)/2
 128 0021 29       		.byte	(.L3-.L6)/2
 129 0022 29       		.byte	(.L3-.L6)/2
 130 0023 29       		.byte	(.L3-.L6)/2
 131 0024 29       		.byte	(.L3-.L6)/2
 132 0025 19       		.byte	(.L5-.L6)/2
 133 0026 19       		.byte	(.L5-.L6)/2
 134 0027 19       		.byte	(.L5-.L6)/2
 135 0028 28       		.byte	(.L2-.L6)/2
 136 0029 29       		.byte	(.L3-.L6)/2
 137 002a 29       		.byte	(.L3-.L6)/2
 138 002b 29       		.byte	(.L3-.L6)/2
 139 002c 28       		.byte	(.L2-.L6)/2
 140 002d 29       		.byte	(.L3-.L6)/2
 141 002e 28       		.byte	(.L2-.L6)/2
 142 002f 29       		.byte	(.L3-.L6)/2
 143 0030 28       		.byte	(.L2-.L6)/2
 144 0031 29       		.byte	(.L3-.L6)/2
 145 0032 28       		.byte	(.L2-.L6)/2
 146 0033 29       		.byte	(.L3-.L6)/2
 147 0034 29       		.byte	(.L3-.L6)/2
 148 0035 19       		.byte	(.L5-.L6)/2
 149 0036 28       		.byte	(.L2-.L6)/2
 150 0037 19       		.byte	(.L5-.L6)/2
 151 0038 19       		.byte	(.L5-.L6)/2
 152 0039 19       		.byte	(.L5-.L6)/2
 153 003a 28       		.byte	(.L2-.L6)/2
 154 003b 19       		.byte	(.L5-.L6)/2
 155 003c 19       		.byte	(.L5-.L6)/2
 156 003d 19       		.byte	(.L5-.L6)/2
 157 003e 28       		.byte	(.L2-.L6)/2
 158 003f 29       		.byte	(.L3-.L6)/2
 159 0040 19       		.byte	(.L5-.L6)/2
 160 0041 19       		.byte	(.L5-.L6)/2
 161 0042 19       		.byte	(.L5-.L6)/2
 162 0043 19       		.byte	(.L5-.L6)/2
 163 0044 19       		.byte	(.L5-.L6)/2
 164 0045 00       		.align	1
 165              	.L5:
 166              		.loc 1 115 0
 167 0046 FFF7FEFF 		bl	spiSelect
 168              	.LVL6:
 169              		.loc 1 116 0
 170 004a 094B     		ldr	r3, .L8
ARM GAS  /tmp/ccG0WOk6.s 			page 4


 171              		.loc 1 118 0
 172 004c 2846     		mov	r0, r5
 173 004e 0221     		movs	r1, #2
 174 0050 1A46     		mov	r2, r3
 175              		.loc 1 116 0
 176 0052 1C70     		strb	r4, [r3, #0]
 177              		.loc 1 117 0
 178 0054 5E70     		strb	r6, [r3, #1]
 179              		.loc 1 118 0
 180 0056 FFF7FEFF 		bl	spiSend
 181              	.LVL7:
 182              		.loc 1 119 0
 183 005a 2846     		mov	r0, r5
 184              		.loc 1 121 0
 185 005c BDE87040 		pop	{r4, r5, r6, lr}
 186              		.loc 1 119 0
 187 0060 FFF7FEBF 		b	spiUnselect
 188              	.LVL8:
 189              	.L2:
 190 0064 70BD     		pop	{r4, r5, r6, pc}
 191              	.L3:
 192              		.loc 1 88 0 discriminator 1
 193 0066 0348     		ldr	r0, .L8+4
 194              	.LVL9:
 195              		.loc 1 121 0 discriminator 1
 196 0068 BDE87040 		pop	{r4, r5, r6, lr}
 197              		.loc 1 88 0 discriminator 1
 198 006c FFF7FEBF 		b	chDbgPanic
 199              	.LVL10:
 200              	.L9:
 201              		.align	2
 202              	.L8:
 203 0070 00000000 		.word	.LANCHOR0
 204 0074 00000000 		.word	.LC0
 205              		.cfi_endproc
 206              	.LFE119:
 207              		.size	lis302dlWriteRegister, .-lis302dlWriteRegister
 208 0078 AFF30080 		.section	.bss.rxbuf,"aw",%nobits
 208      AFF30080 
 209              		.align	2
 210              		.set	.LANCHOR1,. + 0
 211              		.type	rxbuf, %object
 212              		.size	rxbuf, 2
 213              	rxbuf:
 214 0000 0000     		.space	2
 215 0002 0000     		.section	.rodata.str1.4,"aMS",%progbits,1
 216              		.align	2
 217              	.LC0:
 218 0000 6C697333 		.ascii	"lis302dlWriteRegister(), #1\000"
 218      3032646C 
 218      57726974 
 218      65526567 
 218      69737465 
 219              		.section	.bss.txbuf,"aw",%nobits
 220              		.align	2
 221              		.set	.LANCHOR0,. + 0
 222              		.type	txbuf, %object
ARM GAS  /tmp/ccG0WOk6.s 			page 5


 223              		.size	txbuf, 2
 224              	txbuf:
 225 0000 0000     		.space	2
 226 0002 0000     		.text
 227              	.Letext0:
 228              		.file 2 "/opt/gcc-arm-none-eabi-4_7-2013q1/bin/../lib/gcc/arm-none-eabi/4.7.3/include/stddef.h"
 229              		.file 3 "/opt/gcc-arm-none-eabi-4_7-2013q1/bin/../lib/gcc/arm-none-eabi/4.7.3/../../../../arm-none
 230              		.file 4 "/home/gokul/ChibiOS_2.5.0/os/ports/GCC/ARMCMx/chtypes.h"
 231              		.file 5 "/home/gokul/ChibiOS_2.5.0/os/kernel/include/chlists.h"
 232              		.file 6 "/home/gokul/ChibiOS_2.5.0/os/kernel/include/chthreads.h"
 233              		.file 7 "/home/gokul/ChibiOS_2.5.0/os/ports/GCC/ARMCMx/chcore_v7m.h"
 234              		.file 8 "/home/gokul/ChibiOS_2.5.0/os/kernel/include/chmtx.h"
 235              		.file 9 "/home/gokul/ChibiOS_2.5.0/os/hal/platforms/STM32F4xx/stm32f4xx.h"
 236              		.file 10 "/home/gokul/ChibiOS_2.5.0/os/hal/platforms/STM32F4xx/stm32_dma.h"
 237              		.file 11 "/home/gokul/ChibiOS_2.5.0/os/hal/platforms/STM32/GPIOv2/pal_lld.h"
 238              		.file 12 "/home/gokul/ChibiOS_2.5.0/os/hal/include/spi.h"
 239              		.file 13 "/home/gokul/ChibiOS_2.5.0/os/hal/platforms/STM32/spi_lld.h"
 240              		.file 14 "/home/gokul/ChibiOS_2.5.0/os/ports/common/ARMCMx/CMSIS/include/core_cm4.h"
 241              		.file 15 "/home/gokul/ChibiOS_2.5.0/os/kernel/include/chdebug.h"