ARM GAS  /tmp/ccIuhau9.s 			page 1


   1              		.syntax unified
   2              		.cpu cortex-m4
   3              		.fpu softvfp
   4              		.eabi_attribute 20, 1
   5              		.eabi_attribute 21, 1
   6              		.eabi_attribute 23, 3
   7              		.eabi_attribute 24, 1
   8              		.eabi_attribute 25, 1
   9              		.eabi_attribute 26, 1
  10              		.eabi_attribute 30, 2
  11              		.eabi_attribute 34, 1
  12              		.eabi_attribute 18, 4
  13              		.thumb
  14              		.file	"main.c"
  15              		.text
  16              	.Ltext0:
  17              		.cfi_sections	.debug_frame
  18              		.section	.text.startup.main,"ax",%progbits
  19              		.align	2
  20              		.p2align 4,,15
  21              		.global	main
  22              		.thumb
  23              		.thumb_func
  24              		.type	main, %function
  25              	main:
  26              	.LFB118:
  27              		.file 1 "main.c"
  28              		.loc 1 19 0
  29              		.cfi_startproc
  30              		@ args = 0, pretend = 0, frame = 0
  31              		@ frame_needed = 0, uses_anonymous_args = 0
  32 0000 10B5     		push	{r4, lr}
  33              	.LCFI0:
  34              		.cfi_def_cfa_offset 8
  35              		.cfi_offset 4, -8
  36              		.cfi_offset 14, -4
  37              		.loc 1 28 0
  38 0002 FFF7FEFF 		bl	halInit
  39              	.LVL0:
  40              		.loc 1 29 0
  41 0006 FFF7FEFF 		bl	chSysInit
  42              	.LVL1:
  43              		.loc 1 35 0
  44 000a FFF7FEFF 		bl	myUSBinit
  45              	.LVL2:
  46 000e 0A49     		ldr	r1, .L11
  47 0010 0023     		movs	r3, #0
  48              	.LVL3:
  49              	.L2:
  50 0012 5A1C     		adds	r2, r3, #1
  51              		.loc 1 42 0 discriminator 2
  52 0014 CB54     		strb	r3, [r1, r3]
  53 0016 0233     		adds	r3, r3, #2
  54              		.loc 1 41 0 discriminator 2
  55 0018 B3F5807F 		cmp	r3, #256
  56              		.loc 1 42 0 discriminator 2
  57 001c 8A54     		strb	r2, [r1, r2]
ARM GAS  /tmp/ccIuhau9.s 			page 2


  58              		.loc 1 41 0 discriminator 2
  59 001e F8D1     		bne	.L2
  60 0020 064C     		ldr	r4, .L11+4
  61 0022 03E0     		b	.L4
  62              	.L3:
  63              		.loc 1 57 0
  64 0024 4FF47A70 		mov	r0, #1000
  65 0028 FFF7FEFF 		bl	chThdSleep
  66              	.LVL4:
  67              	.L4:
  68              		.loc 1 50 0
  69 002c 2078     		ldrb	r0, [r4, #0]	@ zero_extendqisi2
  70 002e 0028     		cmp	r0, #0
  71 0030 F8D0     		beq	.L3
  72              		.loc 1 54 0
  73 0032 FFF7FEFF 		bl	send_data
  74              	.LVL5:
  75 0036 F5E7     		b	.L3
  76              	.L12:
  77              		.align	2
  78              	.L11:
  79 0038 00000000 		.word	.LANCHOR0
  80 003c 00000000 		.word	.LANCHOR1
  81              		.cfi_endproc
  82              	.LFE118:
  83              		.size	main, .-main
  84              		.global	usbStatus
  85              		.global	initUSB
  86              		.global	usbp
  87              		.global	transferBuf
  88              		.global	receiveBuf
  89              		.section	.data.usbp,"aw",%progbits
  90              		.align	2
  91              		.type	usbp, %object
  92              		.size	usbp, 4
  93              	usbp:
  94 0000 00000000 		.word	USBD1
  95              		.section	.bss.usbStatus,"aw",%nobits
  96              		.type	usbStatus, %object
  97              		.size	usbStatus, 1
  98              	usbStatus:
  99 0000 00       		.space	1
 100              		.section	.bss.transferBuf,"aw",%nobits
 101              		.align	2
 102              		.set	.LANCHOR0,. + 0
 103              		.type	transferBuf, %object
 104              		.size	transferBuf, 256
 105              	transferBuf:
 106 0000 00000000 		.space	256
 106      00000000 
 106      00000000 
 106      00000000 
 106      00000000 
 107              		.section	.bss.receiveBuf,"aw",%nobits
 108              		.align	2
 109              		.type	receiveBuf, %object
 110              		.size	receiveBuf, 64
ARM GAS  /tmp/ccIuhau9.s 			page 3


 111              	receiveBuf:
 112 0000 00000000 		.space	64
 112      00000000 
 112      00000000 
 112      00000000 
 112      00000000 
 113              		.section	.bss.initUSB,"aw",%nobits
 114              		.set	.LANCHOR1,. + 0
 115              		.type	initUSB, %object
 116              		.size	initUSB, 1
 117              	initUSB:
 118 0000 00       		.space	1
 119              		.text
 120              	.Letext0:
 121              		.file 2 "/opt/gcc-arm-none-eabi-4_7-2013q1/bin/../lib/gcc/arm-none-eabi/4.7.3/include/stddef.h"
 122              		.file 3 "/opt/gcc-arm-none-eabi-4_7-2013q1/bin/../lib/gcc/arm-none-eabi/4.7.3/../../../../arm-none
 123              		.file 4 "/home/gokul/ChibiOS_2.5.0/os/ports/GCC/ARMCMx/chtypes.h"
 124              		.file 5 "/home/gokul/ChibiOS_2.5.0/os/kernel/include/chlists.h"
 125              		.file 6 "/home/gokul/ChibiOS_2.5.0/os/kernel/include/chthreads.h"
 126              		.file 7 "/home/gokul/ChibiOS_2.5.0/os/ports/GCC/ARMCMx/chcore_v7m.h"
 127              		.file 8 "/home/gokul/ChibiOS_2.5.0/os/kernel/include/chmtx.h"
 128              		.file 9 "/home/gokul/ChibiOS_2.5.0/os/kernel/include/chqueues.h"
 129              		.file 10 "/home/gokul/ChibiOS_2.5.0/os/hal/include/usb.h"
 130              		.file 11 "/home/gokul/ChibiOS_2.5.0/os/hal/platforms/STM32/OTGv1/usb_lld.h"
 131              		.file 12 "/home/gokul/ChibiOS_2.5.0/os/hal/platforms/STM32/OTGv1/stm32_otg.h"
 132              		.file 13 "usbdescriptor.h"
 133              		.file 14 "/home/gokul/ChibiOS_2.5.0/os/ports/common/ARMCMx/CMSIS/include/core_cm4.h"
 134              		.file 15 "/home/gokul/ChibiOS_2.5.0/os/hal/include/hal.h"
 135              		.file 16 "/home/gokul/ChibiOS_2.5.0/os/kernel/include/chsys.h"
 136              		.section	.debug_info,"",%progbits
 137              	.Ldebug_info0:
 138 0000 09130000 		.4byte	0x1309
 139 0004 0200     		.2byte	0x2
 140 0006 00000000 		.4byte	.Ldebug_abbrev0
 141 000a 04       		.byte	0x4
 142 000b 01       		.uleb128 0x1
 143 000c 67020000 		.4byte	.LASF253
 144 0010 01       		.byte	0x1
 145 0011 D5050000 		.4byte	.LASF254
 146 0015 EB020000 		.4byte	.LASF255
 147 0019 00000000 		.4byte	.Ldebug_ranges0+0
 148 001d 00000000 		.4byte	0
 149 0021 00000000 		.4byte	0
 150 0025 00000000 		.4byte	.Ldebug_line0
 151 0029 02       		.uleb128 0x2
 152 002a 00000000 		.4byte	.LASF11
 153 002e 02       		.byte	0x2
 154 002f D5       		.byte	0xd5
 155 0030 34000000 		.4byte	0x34
 156 0034 03       		.uleb128 0x3
 157 0035 04       		.byte	0x4
 158 0036 07       		.byte	0x7
 159 0037 3F060000 		.4byte	.LASF0
 160 003b 04       		.uleb128 0x4
 161 003c 04       		.byte	0x4
 162 003d 03       		.uleb128 0x3
 163 003e 01       		.byte	0x1
ARM GAS  /tmp/ccIuhau9.s 			page 4


 164 003f 06       		.byte	0x6
 165 0040 D3010000 		.4byte	.LASF1
 166 0044 03       		.uleb128 0x3
 167 0045 01       		.byte	0x1
 168 0046 08       		.byte	0x8
 169 0047 44020000 		.4byte	.LASF2
 170 004b 03       		.uleb128 0x3
 171 004c 02       		.byte	0x2
 172 004d 05       		.byte	0x5
 173 004e 76080000 		.4byte	.LASF3
 174 0052 03       		.uleb128 0x3
 175 0053 02       		.byte	0x2
 176 0054 07       		.byte	0x7
 177 0055 C9090000 		.4byte	.LASF4
 178 0059 05       		.uleb128 0x5
 179 005a 04       		.byte	0x4
 180 005b 05       		.byte	0x5
 181 005c 696E7400 		.ascii	"int\000"
 182 0060 03       		.uleb128 0x3
 183 0061 08       		.byte	0x8
 184 0062 05       		.byte	0x5
 185 0063 A4050000 		.4byte	.LASF5
 186 0067 03       		.uleb128 0x3
 187 0068 08       		.byte	0x8
 188 0069 07       		.byte	0x7
 189 006a 44070000 		.4byte	.LASF6
 190 006e 03       		.uleb128 0x3
 191 006f 04       		.byte	0x4
 192 0070 05       		.byte	0x5
 193 0071 25010000 		.4byte	.LASF7
 194 0075 03       		.uleb128 0x3
 195 0076 04       		.byte	0x4
 196 0077 07       		.byte	0x7
 197 0078 07000000 		.4byte	.LASF8
 198 007c 03       		.uleb128 0x3
 199 007d 04       		.byte	0x4
 200 007e 07       		.byte	0x7
 201 007f C3040000 		.4byte	.LASF9
 202 0083 03       		.uleb128 0x3
 203 0084 01       		.byte	0x1
 204 0085 08       		.byte	0x8
 205 0086 26030000 		.4byte	.LASF10
 206 008a 06       		.uleb128 0x6
 207 008b 04       		.byte	0x4
 208 008c 90000000 		.4byte	0x90
 209 0090 07       		.uleb128 0x7
 210 0091 83000000 		.4byte	0x83
 211 0095 02       		.uleb128 0x2
 212 0096 E9010000 		.4byte	.LASF12
 213 009a 03       		.byte	0x3
 214 009b 2A       		.byte	0x2a
 215 009c 44000000 		.4byte	0x44
 216 00a0 02       		.uleb128 0x2
 217 00a1 6C070000 		.4byte	.LASF13
 218 00a5 03       		.byte	0x3
 219 00a6 36       		.byte	0x36
 220 00a7 52000000 		.4byte	0x52
ARM GAS  /tmp/ccIuhau9.s 			page 5


 221 00ab 02       		.uleb128 0x2
 222 00ac 4D000000 		.4byte	.LASF14
 223 00b0 03       		.byte	0x3
 224 00b1 4F       		.byte	0x4f
 225 00b2 6E000000 		.4byte	0x6e
 226 00b6 02       		.uleb128 0x2
 227 00b7 92090000 		.4byte	.LASF15
 228 00bb 03       		.byte	0x3
 229 00bc 50       		.byte	0x50
 230 00bd 7C000000 		.4byte	0x7c
 231 00c1 02       		.uleb128 0x2
 232 00c2 80080000 		.4byte	.LASF16
 233 00c6 03       		.byte	0x3
 234 00c7 78       		.byte	0x78
 235 00c8 67000000 		.4byte	0x67
 236 00cc 02       		.uleb128 0x2
 237 00cd E0080000 		.4byte	.LASF17
 238 00d1 04       		.byte	0x4
 239 00d2 27       		.byte	0x27
 240 00d3 AB000000 		.4byte	0xab
 241 00d7 02       		.uleb128 0x2
 242 00d8 49080000 		.4byte	.LASF18
 243 00dc 04       		.byte	0x4
 244 00dd 28       		.byte	0x28
 245 00de 95000000 		.4byte	0x95
 246 00e2 02       		.uleb128 0x2
 247 00e3 54010000 		.4byte	.LASF19
 248 00e7 04       		.byte	0x4
 249 00e8 29       		.byte	0x29
 250 00e9 95000000 		.4byte	0x95
 251 00ed 02       		.uleb128 0x2
 252 00ee 57090000 		.4byte	.LASF20
 253 00f2 04       		.byte	0x4
 254 00f3 2A       		.byte	0x2a
 255 00f4 95000000 		.4byte	0x95
 256 00f8 02       		.uleb128 0x2
 257 00f9 D4070000 		.4byte	.LASF21
 258 00fd 04       		.byte	0x4
 259 00fe 2B       		.byte	0x2b
 260 00ff 95000000 		.4byte	0x95
 261 0103 02       		.uleb128 0x2
 262 0104 2D000000 		.4byte	.LASF22
 263 0108 04       		.byte	0x4
 264 0109 2C       		.byte	0x2c
 265 010a B6000000 		.4byte	0xb6
 266 010e 02       		.uleb128 0x2
 267 010f 82070000 		.4byte	.LASF23
 268 0113 04       		.byte	0x4
 269 0114 2D       		.byte	0x2d
 270 0115 AB000000 		.4byte	0xab
 271 0119 02       		.uleb128 0x2
 272 011a 29020000 		.4byte	.LASF24
 273 011e 04       		.byte	0x4
 274 011f 2F       		.byte	0x2f
 275 0120 B6000000 		.4byte	0xb6
 276 0124 02       		.uleb128 0x2
 277 0125 10000000 		.4byte	.LASF25
ARM GAS  /tmp/ccIuhau9.s 			page 6


 278 0129 04       		.byte	0x4
 279 012a 30       		.byte	0x30
 280 012b B6000000 		.4byte	0xb6
 281 012f 02       		.uleb128 0x2
 282 0130 15090000 		.4byte	.LASF26
 283 0134 05       		.byte	0x5
 284 0135 23       		.byte	0x23
 285 0136 3A010000 		.4byte	0x13a
 286 013a 08       		.uleb128 0x8
 287 013b 15090000 		.4byte	.LASF26
 288 013f 4C       		.byte	0x4c
 289 0140 06       		.byte	0x6
 290 0141 57       		.byte	0x57
 291 0142 6D020000 		.4byte	0x26d
 292 0146 09       		.uleb128 0x9
 293 0147 2E010000 		.4byte	.LASF27
 294 014b 06       		.byte	0x6
 295 014c 58       		.byte	0x58
 296 014d 92020000 		.4byte	0x292
 297 0151 02       		.byte	0x2
 298 0152 23       		.byte	0x23
 299 0153 00       		.uleb128 0
 300 0154 09       		.uleb128 0x9
 301 0155 4D010000 		.4byte	.LASF28
 302 0159 06       		.byte	0x6
 303 015a 5A       		.byte	0x5a
 304 015b 92020000 		.4byte	0x292
 305 015f 02       		.byte	0x2
 306 0160 23       		.byte	0x23
 307 0161 04       		.uleb128 0x4
 308 0162 09       		.uleb128 0x9
 309 0163 51030000 		.4byte	.LASF29
 310 0167 06       		.byte	0x6
 311 0168 5C       		.byte	0x5c
 312 0169 03010000 		.4byte	0x103
 313 016d 02       		.byte	0x2
 314 016e 23       		.byte	0x23
 315 016f 08       		.uleb128 0x8
 316 0170 09       		.uleb128 0x9
 317 0171 1A000000 		.4byte	.LASF30
 318 0175 06       		.byte	0x6
 319 0176 5D       		.byte	0x5d
 320 0177 69030000 		.4byte	0x369
 321 017b 02       		.byte	0x2
 322 017c 23       		.byte	0x23
 323 017d 0C       		.uleb128 0xc
 324 017e 09       		.uleb128 0x9
 325 017f 1D010000 		.4byte	.LASF31
 326 0183 06       		.byte	0x6
 327 0184 5F       		.byte	0x5f
 328 0185 92020000 		.4byte	0x292
 329 0189 02       		.byte	0x2
 330 018a 23       		.byte	0x23
 331 018b 10       		.uleb128 0x10
 332 018c 09       		.uleb128 0x9
 333 018d 64070000 		.4byte	.LASF32
 334 0191 06       		.byte	0x6
ARM GAS  /tmp/ccIuhau9.s 			page 7


 335 0192 60       		.byte	0x60
 336 0193 92020000 		.4byte	0x292
 337 0197 02       		.byte	0x2
 338 0198 23       		.byte	0x23
 339 0199 14       		.uleb128 0x14
 340 019a 09       		.uleb128 0x9
 341 019b 460A0000 		.4byte	.LASF33
 342 019f 06       		.byte	0x6
 343 01a0 67       		.byte	0x67
 344 01a1 8A000000 		.4byte	0x8a
 345 01a5 02       		.byte	0x2
 346 01a6 23       		.byte	0x23
 347 01a7 18       		.uleb128 0x18
 348 01a8 09       		.uleb128 0x9
 349 01a9 FE090000 		.4byte	.LASF34
 350 01ad 06       		.byte	0x6
 351 01ae 6D       		.byte	0x6d
 352 01af 13040000 		.4byte	0x413
 353 01b3 02       		.byte	0x2
 354 01b4 23       		.byte	0x23
 355 01b5 1C       		.uleb128 0x1c
 356 01b6 09       		.uleb128 0x9
 357 01b7 860A0000 		.4byte	.LASF35
 358 01bb 06       		.byte	0x6
 359 01bc 72       		.byte	0x72
 360 01bd E2000000 		.4byte	0xe2
 361 01c1 02       		.byte	0x2
 362 01c2 23       		.byte	0x23
 363 01c3 20       		.uleb128 0x20
 364 01c4 09       		.uleb128 0x9
 365 01c5 28060000 		.4byte	.LASF36
 366 01c9 06       		.byte	0x6
 367 01ca 76       		.byte	0x76
 368 01cb D7000000 		.4byte	0xd7
 369 01cf 02       		.byte	0x2
 370 01d0 23       		.byte	0x23
 371 01d1 21       		.uleb128 0x21
 372 01d2 09       		.uleb128 0x9
 373 01d3 74060000 		.4byte	.LASF37
 374 01d7 06       		.byte	0x6
 375 01d8 7B       		.byte	0x7b
 376 01d9 ED000000 		.4byte	0xed
 377 01dd 02       		.byte	0x2
 378 01de 23       		.byte	0x23
 379 01df 22       		.uleb128 0x22
 380 01e0 09       		.uleb128 0x9
 381 01e1 DF010000 		.4byte	.LASF38
 382 01e5 06       		.byte	0x6
 383 01e6 81       		.byte	0x81
 384 01e7 F8000000 		.4byte	0xf8
 385 01eb 02       		.byte	0x2
 386 01ec 23       		.byte	0x23
 387 01ed 23       		.uleb128 0x23
 388 01ee 09       		.uleb128 0x9
 389 01ef DB060000 		.4byte	.LASF39
 390 01f3 06       		.byte	0x6
 391 01f4 88       		.byte	0x88
ARM GAS  /tmp/ccIuhau9.s 			page 8


 392 01f5 91030000 		.4byte	0x391
 393 01f9 02       		.byte	0x2
 394 01fa 23       		.byte	0x23
 395 01fb 24       		.uleb128 0x24
 396 01fc 0A       		.uleb128 0xa
 397 01fd 705F7500 		.ascii	"p_u\000"
 398 0201 06       		.byte	0x6
 399 0202 AD       		.byte	0xad
 400 0203 DE030000 		.4byte	0x3de
 401 0207 02       		.byte	0x2
 402 0208 23       		.byte	0x23
 403 0209 28       		.uleb128 0x28
 404 020a 09       		.uleb128 0x9
 405 020b 1E060000 		.4byte	.LASF40
 406 020f 06       		.byte	0x6
 407 0210 B2       		.byte	0xb2
 408 0211 BA020000 		.4byte	0x2ba
 409 0215 02       		.byte	0x2
 410 0216 23       		.byte	0x23
 411 0217 2C       		.uleb128 0x2c
 412 0218 09       		.uleb128 0x9
 413 0219 35000000 		.4byte	.LASF41
 414 021d 06       		.byte	0x6
 415 021e B8       		.byte	0xb8
 416 021f 98020000 		.4byte	0x298
 417 0223 02       		.byte	0x2
 418 0224 23       		.byte	0x23
 419 0225 30       		.uleb128 0x30
 420 0226 09       		.uleb128 0x9
 421 0227 800A0000 		.4byte	.LASF42
 422 022b 06       		.byte	0x6
 423 022c BC       		.byte	0xbc
 424 022d 0E010000 		.4byte	0x10e
 425 0231 02       		.byte	0x2
 426 0232 23       		.byte	0x23
 427 0233 38       		.uleb128 0x38
 428 0234 09       		.uleb128 0x9
 429 0235 56040000 		.4byte	.LASF43
 430 0239 06       		.byte	0x6
 431 023a C2       		.byte	0xc2
 432 023b 19010000 		.4byte	0x119
 433 023f 02       		.byte	0x2
 434 0240 23       		.byte	0x23
 435 0241 3C       		.uleb128 0x3c
 436 0242 09       		.uleb128 0x9
 437 0243 6E010000 		.4byte	.LASF44
 438 0247 06       		.byte	0x6
 439 0248 C9       		.byte	0xc9
 440 0249 19040000 		.4byte	0x419
 441 024d 02       		.byte	0x2
 442 024e 23       		.byte	0x23
 443 024f 40       		.uleb128 0x40
 444 0250 09       		.uleb128 0x9
 445 0251 FB060000 		.4byte	.LASF45
 446 0255 06       		.byte	0x6
 447 0256 CD       		.byte	0xcd
 448 0257 03010000 		.4byte	0x103
ARM GAS  /tmp/ccIuhau9.s 			page 9


 449 025b 02       		.byte	0x2
 450 025c 23       		.byte	0x23
 451 025d 44       		.uleb128 0x44
 452 025e 09       		.uleb128 0x9
 453 025f 60060000 		.4byte	.LASF46
 454 0263 06       		.byte	0x6
 455 0264 D3       		.byte	0xd3
 456 0265 3B000000 		.4byte	0x3b
 457 0269 02       		.byte	0x2
 458 026a 23       		.byte	0x23
 459 026b 48       		.uleb128 0x48
 460 026c 00       		.byte	0
 461 026d 0B       		.uleb128 0xb
 462 026e 08       		.byte	0x8
 463 026f 05       		.byte	0x5
 464 0270 5A       		.byte	0x5a
 465 0271 92020000 		.4byte	0x292
 466 0275 09       		.uleb128 0x9
 467 0276 2E010000 		.4byte	.LASF27
 468 027a 05       		.byte	0x5
 469 027b 5B       		.byte	0x5b
 470 027c 92020000 		.4byte	0x292
 471 0280 02       		.byte	0x2
 472 0281 23       		.byte	0x23
 473 0282 00       		.uleb128 0
 474 0283 09       		.uleb128 0x9
 475 0284 4D010000 		.4byte	.LASF28
 476 0288 05       		.byte	0x5
 477 0289 5D       		.byte	0x5d
 478 028a 92020000 		.4byte	0x292
 479 028e 02       		.byte	0x2
 480 028f 23       		.byte	0x23
 481 0290 04       		.uleb128 0x4
 482 0291 00       		.byte	0
 483 0292 06       		.uleb128 0x6
 484 0293 04       		.byte	0x4
 485 0294 2F010000 		.4byte	0x12f
 486 0298 02       		.uleb128 0x2
 487 0299 A3090000 		.4byte	.LASF47
 488 029d 05       		.byte	0x5
 489 029e 5F       		.byte	0x5f
 490 029f 6D020000 		.4byte	0x26d
 491 02a3 0B       		.uleb128 0xb
 492 02a4 04       		.byte	0x4
 493 02a5 05       		.byte	0x5
 494 02a6 64       		.byte	0x64
 495 02a7 BA020000 		.4byte	0x2ba
 496 02ab 09       		.uleb128 0x9
 497 02ac 2E010000 		.4byte	.LASF27
 498 02b0 05       		.byte	0x5
 499 02b1 66       		.byte	0x66
 500 02b2 92020000 		.4byte	0x292
 501 02b6 02       		.byte	0x2
 502 02b7 23       		.byte	0x23
 503 02b8 00       		.uleb128 0
 504 02b9 00       		.byte	0
 505 02ba 02       		.uleb128 0x2
ARM GAS  /tmp/ccIuhau9.s 			page 10


 506 02bb 90060000 		.4byte	.LASF48
 507 02bf 05       		.byte	0x5
 508 02c0 69       		.byte	0x69
 509 02c1 A3020000 		.4byte	0x2a3
 510 02c5 02       		.uleb128 0x2
 511 02c6 87010000 		.4byte	.LASF49
 512 02ca 07       		.byte	0x7
 513 02cb DE       		.byte	0xde
 514 02cc 3B000000 		.4byte	0x3b
 515 02d0 02       		.uleb128 0x2
 516 02d1 8F030000 		.4byte	.LASF50
 517 02d5 07       		.byte	0x7
 518 02d6 E4       		.byte	0xe4
 519 02d7 C1000000 		.4byte	0xc1
 520 02db 0C       		.uleb128 0xc
 521 02dc 4F040000 		.4byte	.LASF51
 522 02e0 24       		.byte	0x24
 523 02e1 07       		.byte	0x7
 524 02e2 0501     		.2byte	0x105
 525 02e4 69030000 		.4byte	0x369
 526 02e8 0D       		.uleb128 0xd
 527 02e9 723400   		.ascii	"r4\000"
 528 02ec 07       		.byte	0x7
 529 02ed 1801     		.2byte	0x118
 530 02ef C5020000 		.4byte	0x2c5
 531 02f3 02       		.byte	0x2
 532 02f4 23       		.byte	0x23
 533 02f5 00       		.uleb128 0
 534 02f6 0D       		.uleb128 0xd
 535 02f7 723500   		.ascii	"r5\000"
 536 02fa 07       		.byte	0x7
 537 02fb 1901     		.2byte	0x119
 538 02fd C5020000 		.4byte	0x2c5
 539 0301 02       		.byte	0x2
 540 0302 23       		.byte	0x23
 541 0303 04       		.uleb128 0x4
 542 0304 0D       		.uleb128 0xd
 543 0305 723600   		.ascii	"r6\000"
 544 0308 07       		.byte	0x7
 545 0309 1A01     		.2byte	0x11a
 546 030b C5020000 		.4byte	0x2c5
 547 030f 02       		.byte	0x2
 548 0310 23       		.byte	0x23
 549 0311 08       		.uleb128 0x8
 550 0312 0D       		.uleb128 0xd
 551 0313 723700   		.ascii	"r7\000"
 552 0316 07       		.byte	0x7
 553 0317 1B01     		.2byte	0x11b
 554 0319 C5020000 		.4byte	0x2c5
 555 031d 02       		.byte	0x2
 556 031e 23       		.byte	0x23
 557 031f 0C       		.uleb128 0xc
 558 0320 0D       		.uleb128 0xd
 559 0321 723800   		.ascii	"r8\000"
 560 0324 07       		.byte	0x7
 561 0325 1C01     		.2byte	0x11c
 562 0327 C5020000 		.4byte	0x2c5
ARM GAS  /tmp/ccIuhau9.s 			page 11


 563 032b 02       		.byte	0x2
 564 032c 23       		.byte	0x23
 565 032d 10       		.uleb128 0x10
 566 032e 0D       		.uleb128 0xd
 567 032f 723900   		.ascii	"r9\000"
 568 0332 07       		.byte	0x7
 569 0333 1D01     		.2byte	0x11d
 570 0335 C5020000 		.4byte	0x2c5
 571 0339 02       		.byte	0x2
 572 033a 23       		.byte	0x23
 573 033b 14       		.uleb128 0x14
 574 033c 0D       		.uleb128 0xd
 575 033d 72313000 		.ascii	"r10\000"
 576 0341 07       		.byte	0x7
 577 0342 1E01     		.2byte	0x11e
 578 0344 C5020000 		.4byte	0x2c5
 579 0348 02       		.byte	0x2
 580 0349 23       		.byte	0x23
 581 034a 18       		.uleb128 0x18
 582 034b 0D       		.uleb128 0xd
 583 034c 72313100 		.ascii	"r11\000"
 584 0350 07       		.byte	0x7
 585 0351 1F01     		.2byte	0x11f
 586 0353 C5020000 		.4byte	0x2c5
 587 0357 02       		.byte	0x2
 588 0358 23       		.byte	0x23
 589 0359 1C       		.uleb128 0x1c
 590 035a 0D       		.uleb128 0xd
 591 035b 6C7200   		.ascii	"lr\000"
 592 035e 07       		.byte	0x7
 593 035f 2001     		.2byte	0x120
 594 0361 C5020000 		.4byte	0x2c5
 595 0365 02       		.byte	0x2
 596 0366 23       		.byte	0x23
 597 0367 20       		.uleb128 0x20
 598 0368 00       		.byte	0
 599 0369 0C       		.uleb128 0xc
 600 036a 35020000 		.4byte	.LASF52
 601 036e 04       		.byte	0x4
 602 036f 07       		.byte	0x7
 603 0370 2A01     		.2byte	0x12a
 604 0372 86030000 		.4byte	0x386
 605 0376 0D       		.uleb128 0xd
 606 0377 72313300 		.ascii	"r13\000"
 607 037b 07       		.byte	0x7
 608 037c 2B01     		.2byte	0x12b
 609 037e 86030000 		.4byte	0x386
 610 0382 02       		.byte	0x2
 611 0383 23       		.byte	0x23
 612 0384 00       		.uleb128 0
 613 0385 00       		.byte	0
 614 0386 06       		.uleb128 0x6
 615 0387 04       		.byte	0x4
 616 0388 DB020000 		.4byte	0x2db
 617 038c 0E       		.uleb128 0xe
 618 038d B6000000 		.4byte	0xb6
 619 0391 0E       		.uleb128 0xe
ARM GAS  /tmp/ccIuhau9.s 			page 12


 620 0392 24010000 		.4byte	0x124
 621 0396 08       		.uleb128 0x8
 622 0397 9E050000 		.4byte	.LASF53
 623 039b 10       		.byte	0x10
 624 039c 08       		.byte	0x8
 625 039d 25       		.byte	0x25
 626 039e CD030000 		.4byte	0x3cd
 627 03a2 09       		.uleb128 0x9
 628 03a3 BC050000 		.4byte	.LASF54
 629 03a7 08       		.byte	0x8
 630 03a8 26       		.byte	0x26
 631 03a9 98020000 		.4byte	0x298
 632 03ad 02       		.byte	0x2
 633 03ae 23       		.byte	0x23
 634 03af 00       		.uleb128 0
 635 03b0 09       		.uleb128 0x9
 636 03b1 AD000000 		.4byte	.LASF55
 637 03b5 08       		.byte	0x8
 638 03b6 28       		.byte	0x28
 639 03b7 92020000 		.4byte	0x292
 640 03bb 02       		.byte	0x2
 641 03bc 23       		.byte	0x23
 642 03bd 08       		.uleb128 0x8
 643 03be 09       		.uleb128 0x9
 644 03bf 4D0A0000 		.4byte	.LASF56
 645 03c3 08       		.byte	0x8
 646 03c4 2A       		.byte	0x2a
 647 03c5 CD030000 		.4byte	0x3cd
 648 03c9 02       		.byte	0x2
 649 03ca 23       		.byte	0x23
 650 03cb 0C       		.uleb128 0xc
 651 03cc 00       		.byte	0
 652 03cd 06       		.uleb128 0x6
 653 03ce 04       		.byte	0x4
 654 03cf 96030000 		.4byte	0x396
 655 03d3 02       		.uleb128 0x2
 656 03d4 9E050000 		.4byte	.LASF53
 657 03d8 08       		.byte	0x8
 658 03d9 2C       		.byte	0x2c
 659 03da 96030000 		.4byte	0x396
 660 03de 0F       		.uleb128 0xf
 661 03df 04       		.byte	0x4
 662 03e0 06       		.byte	0x6
 663 03e1 8F       		.byte	0x8f
 664 03e2 13040000 		.4byte	0x413
 665 03e6 10       		.uleb128 0x10
 666 03e7 C2090000 		.4byte	.LASF57
 667 03eb 06       		.byte	0x6
 668 03ec 96       		.byte	0x96
 669 03ed 0E010000 		.4byte	0x10e
 670 03f1 10       		.uleb128 0x10
 671 03f2 B5000000 		.4byte	.LASF58
 672 03f6 06       		.byte	0x6
 673 03f7 9D       		.byte	0x9d
 674 03f8 0E010000 		.4byte	0x10e
 675 03fc 10       		.uleb128 0x10
 676 03fd 6F030000 		.4byte	.LASF59
ARM GAS  /tmp/ccIuhau9.s 			page 13


 677 0401 06       		.byte	0x6
 678 0402 A4       		.byte	0xa4
 679 0403 3B000000 		.4byte	0x3b
 680 0407 10       		.uleb128 0x10
 681 0408 D2000000 		.4byte	.LASF60
 682 040c 06       		.byte	0x6
 683 040d AB       		.byte	0xab
 684 040e 19010000 		.4byte	0x119
 685 0412 00       		.byte	0
 686 0413 06       		.uleb128 0x6
 687 0414 04       		.byte	0x4
 688 0415 D0020000 		.4byte	0x2d0
 689 0419 06       		.uleb128 0x6
 690 041a 04       		.byte	0x4
 691 041b D3030000 		.4byte	0x3d3
 692 041f 02       		.uleb128 0x2
 693 0420 62030000 		.4byte	.LASF61
 694 0424 09       		.byte	0x9
 695 0425 30       		.byte	0x30
 696 0426 2A040000 		.4byte	0x42a
 697 042a 08       		.uleb128 0x8
 698 042b 62030000 		.4byte	.LASF61
 699 042f 24       		.byte	0x24
 700 0430 09       		.byte	0x9
 701 0431 3E       		.byte	0x3e
 702 0432 A7040000 		.4byte	0x4a7
 703 0436 09       		.uleb128 0x9
 704 0437 3F080000 		.4byte	.LASF62
 705 043b 09       		.byte	0x9
 706 043c 3F       		.byte	0x3f
 707 043d 98020000 		.4byte	0x298
 708 0441 02       		.byte	0x2
 709 0442 23       		.byte	0x23
 710 0443 00       		.uleb128 0
 711 0444 09       		.uleb128 0x9
 712 0445 A8040000 		.4byte	.LASF63
 713 0449 09       		.byte	0x9
 714 044a 40       		.byte	0x40
 715 044b 29000000 		.4byte	0x29
 716 044f 02       		.byte	0x2
 717 0450 23       		.byte	0x23
 718 0451 08       		.uleb128 0x8
 719 0452 09       		.uleb128 0x9
 720 0453 F0000000 		.4byte	.LASF64
 721 0457 09       		.byte	0x9
 722 0458 41       		.byte	0x41
 723 0459 CA040000 		.4byte	0x4ca
 724 045d 02       		.byte	0x2
 725 045e 23       		.byte	0x23
 726 045f 0C       		.uleb128 0xc
 727 0460 09       		.uleb128 0x9
 728 0461 CC000000 		.4byte	.LASF65
 729 0465 09       		.byte	0x9
 730 0466 42       		.byte	0x42
 731 0467 CA040000 		.4byte	0x4ca
 732 046b 02       		.byte	0x2
 733 046c 23       		.byte	0x23
ARM GAS  /tmp/ccIuhau9.s 			page 14


 734 046d 10       		.uleb128 0x10
 735 046e 09       		.uleb128 0x9
 736 046f 1C050000 		.4byte	.LASF66
 737 0473 09       		.byte	0x9
 738 0474 44       		.byte	0x44
 739 0475 CA040000 		.4byte	0x4ca
 740 0479 02       		.byte	0x2
 741 047a 23       		.byte	0x23
 742 047b 14       		.uleb128 0x14
 743 047c 09       		.uleb128 0x9
 744 047d 35010000 		.4byte	.LASF67
 745 0481 09       		.byte	0x9
 746 0482 45       		.byte	0x45
 747 0483 CA040000 		.4byte	0x4ca
 748 0487 02       		.byte	0x2
 749 0488 23       		.byte	0x23
 750 0489 18       		.uleb128 0x18
 751 048a 09       		.uleb128 0x9
 752 048b 14010000 		.4byte	.LASF68
 753 048f 09       		.byte	0x9
 754 0490 46       		.byte	0x46
 755 0491 A7040000 		.4byte	0x4a7
 756 0495 02       		.byte	0x2
 757 0496 23       		.byte	0x23
 758 0497 1C       		.uleb128 0x1c
 759 0498 09       		.uleb128 0x9
 760 0499 60020000 		.4byte	.LASF69
 761 049d 09       		.byte	0x9
 762 049e 47       		.byte	0x47
 763 049f 3B000000 		.4byte	0x3b
 764 04a3 02       		.byte	0x2
 765 04a4 23       		.byte	0x23
 766 04a5 20       		.uleb128 0x20
 767 04a6 00       		.byte	0
 768 04a7 02       		.uleb128 0x2
 769 04a8 14060000 		.4byte	.LASF70
 770 04ac 09       		.byte	0x9
 771 04ad 33       		.byte	0x33
 772 04ae B2040000 		.4byte	0x4b2
 773 04b2 06       		.uleb128 0x6
 774 04b3 04       		.byte	0x4
 775 04b4 B8040000 		.4byte	0x4b8
 776 04b8 11       		.uleb128 0x11
 777 04b9 01       		.byte	0x1
 778 04ba C4040000 		.4byte	0x4c4
 779 04be 12       		.uleb128 0x12
 780 04bf C4040000 		.4byte	0x4c4
 781 04c3 00       		.byte	0
 782 04c4 06       		.uleb128 0x6
 783 04c5 04       		.byte	0x4
 784 04c6 1F040000 		.4byte	0x41f
 785 04ca 06       		.uleb128 0x6
 786 04cb 04       		.byte	0x4
 787 04cc 95000000 		.4byte	0x95
 788 04d0 02       		.uleb128 0x2
 789 04d1 F3090000 		.4byte	.LASF71
 790 04d5 09       		.byte	0x9
ARM GAS  /tmp/ccIuhau9.s 			page 15


 791 04d6 7B       		.byte	0x7b
 792 04d7 1F040000 		.4byte	0x41f
 793 04db 02       		.uleb128 0x2
 794 04dc 9A030000 		.4byte	.LASF72
 795 04e0 09       		.byte	0x9
 796 04e1 EE       		.byte	0xee
 797 04e2 1F040000 		.4byte	0x41f
 798 04e6 06       		.uleb128 0x6
 799 04e7 04       		.byte	0x4
 800 04e8 EC040000 		.4byte	0x4ec
 801 04ec 07       		.uleb128 0x7
 802 04ed 95000000 		.4byte	0x95
 803 04f1 13       		.uleb128 0x13
 804 04f2 95000000 		.4byte	0x95
 805 04f6 01050000 		.4byte	0x501
 806 04fa 14       		.uleb128 0x14
 807 04fb 75000000 		.4byte	0x75
 808 04ff 0B       		.byte	0xb
 809 0500 00       		.byte	0
 810 0501 13       		.uleb128 0x13
 811 0502 B6000000 		.4byte	0xb6
 812 0506 11050000 		.4byte	0x511
 813 050a 14       		.uleb128 0x14
 814 050b 75000000 		.4byte	0x75
 815 050f 0E       		.byte	0xe
 816 0510 00       		.byte	0
 817 0511 0E       		.uleb128 0xe
 818 0512 AB000000 		.4byte	0xab
 819 0516 02       		.uleb128 0x2
 820 0517 AC060000 		.4byte	.LASF73
 821 051b 0A       		.byte	0xa
 822 051c CB       		.byte	0xcb
 823 051d 21050000 		.4byte	0x521
 824 0521 15       		.uleb128 0x15
 825 0522 AC060000 		.4byte	.LASF73
 826 0526 8801     		.2byte	0x188
 827 0528 0B       		.byte	0xb
 828 0529 6901     		.2byte	0x169
 829 052b 6B060000 		.4byte	0x66b
 830 052f 16       		.uleb128 0x16
 831 0530 85000000 		.4byte	.LASF74
 832 0534 0B       		.byte	0xb
 833 0535 6D01     		.2byte	0x16d
 834 0537 9D060000 		.4byte	0x69d
 835 053b 02       		.byte	0x2
 836 053c 23       		.byte	0x23
 837 053d 00       		.uleb128 0
 838 053e 16       		.uleb128 0x16
 839 053f 7E000000 		.4byte	.LASF75
 840 0543 0B       		.byte	0xb
 841 0544 7101     		.2byte	0x171
 842 0546 77100000 		.4byte	0x1077
 843 054a 02       		.byte	0x2
 844 054b 23       		.byte	0x23
 845 054c 04       		.uleb128 0x4
 846 054d 16       		.uleb128 0x16
 847 054e DC040000 		.4byte	.LASF76
ARM GAS  /tmp/ccIuhau9.s 			page 16


 848 0552 0B       		.byte	0xb
 849 0553 7601     		.2byte	0x176
 850 0555 3B000000 		.4byte	0x3b
 851 0559 02       		.byte	0x2
 852 055a 23       		.byte	0x23
 853 055b 08       		.uleb128 0x8
 854 055c 16       		.uleb128 0x16
 855 055d CE030000 		.4byte	.LASF77
 856 0561 0B       		.byte	0xb
 857 0562 7A01     		.2byte	0x17a
 858 0564 A0000000 		.4byte	0xa0
 859 0568 02       		.byte	0x2
 860 0569 23       		.byte	0x23
 861 056a 0C       		.uleb128 0xc
 862 056b 16       		.uleb128 0x16
 863 056c 58030000 		.4byte	.LASF78
 864 0570 0B       		.byte	0xb
 865 0571 7E01     		.2byte	0x17e
 866 0573 A0000000 		.4byte	0xa0
 867 0577 02       		.byte	0x2
 868 0578 23       		.byte	0x23
 869 0579 0E       		.uleb128 0xe
 870 057a 0D       		.uleb128 0xd
 871 057b 65706300 		.ascii	"epc\000"
 872 057f 0B       		.byte	0xb
 873 0580 8201     		.2byte	0x182
 874 0582 82100000 		.4byte	0x1082
 875 0586 02       		.byte	0x2
 876 0587 23       		.byte	0x23
 877 0588 10       		.uleb128 0x10
 878 0589 16       		.uleb128 0x16
 879 058a BB020000 		.4byte	.LASF79
 880 058e 0B       		.byte	0xb
 881 058f 8601     		.2byte	0x186
 882 0591 D5060000 		.4byte	0x6d5
 883 0595 02       		.byte	0x2
 884 0596 23       		.byte	0x23
 885 0597 20       		.uleb128 0x20
 886 0598 16       		.uleb128 0x16
 887 0599 CD050000 		.4byte	.LASF80
 888 059d 0B       		.byte	0xb
 889 059e 8A01     		.2byte	0x18a
 890 05a0 CA040000 		.4byte	0x4ca
 891 05a4 02       		.byte	0x2
 892 05a5 23       		.byte	0x23
 893 05a6 24       		.uleb128 0x24
 894 05a7 16       		.uleb128 0x16
 895 05a8 3E030000 		.4byte	.LASF81
 896 05ac 0B       		.byte	0xb
 897 05ad 8E01     		.2byte	0x18e
 898 05af 29000000 		.4byte	0x29
 899 05b3 02       		.byte	0x2
 900 05b4 23       		.byte	0x23
 901 05b5 28       		.uleb128 0x28
 902 05b6 16       		.uleb128 0x16
 903 05b7 EA040000 		.4byte	.LASF82
 904 05bb 0B       		.byte	0xb
ARM GAS  /tmp/ccIuhau9.s 			page 17


 905 05bc 9201     		.2byte	0x192
 906 05be 4C070000 		.4byte	0x74c
 907 05c2 02       		.byte	0x2
 908 05c3 23       		.byte	0x23
 909 05c4 2C       		.uleb128 0x2c
 910 05c5 16       		.uleb128 0x16
 911 05c6 49040000 		.4byte	.LASF83
 912 05ca 0B       		.byte	0xb
 913 05cb 9601     		.2byte	0x196
 914 05cd 9D100000 		.4byte	0x109d
 915 05d1 02       		.byte	0x2
 916 05d2 23       		.byte	0x23
 917 05d3 30       		.uleb128 0x30
 918 05d4 16       		.uleb128 0x16
 919 05d5 D5040000 		.4byte	.LASF84
 920 05d9 0B       		.byte	0xb
 921 05da 9A01     		.2byte	0x19a
 922 05dc A0000000 		.4byte	0xa0
 923 05e0 02       		.byte	0x2
 924 05e1 23       		.byte	0x23
 925 05e2 38       		.uleb128 0x38
 926 05e3 16       		.uleb128 0x16
 927 05e4 E2040000 		.4byte	.LASF85
 928 05e8 0B       		.byte	0xb
 929 05e9 9E01     		.2byte	0x19e
 930 05eb 95000000 		.4byte	0x95
 931 05ef 02       		.byte	0x2
 932 05f0 23       		.byte	0x23
 933 05f1 3A       		.uleb128 0x3a
 934 05f2 16       		.uleb128 0x16
 935 05f3 92040000 		.4byte	.LASF86
 936 05f7 0B       		.byte	0xb
 937 05f8 A201     		.2byte	0x1a2
 938 05fa 95000000 		.4byte	0x95
 939 05fe 02       		.byte	0x2
 940 05ff 23       		.byte	0x23
 941 0600 3B       		.uleb128 0x3b
 942 0601 0D       		.uleb128 0xd
 943 0602 6F746700 		.ascii	"otg\000"
 944 0606 0B       		.byte	0xb
 945 0607 AA01     		.2byte	0x1aa
 946 0609 AD100000 		.4byte	0x10ad
 947 060d 02       		.byte	0x2
 948 060e 23       		.byte	0x23
 949 060f 3C       		.uleb128 0x3c
 950 0610 16       		.uleb128 0x16
 951 0611 06070000 		.4byte	.LASF87
 952 0615 0B       		.byte	0xb
 953 0616 AE01     		.2byte	0x1ae
 954 0618 B3100000 		.4byte	0x10b3
 955 061c 02       		.byte	0x2
 956 061d 23       		.byte	0x23
 957 061e 40       		.uleb128 0x40
 958 061f 16       		.uleb128 0x16
 959 0620 540A0000 		.4byte	.LASF88
 960 0624 0B       		.byte	0xb
 961 0625 B201     		.2byte	0x1b2
ARM GAS  /tmp/ccIuhau9.s 			page 18


 962 0627 B6000000 		.4byte	0xb6
 963 062b 02       		.byte	0x2
 964 062c 23       		.byte	0x23
 965 062d 44       		.uleb128 0x44
 966 062e 16       		.uleb128 0x16
 967 062f 56060000 		.4byte	.LASF89
 968 0633 0B       		.byte	0xb
 969 0634 B601     		.2byte	0x1b6
 970 0636 B6000000 		.4byte	0xb6
 971 063a 02       		.byte	0x2
 972 063b 23       		.byte	0x23
 973 063c 48       		.uleb128 0x48
 974 063d 16       		.uleb128 0x16
 975 063e 2B050000 		.4byte	.LASF90
 976 0642 0B       		.byte	0xb
 977 0643 BA01     		.2byte	0x1ba
 978 0645 92020000 		.4byte	0x292
 979 0649 02       		.byte	0x2
 980 064a 23       		.byte	0x23
 981 064b 4C       		.uleb128 0x4c
 982 064c 16       		.uleb128 0x16
 983 064d 78010000 		.4byte	.LASF91
 984 0651 0B       		.byte	0xb
 985 0652 BE01     		.2byte	0x1be
 986 0654 92020000 		.4byte	0x292
 987 0658 02       		.byte	0x2
 988 0659 23       		.byte	0x23
 989 065a 50       		.uleb128 0x50
 990 065b 16       		.uleb128 0x16
 991 065c 64080000 		.4byte	.LASF92
 992 0660 0B       		.byte	0xb
 993 0661 C201     		.2byte	0x1c2
 994 0663 BE100000 		.4byte	0x10be
 995 0667 02       		.byte	0x2
 996 0668 23       		.byte	0x23
 997 0669 58       		.uleb128 0x58
 998 066a 00       		.byte	0
 999 066b 02       		.uleb128 0x2
 1000 066c 9B090000 		.4byte	.LASF93
 1001 0670 0A       		.byte	0xa
 1002 0671 D0       		.byte	0xd0
 1003 0672 95000000 		.4byte	0x95
 1004 0676 17       		.uleb128 0x17
 1005 0677 01       		.byte	0x1
 1006 0678 0A       		.byte	0xa
 1007 0679 D5       		.byte	0xd5
 1008 067a 9D060000 		.4byte	0x69d
 1009 067e 18       		.uleb128 0x18
 1010 067f 10070000 		.4byte	.LASF94
 1011 0683 00       		.sleb128 0
 1012 0684 18       		.uleb128 0x18
 1013 0685 BF060000 		.4byte	.LASF95
 1014 0689 01       		.sleb128 1
 1015 068a 18       		.uleb128 0x18
 1016 068b B2050000 		.4byte	.LASF96
 1017 068f 02       		.sleb128 2
 1018 0690 18       		.uleb128 0x18
ARM GAS  /tmp/ccIuhau9.s 			page 19


 1019 0691 85040000 		.4byte	.LASF97
 1020 0695 03       		.sleb128 3
 1021 0696 18       		.uleb128 0x18
 1022 0697 93000000 		.4byte	.LASF98
 1023 069b 04       		.sleb128 4
 1024 069c 00       		.byte	0
 1025 069d 02       		.uleb128 0x2
 1026 069e 41050000 		.4byte	.LASF99
 1027 06a2 0A       		.byte	0xa
 1028 06a3 DB       		.byte	0xdb
 1029 06a4 76060000 		.4byte	0x676
 1030 06a8 17       		.uleb128 0x17
 1031 06a9 01       		.byte	0x1
 1032 06aa 0A       		.byte	0xa
 1033 06ab E9       		.byte	0xe9
 1034 06ac D5060000 		.4byte	0x6d5
 1035 06b0 18       		.uleb128 0x18
 1036 06b1 96010000 		.4byte	.LASF100
 1037 06b5 00       		.sleb128 0
 1038 06b6 18       		.uleb128 0x18
 1039 06b7 6A000000 		.4byte	.LASF101
 1040 06bb 01       		.sleb128 1
 1041 06bc 18       		.uleb128 0x18
 1042 06bd 320A0000 		.4byte	.LASF102
 1043 06c1 02       		.sleb128 2
 1044 06c2 18       		.uleb128 0x18
 1045 06c3 6C0A0000 		.4byte	.LASF103
 1046 06c7 03       		.sleb128 3
 1047 06c8 18       		.uleb128 0x18
 1048 06c9 190A0000 		.4byte	.LASF104
 1049 06cd 04       		.sleb128 4
 1050 06ce 18       		.uleb128 0x18
 1051 06cf 52020000 		.4byte	.LASF105
 1052 06d3 05       		.sleb128 5
 1053 06d4 00       		.byte	0
 1054 06d5 02       		.uleb128 0x2
 1055 06d6 BE000000 		.4byte	.LASF106
 1056 06da 0A       		.byte	0xa
 1057 06db F0       		.byte	0xf0
 1058 06dc A8060000 		.4byte	0x6a8
 1059 06e0 17       		.uleb128 0x17
 1060 06e1 01       		.byte	0x1
 1061 06e2 0A       		.byte	0xa
 1062 06e3 F5       		.byte	0xf5
 1063 06e4 0D070000 		.4byte	0x70d
 1064 06e8 18       		.uleb128 0x18
 1065 06e9 8E080000 		.4byte	.LASF107
 1066 06ed 00       		.sleb128 0
 1067 06ee 18       		.uleb128 0x18
 1068 06ef F9000000 		.4byte	.LASF108
 1069 06f3 01       		.sleb128 1
 1070 06f4 18       		.uleb128 0x18
 1071 06f5 25080000 		.4byte	.LASF109
 1072 06f9 02       		.sleb128 2
 1073 06fa 18       		.uleb128 0x18
 1074 06fb B0090000 		.4byte	.LASF110
 1075 06ff 03       		.sleb128 3
ARM GAS  /tmp/ccIuhau9.s 			page 20


 1076 0700 18       		.uleb128 0x18
 1077 0701 7C050000 		.4byte	.LASF111
 1078 0705 04       		.sleb128 4
 1079 0706 18       		.uleb128 0x18
 1080 0707 F1010000 		.4byte	.LASF112
 1081 070b 05       		.sleb128 5
 1082 070c 00       		.byte	0
 1083 070d 02       		.uleb128 0x2
 1084 070e 69040000 		.4byte	.LASF113
 1085 0712 0A       		.byte	0xa
 1086 0713 FC       		.byte	0xfc
 1087 0714 E0060000 		.4byte	0x6e0
 1088 0718 19       		.uleb128 0x19
 1089 0719 08       		.byte	0x8
 1090 071a 0A       		.byte	0xa
 1091 071b 0101     		.2byte	0x101
 1092 071d 40070000 		.4byte	0x740
 1093 0721 16       		.uleb128 0x16
 1094 0722 7D040000 		.4byte	.LASF114
 1095 0726 0A       		.byte	0xa
 1096 0727 0501     		.2byte	0x105
 1097 0729 29000000 		.4byte	0x29
 1098 072d 02       		.byte	0x2
 1099 072e 23       		.byte	0x23
 1100 072f 00       		.uleb128 0
 1101 0730 16       		.uleb128 0x16
 1102 0731 7F030000 		.4byte	.LASF115
 1103 0735 0A       		.byte	0xa
 1104 0736 0901     		.2byte	0x109
 1105 0738 E6040000 		.4byte	0x4e6
 1106 073c 02       		.byte	0x2
 1107 073d 23       		.byte	0x23
 1108 073e 04       		.uleb128 0x4
 1109 073f 00       		.byte	0
 1110 0740 1A       		.uleb128 0x1a
 1111 0741 28040000 		.4byte	.LASF116
 1112 0745 0A       		.byte	0xa
 1113 0746 0A01     		.2byte	0x10a
 1114 0748 18070000 		.4byte	0x718
 1115 074c 1A       		.uleb128 0x1a
 1116 074d 07090000 		.4byte	.LASF117
 1117 0751 0A       		.byte	0xa
 1118 0752 1201     		.2byte	0x112
 1119 0754 58070000 		.4byte	0x758
 1120 0758 06       		.uleb128 0x6
 1121 0759 04       		.byte	0x4
 1122 075a 5E070000 		.4byte	0x75e
 1123 075e 11       		.uleb128 0x11
 1124 075f 01       		.byte	0x1
 1125 0760 6A070000 		.4byte	0x76a
 1126 0764 12       		.uleb128 0x12
 1127 0765 6A070000 		.4byte	0x76a
 1128 0769 00       		.byte	0
 1129 076a 06       		.uleb128 0x6
 1130 076b 04       		.byte	0x4
 1131 076c 16050000 		.4byte	0x516
 1132 0770 1A       		.uleb128 0x1a
ARM GAS  /tmp/ccIuhau9.s 			page 21


 1133 0771 E5050000 		.4byte	.LASF118
 1134 0775 0A       		.byte	0xa
 1135 0776 1B01     		.2byte	0x11b
 1136 0778 7C070000 		.4byte	0x77c
 1137 077c 06       		.uleb128 0x6
 1138 077d 04       		.byte	0x4
 1139 077e 82070000 		.4byte	0x782
 1140 0782 11       		.uleb128 0x11
 1141 0783 01       		.byte	0x1
 1142 0784 93070000 		.4byte	0x793
 1143 0788 12       		.uleb128 0x12
 1144 0789 6A070000 		.4byte	0x76a
 1145 078d 12       		.uleb128 0x12
 1146 078e 6B060000 		.4byte	0x66b
 1147 0792 00       		.byte	0
 1148 0793 1A       		.uleb128 0x1a
 1149 0794 AC030000 		.4byte	.LASF119
 1150 0798 0A       		.byte	0xa
 1151 0799 2401     		.2byte	0x124
 1152 079b 9F070000 		.4byte	0x79f
 1153 079f 06       		.uleb128 0x6
 1154 07a0 04       		.byte	0x4
 1155 07a1 A5070000 		.4byte	0x7a5
 1156 07a5 11       		.uleb128 0x11
 1157 07a6 01       		.byte	0x1
 1158 07a7 B6070000 		.4byte	0x7b6
 1159 07ab 12       		.uleb128 0x12
 1160 07ac 6A070000 		.4byte	0x76a
 1161 07b0 12       		.uleb128 0x12
 1162 07b1 0D070000 		.4byte	0x70d
 1163 07b5 00       		.byte	0
 1164 07b6 1A       		.uleb128 0x1a
 1165 07b7 EF080000 		.4byte	.LASF120
 1166 07bb 0A       		.byte	0xa
 1167 07bc 3001     		.2byte	0x130
 1168 07be C2070000 		.4byte	0x7c2
 1169 07c2 06       		.uleb128 0x6
 1170 07c3 04       		.byte	0x4
 1171 07c4 C8070000 		.4byte	0x7c8
 1172 07c8 1B       		.uleb128 0x1b
 1173 07c9 01       		.byte	0x1
 1174 07ca CC000000 		.4byte	0xcc
 1175 07ce D8070000 		.4byte	0x7d8
 1176 07d2 12       		.uleb128 0x12
 1177 07d3 6A070000 		.4byte	0x76a
 1178 07d7 00       		.byte	0
 1179 07d8 1A       		.uleb128 0x1a
 1180 07d9 51080000 		.4byte	.LASF121
 1181 07dd 0A       		.byte	0xa
 1182 07de 3501     		.2byte	0x135
 1183 07e0 E4070000 		.4byte	0x7e4
 1184 07e4 06       		.uleb128 0x6
 1185 07e5 04       		.byte	0x4
 1186 07e6 EA070000 		.4byte	0x7ea
 1187 07ea 1B       		.uleb128 0x1b
 1188 07eb 01       		.byte	0x1
 1189 07ec 09080000 		.4byte	0x809
ARM GAS  /tmp/ccIuhau9.s 			page 22


 1190 07f0 09080000 		.4byte	0x809
 1191 07f4 12       		.uleb128 0x12
 1192 07f5 6A070000 		.4byte	0x76a
 1193 07f9 12       		.uleb128 0x12
 1194 07fa 95000000 		.4byte	0x95
 1195 07fe 12       		.uleb128 0x12
 1196 07ff 95000000 		.4byte	0x95
 1197 0803 12       		.uleb128 0x12
 1198 0804 A0000000 		.4byte	0xa0
 1199 0808 00       		.byte	0
 1200 0809 06       		.uleb128 0x6
 1201 080a 04       		.byte	0x4
 1202 080b 0F080000 		.4byte	0x80f
 1203 080f 07       		.uleb128 0x7
 1204 0810 40070000 		.4byte	0x740
 1205 0814 0B       		.uleb128 0xb
 1206 0815 20       		.byte	0x20
 1207 0816 0C       		.byte	0xc
 1208 0817 39       		.byte	0x39
 1209 0818 8D080000 		.4byte	0x88d
 1210 081c 09       		.uleb128 0x9
 1211 081d 0C030000 		.4byte	.LASF122
 1212 0821 0C       		.byte	0xc
 1213 0822 3A       		.byte	0x3a
 1214 0823 8C030000 		.4byte	0x38c
 1215 0827 02       		.byte	0x2
 1216 0828 23       		.byte	0x23
 1217 0829 00       		.uleb128 0
 1218 082a 09       		.uleb128 0x9
 1219 082b 5C000000 		.4byte	.LASF123
 1220 082f 0C       		.byte	0xc
 1221 0830 3C       		.byte	0x3c
 1222 0831 8C030000 		.4byte	0x38c
 1223 0835 02       		.byte	0x2
 1224 0836 23       		.byte	0x23
 1225 0837 04       		.uleb128 0x4
 1226 0838 09       		.uleb128 0x9
 1227 0839 75070000 		.4byte	.LASF124
 1228 083d 0C       		.byte	0xc
 1229 083e 3D       		.byte	0x3d
 1230 083f 8C030000 		.4byte	0x38c
 1231 0843 02       		.byte	0x2
 1232 0844 23       		.byte	0x23
 1233 0845 08       		.uleb128 0x8
 1234 0846 09       		.uleb128 0x9
 1235 0847 C2070000 		.4byte	.LASF125
 1236 084b 0C       		.byte	0xc
 1237 084c 3E       		.byte	0x3e
 1238 084d 8C030000 		.4byte	0x38c
 1239 0851 02       		.byte	0x2
 1240 0852 23       		.byte	0x23
 1241 0853 0C       		.uleb128 0xc
 1242 0854 09       		.uleb128 0x9
 1243 0855 DB030000 		.4byte	.LASF126
 1244 0859 0C       		.byte	0xc
 1245 085a 40       		.byte	0x40
 1246 085b 8C030000 		.4byte	0x38c
ARM GAS  /tmp/ccIuhau9.s 			page 23


 1247 085f 02       		.byte	0x2
 1248 0860 23       		.byte	0x23
 1249 0861 10       		.uleb128 0x10
 1250 0862 09       		.uleb128 0x9
 1251 0863 9E080000 		.4byte	.LASF127
 1252 0867 0C       		.byte	0xc
 1253 0868 42       		.byte	0x42
 1254 0869 8C030000 		.4byte	0x38c
 1255 086d 02       		.byte	0x2
 1256 086e 23       		.byte	0x23
 1257 086f 14       		.uleb128 0x14
 1258 0870 09       		.uleb128 0x9
 1259 0871 A6080000 		.4byte	.LASF128
 1260 0875 0C       		.byte	0xc
 1261 0876 43       		.byte	0x43
 1262 0877 8C030000 		.4byte	0x38c
 1263 087b 02       		.byte	0x2
 1264 087c 23       		.byte	0x23
 1265 087d 18       		.uleb128 0x18
 1266 087e 09       		.uleb128 0x9
 1267 087f E7080000 		.4byte	.LASF129
 1268 0883 0C       		.byte	0xc
 1269 0884 44       		.byte	0x44
 1270 0885 8C030000 		.4byte	0x38c
 1271 0889 02       		.byte	0x2
 1272 088a 23       		.byte	0x23
 1273 088b 1C       		.uleb128 0x1c
 1274 088c 00       		.byte	0
 1275 088d 02       		.uleb128 0x2
 1276 088e B9030000 		.4byte	.LASF130
 1277 0892 0C       		.byte	0xc
 1278 0893 45       		.byte	0x45
 1279 0894 14080000 		.4byte	0x814
 1280 0898 0B       		.uleb128 0xb
 1281 0899 20       		.byte	0x20
 1282 089a 0C       		.byte	0xc
 1283 089b 4A       		.byte	0x4a
 1284 089c 11090000 		.4byte	0x911
 1285 08a0 09       		.uleb128 0x9
 1286 08a1 FF080000 		.4byte	.LASF131
 1287 08a5 0C       		.byte	0xc
 1288 08a6 4B       		.byte	0x4b
 1289 08a7 8C030000 		.4byte	0x38c
 1290 08ab 02       		.byte	0x2
 1291 08ac 23       		.byte	0x23
 1292 08ad 00       		.uleb128 0
 1293 08ae 09       		.uleb128 0x9
 1294 08af 55000000 		.4byte	.LASF132
 1295 08b3 0C       		.byte	0xc
 1296 08b4 4D       		.byte	0x4d
 1297 08b5 8C030000 		.4byte	0x38c
 1298 08b9 02       		.byte	0x2
 1299 08ba 23       		.byte	0x23
 1300 08bb 04       		.uleb128 0x4
 1301 08bc 09       		.uleb128 0x9
 1302 08bd 40090000 		.4byte	.LASF133
 1303 08c1 0C       		.byte	0xc
ARM GAS  /tmp/ccIuhau9.s 			page 24


 1304 08c2 4E       		.byte	0x4e
 1305 08c3 8C030000 		.4byte	0x38c
 1306 08c7 02       		.byte	0x2
 1307 08c8 23       		.byte	0x23
 1308 08c9 08       		.uleb128 0x8
 1309 08ca 09       		.uleb128 0x9
 1310 08cb 63000000 		.4byte	.LASF134
 1311 08cf 0C       		.byte	0xc
 1312 08d0 50       		.byte	0x50
 1313 08d1 8C030000 		.4byte	0x38c
 1314 08d5 02       		.byte	0x2
 1315 08d6 23       		.byte	0x23
 1316 08d7 0C       		.uleb128 0xc
 1317 08d8 09       		.uleb128 0x9
 1318 08d9 D1020000 		.4byte	.LASF135
 1319 08dd 0C       		.byte	0xc
 1320 08de 51       		.byte	0x51
 1321 08df 8C030000 		.4byte	0x38c
 1322 08e3 02       		.byte	0x2
 1323 08e4 23       		.byte	0x23
 1324 08e5 10       		.uleb128 0x10
 1325 08e6 09       		.uleb128 0x9
 1326 08e7 9E080000 		.4byte	.LASF127
 1327 08eb 0C       		.byte	0xc
 1328 08ec 53       		.byte	0x53
 1329 08ed 8C030000 		.4byte	0x38c
 1330 08f1 02       		.byte	0x2
 1331 08f2 23       		.byte	0x23
 1332 08f3 14       		.uleb128 0x14
 1333 08f4 09       		.uleb128 0x9
 1334 08f5 AE080000 		.4byte	.LASF136
 1335 08f9 0C       		.byte	0xc
 1336 08fa 54       		.byte	0x54
 1337 08fb 8C030000 		.4byte	0x38c
 1338 08ff 02       		.byte	0x2
 1339 0900 23       		.byte	0x23
 1340 0901 18       		.uleb128 0x18
 1341 0902 09       		.uleb128 0x9
 1342 0903 BE080000 		.4byte	.LASF137
 1343 0907 0C       		.byte	0xc
 1344 0908 56       		.byte	0x56
 1345 0909 8C030000 		.4byte	0x38c
 1346 090d 02       		.byte	0x2
 1347 090e 23       		.byte	0x23
 1348 090f 1C       		.uleb128 0x1c
 1349 0910 00       		.byte	0
 1350 0911 02       		.uleb128 0x2
 1351 0912 06080000 		.4byte	.LASF138
 1352 0916 0C       		.byte	0xc
 1353 0917 57       		.byte	0x57
 1354 0918 98080000 		.4byte	0x898
 1355 091c 0B       		.uleb128 0xb
 1356 091d 20       		.byte	0x20
 1357 091e 0C       		.byte	0xc
 1358 091f 5C       		.byte	0x5c
 1359 0920 95090000 		.4byte	0x995
 1360 0924 09       		.uleb128 0x9
ARM GAS  /tmp/ccIuhau9.s 			page 25


 1361 0925 B4010000 		.4byte	.LASF139
 1362 0929 0C       		.byte	0xc
 1363 092a 5D       		.byte	0x5d
 1364 092b 8C030000 		.4byte	0x38c
 1365 092f 02       		.byte	0x2
 1366 0930 23       		.byte	0x23
 1367 0931 00       		.uleb128 0
 1368 0932 09       		.uleb128 0x9
 1369 0933 55000000 		.4byte	.LASF132
 1370 0937 0C       		.byte	0xc
 1371 0938 5F       		.byte	0x5f
 1372 0939 8C030000 		.4byte	0x38c
 1373 093d 02       		.byte	0x2
 1374 093e 23       		.byte	0x23
 1375 093f 04       		.uleb128 0x4
 1376 0940 09       		.uleb128 0x9
 1377 0941 21020000 		.4byte	.LASF140
 1378 0945 0C       		.byte	0xc
 1379 0946 60       		.byte	0x60
 1380 0947 8C030000 		.4byte	0x38c
 1381 094b 02       		.byte	0x2
 1382 094c 23       		.byte	0x23
 1383 094d 08       		.uleb128 0x8
 1384 094e 09       		.uleb128 0x9
 1385 094f 63000000 		.4byte	.LASF134
 1386 0953 0C       		.byte	0xc
 1387 0954 62       		.byte	0x62
 1388 0955 8C030000 		.4byte	0x38c
 1389 0959 02       		.byte	0x2
 1390 095a 23       		.byte	0x23
 1391 095b 0C       		.uleb128 0xc
 1392 095c 09       		.uleb128 0x9
 1393 095d 30060000 		.4byte	.LASF141
 1394 0961 0C       		.byte	0xc
 1395 0962 63       		.byte	0x63
 1396 0963 8C030000 		.4byte	0x38c
 1397 0967 02       		.byte	0x2
 1398 0968 23       		.byte	0x23
 1399 0969 10       		.uleb128 0x10
 1400 096a 09       		.uleb128 0x9
 1401 096b 9E080000 		.4byte	.LASF127
 1402 096f 0C       		.byte	0xc
 1403 0970 65       		.byte	0x65
 1404 0971 8C030000 		.4byte	0x38c
 1405 0975 02       		.byte	0x2
 1406 0976 23       		.byte	0x23
 1407 0977 14       		.uleb128 0x14
 1408 0978 09       		.uleb128 0x9
 1409 0979 A6080000 		.4byte	.LASF128
 1410 097d 0C       		.byte	0xc
 1411 097e 66       		.byte	0x66
 1412 097f 8C030000 		.4byte	0x38c
 1413 0983 02       		.byte	0x2
 1414 0984 23       		.byte	0x23
 1415 0985 18       		.uleb128 0x18
 1416 0986 09       		.uleb128 0x9
 1417 0987 BE080000 		.4byte	.LASF137
ARM GAS  /tmp/ccIuhau9.s 			page 26


 1418 098b 0C       		.byte	0xc
 1419 098c 67       		.byte	0x67
 1420 098d 8C030000 		.4byte	0x38c
 1421 0991 02       		.byte	0x2
 1422 0992 23       		.byte	0x23
 1423 0993 1C       		.uleb128 0x1c
 1424 0994 00       		.byte	0
 1425 0995 02       		.uleb128 0x2
 1426 0996 13030000 		.4byte	.LASF142
 1427 099a 0C       		.byte	0xc
 1428 099b 68       		.byte	0x68
 1429 099c 1C090000 		.4byte	0x91c
 1430 09a0 1C       		.uleb128 0x1c
 1431 09a1 00100100 		.4byte	0x11000
 1432 09a5 0C       		.byte	0xc
 1433 09a6 6D       		.byte	0x6d
 1434 09a7 EF0C0000 		.4byte	0xcef
 1435 09ab 09       		.uleb128 0x9
 1436 09ac 55050000 		.4byte	.LASF143
 1437 09b0 0C       		.byte	0xc
 1438 09b1 6E       		.byte	0x6e
 1439 09b2 8C030000 		.4byte	0x38c
 1440 09b6 02       		.byte	0x2
 1441 09b7 23       		.byte	0x23
 1442 09b8 00       		.uleb128 0
 1443 09b9 09       		.uleb128 0x9
 1444 09ba DE070000 		.4byte	.LASF144
 1445 09be 0C       		.byte	0xc
 1446 09bf 6F       		.byte	0x6f
 1447 09c0 8C030000 		.4byte	0x38c
 1448 09c4 02       		.byte	0x2
 1449 09c5 23       		.byte	0x23
 1450 09c6 04       		.uleb128 0x4
 1451 09c7 09       		.uleb128 0x9
 1452 09c8 F3040000 		.4byte	.LASF145
 1453 09cc 0C       		.byte	0xc
 1454 09cd 70       		.byte	0x70
 1455 09ce 8C030000 		.4byte	0x38c
 1456 09d2 02       		.byte	0x2
 1457 09d3 23       		.byte	0x23
 1458 09d4 08       		.uleb128 0x8
 1459 09d5 09       		.uleb128 0x9
 1460 09d6 640A0000 		.4byte	.LASF146
 1461 09da 0C       		.byte	0xc
 1462 09db 71       		.byte	0x71
 1463 09dc 8C030000 		.4byte	0x38c
 1464 09e0 02       		.byte	0x2
 1465 09e1 23       		.byte	0x23
 1466 09e2 0C       		.uleb128 0xc
 1467 09e3 09       		.uleb128 0x9
 1468 09e4 61040000 		.4byte	.LASF147
 1469 09e8 0C       		.byte	0xc
 1470 09e9 72       		.byte	0x72
 1471 09ea 8C030000 		.4byte	0x38c
 1472 09ee 02       		.byte	0x2
 1473 09ef 23       		.byte	0x23
 1474 09f0 10       		.uleb128 0x10
ARM GAS  /tmp/ccIuhau9.s 			page 27


 1475 09f1 09       		.uleb128 0x9
 1476 09f2 1C090000 		.4byte	.LASF148
 1477 09f6 0C       		.byte	0xc
 1478 09f7 73       		.byte	0x73
 1479 09f8 8C030000 		.4byte	0x38c
 1480 09fc 02       		.byte	0x2
 1481 09fd 23       		.byte	0x23
 1482 09fe 14       		.uleb128 0x14
 1483 09ff 09       		.uleb128 0x9
 1484 0a00 D3060000 		.4byte	.LASF149
 1485 0a04 0C       		.byte	0xc
 1486 0a05 74       		.byte	0x74
 1487 0a06 8C030000 		.4byte	0x38c
 1488 0a0a 02       		.byte	0x2
 1489 0a0b 23       		.byte	0x23
 1490 0a0c 18       		.uleb128 0x18
 1491 0a0d 09       		.uleb128 0x9
 1492 0a0e 74050000 		.4byte	.LASF150
 1493 0a12 0C       		.byte	0xc
 1494 0a13 75       		.byte	0x75
 1495 0a14 8C030000 		.4byte	0x38c
 1496 0a18 02       		.byte	0x2
 1497 0a19 23       		.byte	0x23
 1498 0a1a 1C       		.uleb128 0x1c
 1499 0a1b 09       		.uleb128 0x9
 1500 0a1c 63050000 		.4byte	.LASF151
 1501 0a20 0C       		.byte	0xc
 1502 0a21 77       		.byte	0x77
 1503 0a22 8C030000 		.4byte	0x38c
 1504 0a26 02       		.byte	0x2
 1505 0a27 23       		.byte	0x23
 1506 0a28 20       		.uleb128 0x20
 1507 0a29 09       		.uleb128 0x9
 1508 0a2a A0040000 		.4byte	.LASF152
 1509 0a2e 0C       		.byte	0xc
 1510 0a2f 79       		.byte	0x79
 1511 0a30 8C030000 		.4byte	0x38c
 1512 0a34 02       		.byte	0x2
 1513 0a35 23       		.byte	0x23
 1514 0a36 24       		.uleb128 0x24
 1515 0a37 09       		.uleb128 0x9
 1516 0a38 0B010000 		.4byte	.LASF153
 1517 0a3c 0C       		.byte	0xc
 1518 0a3d 7A       		.byte	0x7a
 1519 0a3e 8C030000 		.4byte	0x38c
 1520 0a42 02       		.byte	0x2
 1521 0a43 23       		.byte	0x23
 1522 0a44 28       		.uleb128 0x28
 1523 0a45 09       		.uleb128 0x9
 1524 0a46 48090000 		.4byte	.LASF154
 1525 0a4a 0C       		.byte	0xc
 1526 0a4b 7C       		.byte	0x7c
 1527 0a4c 8C030000 		.4byte	0x38c
 1528 0a50 02       		.byte	0x2
 1529 0a51 23       		.byte	0x23
 1530 0a52 2C       		.uleb128 0x2c
 1531 0a53 09       		.uleb128 0x9
ARM GAS  /tmp/ccIuhau9.s 			page 28


 1532 0a54 6F090000 		.4byte	.LASF155
 1533 0a58 0C       		.byte	0xc
 1534 0a59 7E       		.byte	0x7e
 1535 0a5a 8C030000 		.4byte	0x38c
 1536 0a5e 02       		.byte	0x2
 1537 0a5f 23       		.byte	0x23
 1538 0a60 30       		.uleb128 0x30
 1539 0a61 09       		.uleb128 0x9
 1540 0a62 80090000 		.4byte	.LASF156
 1541 0a66 0C       		.byte	0xc
 1542 0a67 7F       		.byte	0x7f
 1543 0a68 8C030000 		.4byte	0x38c
 1544 0a6c 02       		.byte	0x2
 1545 0a6d 23       		.byte	0x23
 1546 0a6e 34       		.uleb128 0x34
 1547 0a6f 09       		.uleb128 0x9
 1548 0a70 B5020000 		.4byte	.LASF157
 1549 0a74 0C       		.byte	0xc
 1550 0a75 80       		.byte	0x80
 1551 0a76 8C030000 		.4byte	0x38c
 1552 0a7a 02       		.byte	0x2
 1553 0a7b 23       		.byte	0x23
 1554 0a7c 38       		.uleb128 0x38
 1555 0a7d 0A       		.uleb128 0xa
 1556 0a7e 43494400 		.ascii	"CID\000"
 1557 0a82 0C       		.byte	0xc
 1558 0a83 81       		.byte	0x81
 1559 0a84 8C030000 		.4byte	0x38c
 1560 0a88 02       		.byte	0x2
 1561 0a89 23       		.byte	0x23
 1562 0a8a 3C       		.uleb128 0x3c
 1563 0a8b 09       		.uleb128 0x9
 1564 0a8c 110A0000 		.4byte	.LASF158
 1565 0a90 0C       		.byte	0xc
 1566 0a91 82       		.byte	0x82
 1567 0a92 FF0C0000 		.4byte	0xcff
 1568 0a96 02       		.byte	0x2
 1569 0a97 23       		.byte	0x23
 1570 0a98 40       		.uleb128 0x40
 1571 0a99 09       		.uleb128 0x9
 1572 0a9a 5B070000 		.4byte	.LASF159
 1573 0a9e 0C       		.byte	0xc
 1574 0a9f 83       		.byte	0x83
 1575 0aa0 8C030000 		.4byte	0x38c
 1576 0aa4 03       		.byte	0x3
 1577 0aa5 23       		.byte	0x23
 1578 0aa6 8002     		.uleb128 0x100
 1579 0aa8 09       		.uleb128 0x9
 1580 0aa9 BB040000 		.4byte	.LASF160
 1581 0aad 0C       		.byte	0xc
 1582 0aae 85       		.byte	0x85
 1583 0aaf 040D0000 		.4byte	0xd04
 1584 0ab3 03       		.byte	0x3
 1585 0ab4 23       		.byte	0x23
 1586 0ab5 8402     		.uleb128 0x104
 1587 0ab7 09       		.uleb128 0x9
 1588 0ab8 770A0000 		.4byte	.LASF161
ARM GAS  /tmp/ccIuhau9.s 			page 29


 1589 0abc 0C       		.byte	0xc
 1590 0abd 87       		.byte	0x87
 1591 0abe 190D0000 		.4byte	0xd19
 1592 0ac2 03       		.byte	0x3
 1593 0ac3 23       		.byte	0x23
 1594 0ac4 C002     		.uleb128 0x140
 1595 0ac6 09       		.uleb128 0x9
 1596 0ac7 07030000 		.4byte	.LASF162
 1597 0acb 0C       		.byte	0xc
 1598 0acc 88       		.byte	0x88
 1599 0acd 8C030000 		.4byte	0x38c
 1600 0ad1 03       		.byte	0x3
 1601 0ad2 23       		.byte	0x23
 1602 0ad3 8008     		.uleb128 0x400
 1603 0ad5 09       		.uleb128 0x9
 1604 0ad6 2D0A0000 		.4byte	.LASF163
 1605 0ada 0C       		.byte	0xc
 1606 0adb 89       		.byte	0x89
 1607 0adc 8C030000 		.4byte	0x38c
 1608 0ae0 03       		.byte	0x3
 1609 0ae1 23       		.byte	0x23
 1610 0ae2 8408     		.uleb128 0x404
 1611 0ae4 09       		.uleb128 0x9
 1612 0ae5 A6030000 		.4byte	.LASF164
 1613 0ae9 0C       		.byte	0xc
 1614 0aea 8A       		.byte	0x8a
 1615 0aeb 8C030000 		.4byte	0x38c
 1616 0aef 03       		.byte	0x3
 1617 0af0 23       		.byte	0x23
 1618 0af1 8808     		.uleb128 0x408
 1619 0af3 09       		.uleb128 0x9
 1620 0af4 4C050000 		.4byte	.LASF165
 1621 0af8 0C       		.byte	0xc
 1622 0af9 8C       		.byte	0x8c
 1623 0afa 8C030000 		.4byte	0x38c
 1624 0afe 03       		.byte	0x3
 1625 0aff 23       		.byte	0x23
 1626 0b00 8C08     		.uleb128 0x40c
 1627 0b02 09       		.uleb128 0x9
 1628 0b03 090A0000 		.4byte	.LASF166
 1629 0b07 0C       		.byte	0xc
 1630 0b08 8D       		.byte	0x8d
 1631 0b09 8C030000 		.4byte	0x38c
 1632 0b0d 03       		.byte	0x3
 1633 0b0e 23       		.byte	0x23
 1634 0b0f 9008     		.uleb128 0x410
 1635 0b11 09       		.uleb128 0x9
 1636 0b12 39060000 		.4byte	.LASF167
 1637 0b16 0C       		.byte	0xc
 1638 0b17 8F       		.byte	0x8f
 1639 0b18 8C030000 		.4byte	0x38c
 1640 0b1c 03       		.byte	0x3
 1641 0b1d 23       		.byte	0x23
 1642 0b1e 9408     		.uleb128 0x414
 1643 0b20 09       		.uleb128 0x9
 1644 0b21 B6060000 		.4byte	.LASF168
 1645 0b25 0C       		.byte	0xc
ARM GAS  /tmp/ccIuhau9.s 			page 30


 1646 0b26 91       		.byte	0x91
 1647 0b27 8C030000 		.4byte	0x38c
 1648 0b2b 03       		.byte	0x3
 1649 0b2c 23       		.byte	0x23
 1650 0b2d 9808     		.uleb128 0x418
 1651 0b2f 09       		.uleb128 0x9
 1652 0b30 C4050000 		.4byte	.LASF169
 1653 0b34 0C       		.byte	0xc
 1654 0b35 93       		.byte	0x93
 1655 0b36 2E0D0000 		.4byte	0xd2e
 1656 0b3a 03       		.byte	0x3
 1657 0b3b 23       		.byte	0x23
 1658 0b3c 9C08     		.uleb128 0x41c
 1659 0b3e 09       		.uleb128 0x9
 1660 0b3f 4C030000 		.4byte	.LASF170
 1661 0b43 0C       		.byte	0xc
 1662 0b44 94       		.byte	0x94
 1663 0b45 8C030000 		.4byte	0x38c
 1664 0b49 03       		.byte	0x3
 1665 0b4a 23       		.byte	0x23
 1666 0b4b C008     		.uleb128 0x440
 1667 0b4d 09       		.uleb128 0x9
 1668 0b4e 9C060000 		.4byte	.LASF171
 1669 0b52 0C       		.byte	0xc
 1670 0b53 96       		.byte	0x96
 1671 0b54 430D0000 		.4byte	0xd43
 1672 0b58 03       		.byte	0x3
 1673 0b59 23       		.byte	0x23
 1674 0b5a C408     		.uleb128 0x444
 1675 0b5c 0A       		.uleb128 0xa
 1676 0b5d 686300   		.ascii	"hc\000"
 1677 0b60 0C       		.byte	0xc
 1678 0b61 97       		.byte	0x97
 1679 0b62 480D0000 		.4byte	0xd48
 1680 0b66 03       		.byte	0x3
 1681 0b67 23       		.byte	0x23
 1682 0b68 800A     		.uleb128 0x500
 1683 0b6a 09       		.uleb128 0x9
 1684 0b6b 75000000 		.4byte	.LASF172
 1685 0b6f 0C       		.byte	0xc
 1686 0b70 98       		.byte	0x98
 1687 0b71 680D0000 		.4byte	0xd68
 1688 0b75 03       		.byte	0x3
 1689 0b76 23       		.byte	0x23
 1690 0b77 800E     		.uleb128 0x700
 1691 0b79 09       		.uleb128 0x9
 1692 0b7a B0020000 		.4byte	.LASF173
 1693 0b7e 0C       		.byte	0xc
 1694 0b7f 99       		.byte	0x99
 1695 0b80 8C030000 		.4byte	0x38c
 1696 0b84 03       		.byte	0x3
 1697 0b85 23       		.byte	0x23
 1698 0b86 8010     		.uleb128 0x800
 1699 0b88 09       		.uleb128 0x9
 1700 0b89 88070000 		.4byte	.LASF174
 1701 0b8d 0C       		.byte	0xc
 1702 0b8e 9A       		.byte	0x9a
ARM GAS  /tmp/ccIuhau9.s 			page 31


 1703 0b8f 8C030000 		.4byte	0x38c
 1704 0b93 03       		.byte	0x3
 1705 0b94 23       		.byte	0x23
 1706 0b95 8410     		.uleb128 0x804
 1707 0b97 09       		.uleb128 0x9
 1708 0b98 DC090000 		.4byte	.LASF175
 1709 0b9c 0C       		.byte	0xc
 1710 0b9d 9B       		.byte	0x9b
 1711 0b9e 8C030000 		.4byte	0x38c
 1712 0ba2 03       		.byte	0x3
 1713 0ba3 23       		.byte	0x23
 1714 0ba4 8810     		.uleb128 0x808
 1715 0ba6 09       		.uleb128 0x9
 1716 0ba7 43030000 		.4byte	.LASF176
 1717 0bab 0C       		.byte	0xc
 1718 0bac 9C       		.byte	0x9c
 1719 0bad 8C030000 		.4byte	0x38c
 1720 0bb1 03       		.byte	0x3
 1721 0bb2 23       		.byte	0x23
 1722 0bb3 8C10     		.uleb128 0x80c
 1723 0bb5 09       		.uleb128 0x9
 1724 0bb6 C6080000 		.4byte	.LASF177
 1725 0bba 0C       		.byte	0xc
 1726 0bbb 9D       		.byte	0x9d
 1727 0bbc 8C030000 		.4byte	0x38c
 1728 0bc0 03       		.byte	0x3
 1729 0bc1 23       		.byte	0x23
 1730 0bc2 9010     		.uleb128 0x810
 1731 0bc4 09       		.uleb128 0x9
 1732 0bc5 AC010000 		.4byte	.LASF178
 1733 0bc9 0C       		.byte	0xc
 1734 0bca 9F       		.byte	0x9f
 1735 0bcb 8C030000 		.4byte	0x38c
 1736 0bcf 03       		.byte	0x3
 1737 0bd0 23       		.byte	0x23
 1738 0bd1 9410     		.uleb128 0x814
 1739 0bd3 09       		.uleb128 0x9
 1740 0bd4 90010000 		.4byte	.LASF179
 1741 0bd8 0C       		.byte	0xc
 1742 0bd9 A1       		.byte	0xa1
 1743 0bda 8C030000 		.4byte	0x38c
 1744 0bde 03       		.byte	0x3
 1745 0bdf 23       		.byte	0x23
 1746 0be0 9810     		.uleb128 0x818
 1747 0be2 09       		.uleb128 0x9
 1748 0be3 F4070000 		.4byte	.LASF180
 1749 0be7 0C       		.byte	0xc
 1750 0be8 A3       		.byte	0xa3
 1751 0be9 8C030000 		.4byte	0x38c
 1752 0bed 03       		.byte	0x3
 1753 0bee 23       		.byte	0x23
 1754 0bef 9C10     		.uleb128 0x81c
 1755 0bf1 09       		.uleb128 0x9
 1756 0bf2 F5030000 		.4byte	.LASF181
 1757 0bf6 0C       		.byte	0xc
 1758 0bf7 A5       		.byte	0xa5
 1759 0bf8 8C030000 		.4byte	0x38c
ARM GAS  /tmp/ccIuhau9.s 			page 32


 1760 0bfc 03       		.byte	0x3
 1761 0bfd 23       		.byte	0x23
 1762 0bfe A010     		.uleb128 0x820
 1763 0c00 09       		.uleb128 0x9
 1764 0c01 FE030000 		.4byte	.LASF182
 1765 0c05 0C       		.byte	0xc
 1766 0c06 A6       		.byte	0xa6
 1767 0c07 8C030000 		.4byte	0x38c
 1768 0c0b 03       		.byte	0x3
 1769 0c0c 23       		.byte	0x23
 1770 0c0d A410     		.uleb128 0x824
 1771 0c0f 09       		.uleb128 0x9
 1772 0c10 FD070000 		.4byte	.LASF183
 1773 0c14 0C       		.byte	0xc
 1774 0c15 A7       		.byte	0xa7
 1775 0c16 8C030000 		.4byte	0x38c
 1776 0c1a 03       		.byte	0x3
 1777 0c1b 23       		.byte	0x23
 1778 0c1c A810     		.uleb128 0x828
 1779 0c1e 09       		.uleb128 0x9
 1780 0c1f 07040000 		.4byte	.LASF184
 1781 0c23 0C       		.byte	0xc
 1782 0c24 A9       		.byte	0xa9
 1783 0c25 8C030000 		.4byte	0x38c
 1784 0c29 03       		.byte	0x3
 1785 0c2a 23       		.byte	0x23
 1786 0c2b AC10     		.uleb128 0x82c
 1787 0c2d 09       		.uleb128 0x9
 1788 0c2e DC050000 		.4byte	.LASF185
 1789 0c32 0C       		.byte	0xc
 1790 0c33 AB       		.byte	0xab
 1791 0c34 8C030000 		.4byte	0x38c
 1792 0c38 03       		.byte	0x3
 1793 0c39 23       		.byte	0x23
 1794 0c3a B010     		.uleb128 0x830
 1795 0c3c 09       		.uleb128 0x9
 1796 0c3d 1D040000 		.4byte	.LASF186
 1797 0c41 0C       		.byte	0xc
 1798 0c42 AC       		.byte	0xac
 1799 0c43 8C030000 		.4byte	0x38c
 1800 0c47 03       		.byte	0x3
 1801 0c48 23       		.byte	0x23
 1802 0c49 B410     		.uleb128 0x834
 1803 0c4b 09       		.uleb128 0x9
 1804 0c4c 74040000 		.4byte	.LASF187
 1805 0c50 0C       		.byte	0xc
 1806 0c51 AE       		.byte	0xae
 1807 0c52 8C030000 		.4byte	0x38c
 1808 0c56 03       		.byte	0x3
 1809 0c57 23       		.byte	0x23
 1810 0c58 B810     		.uleb128 0x838
 1811 0c5a 09       		.uleb128 0x9
 1812 0c5b 0B060000 		.4byte	.LASF188
 1813 0c5f 0C       		.byte	0xc
 1814 0c60 AF       		.byte	0xaf
 1815 0c61 8C030000 		.4byte	0x38c
 1816 0c65 03       		.byte	0x3
ARM GAS  /tmp/ccIuhau9.s 			page 33


 1817 0c66 23       		.byte	0x23
 1818 0c67 BC10     		.uleb128 0x83c
 1819 0c69 09       		.uleb128 0x9
 1820 0c6a B2040000 		.4byte	.LASF189
 1821 0c6e 0C       		.byte	0xc
 1822 0c6f B0       		.byte	0xb0
 1823 0c70 7D0D0000 		.4byte	0xd7d
 1824 0c74 03       		.byte	0x3
 1825 0c75 23       		.byte	0x23
 1826 0c76 C010     		.uleb128 0x840
 1827 0c78 09       		.uleb128 0x9
 1828 0c79 F5050000 		.4byte	.LASF190
 1829 0c7d 0C       		.byte	0xc
 1830 0c7e B1       		.byte	0xb1
 1831 0c7f 820D0000 		.4byte	0xd82
 1832 0c83 03       		.byte	0x3
 1833 0c84 23       		.byte	0x23
 1834 0c85 8011     		.uleb128 0x880
 1835 0c87 09       		.uleb128 0x9
 1836 0c88 77090000 		.4byte	.LASF191
 1837 0c8c 0C       		.byte	0xc
 1838 0c8d B2       		.byte	0xb2
 1839 0c8e 870D0000 		.4byte	0xd87
 1840 0c92 03       		.byte	0x3
 1841 0c93 23       		.byte	0x23
 1842 0c94 C011     		.uleb128 0x8c0
 1843 0c96 0A       		.uleb128 0xa
 1844 0c97 696500   		.ascii	"ie\000"
 1845 0c9a 0C       		.byte	0xc
 1846 0c9b B3       		.byte	0xb3
 1847 0c9c 8C0D0000 		.4byte	0xd8c
 1848 0ca0 03       		.byte	0x3
 1849 0ca1 23       		.byte	0x23
 1850 0ca2 8012     		.uleb128 0x900
 1851 0ca4 0A       		.uleb128 0xa
 1852 0ca5 6F6500   		.ascii	"oe\000"
 1853 0ca8 0C       		.byte	0xc
 1854 0ca9 B4       		.byte	0xb4
 1855 0caa 9C0D0000 		.4byte	0xd9c
 1856 0cae 03       		.byte	0x3
 1857 0caf 23       		.byte	0x23
 1858 0cb0 8016     		.uleb128 0xb00
 1859 0cb2 09       		.uleb128 0x9
 1860 0cb3 3B070000 		.4byte	.LASF192
 1861 0cb7 0C       		.byte	0xc
 1862 0cb8 B5       		.byte	0xb5
 1863 0cb9 AC0D0000 		.4byte	0xdac
 1864 0cbd 03       		.byte	0x3
 1865 0cbe 23       		.byte	0x23
 1866 0cbf 801A     		.uleb128 0xd00
 1867 0cc1 09       		.uleb128 0x9
 1868 0cc2 8D050000 		.4byte	.LASF193
 1869 0cc6 0C       		.byte	0xc
 1870 0cc7 B6       		.byte	0xb6
 1871 0cc8 8C030000 		.4byte	0x38c
 1872 0ccc 03       		.byte	0x3
 1873 0ccd 23       		.byte	0x23
ARM GAS  /tmp/ccIuhau9.s 			page 34


 1874 0cce 801C     		.uleb128 0xe00
 1875 0cd0 09       		.uleb128 0x9
 1876 0cd1 66090000 		.4byte	.LASF194
 1877 0cd5 0C       		.byte	0xc
 1878 0cd6 B8       		.byte	0xb8
 1879 0cd7 C10D0000 		.4byte	0xdc1
 1880 0cdb 03       		.byte	0x3
 1881 0cdc 23       		.byte	0x23
 1882 0cdd 841C     		.uleb128 0xe04
 1883 0cdf 09       		.uleb128 0x9
 1884 0ce0 3A080000 		.4byte	.LASF195
 1885 0ce4 0C       		.byte	0xc
 1886 0ce5 B9       		.byte	0xb9
 1887 0ce6 DD0D0000 		.4byte	0xddd
 1888 0cea 03       		.byte	0x3
 1889 0ceb 23       		.byte	0x23
 1890 0cec 8020     		.uleb128 0x1000
 1891 0cee 00       		.byte	0
 1892 0cef 13       		.uleb128 0x13
 1893 0cf0 B6000000 		.4byte	0xb6
 1894 0cf4 FF0C0000 		.4byte	0xcff
 1895 0cf8 14       		.uleb128 0x14
 1896 0cf9 75000000 		.4byte	0x75
 1897 0cfd 2F       		.byte	0x2f
 1898 0cfe 00       		.byte	0
 1899 0cff 0E       		.uleb128 0xe
 1900 0d00 EF0C0000 		.4byte	0xcef
 1901 0d04 0E       		.uleb128 0xe
 1902 0d05 01050000 		.4byte	0x501
 1903 0d09 13       		.uleb128 0x13
 1904 0d0a B6000000 		.4byte	0xb6
 1905 0d0e 190D0000 		.4byte	0xd19
 1906 0d12 14       		.uleb128 0x14
 1907 0d13 75000000 		.4byte	0x75
 1908 0d17 AF       		.byte	0xaf
 1909 0d18 00       		.byte	0
 1910 0d19 0E       		.uleb128 0xe
 1911 0d1a 090D0000 		.4byte	0xd09
 1912 0d1e 13       		.uleb128 0x13
 1913 0d1f B6000000 		.4byte	0xb6
 1914 0d23 2E0D0000 		.4byte	0xd2e
 1915 0d27 14       		.uleb128 0x14
 1916 0d28 75000000 		.4byte	0x75
 1917 0d2c 08       		.byte	0x8
 1918 0d2d 00       		.byte	0
 1919 0d2e 0E       		.uleb128 0xe
 1920 0d2f 1E0D0000 		.4byte	0xd1e
 1921 0d33 13       		.uleb128 0x13
 1922 0d34 B6000000 		.4byte	0xb6
 1923 0d38 430D0000 		.4byte	0xd43
 1924 0d3c 14       		.uleb128 0x14
 1925 0d3d 75000000 		.4byte	0x75
 1926 0d41 2E       		.byte	0x2e
 1927 0d42 00       		.byte	0
 1928 0d43 0E       		.uleb128 0xe
 1929 0d44 330D0000 		.4byte	0xd33
 1930 0d48 13       		.uleb128 0x13
ARM GAS  /tmp/ccIuhau9.s 			page 35


 1931 0d49 8D080000 		.4byte	0x88d
 1932 0d4d 580D0000 		.4byte	0xd58
 1933 0d51 14       		.uleb128 0x14
 1934 0d52 75000000 		.4byte	0x75
 1935 0d56 0F       		.byte	0xf
 1936 0d57 00       		.byte	0
 1937 0d58 13       		.uleb128 0x13
 1938 0d59 B6000000 		.4byte	0xb6
 1939 0d5d 680D0000 		.4byte	0xd68
 1940 0d61 14       		.uleb128 0x14
 1941 0d62 75000000 		.4byte	0x75
 1942 0d66 3F       		.byte	0x3f
 1943 0d67 00       		.byte	0
 1944 0d68 0E       		.uleb128 0xe
 1945 0d69 580D0000 		.4byte	0xd58
 1946 0d6d 13       		.uleb128 0x13
 1947 0d6e B6000000 		.4byte	0xb6
 1948 0d72 7D0D0000 		.4byte	0xd7d
 1949 0d76 14       		.uleb128 0x14
 1950 0d77 75000000 		.4byte	0x75
 1951 0d7b 0F       		.byte	0xf
 1952 0d7c 00       		.byte	0
 1953 0d7d 0E       		.uleb128 0xe
 1954 0d7e 6D0D0000 		.4byte	0xd6d
 1955 0d82 0E       		.uleb128 0xe
 1956 0d83 6D0D0000 		.4byte	0xd6d
 1957 0d87 0E       		.uleb128 0xe
 1958 0d88 6D0D0000 		.4byte	0xd6d
 1959 0d8c 13       		.uleb128 0x13
 1960 0d8d 11090000 		.4byte	0x911
 1961 0d91 9C0D0000 		.4byte	0xd9c
 1962 0d95 14       		.uleb128 0x14
 1963 0d96 75000000 		.4byte	0x75
 1964 0d9a 0F       		.byte	0xf
 1965 0d9b 00       		.byte	0
 1966 0d9c 13       		.uleb128 0x13
 1967 0d9d 95090000 		.4byte	0x995
 1968 0da1 AC0D0000 		.4byte	0xdac
 1969 0da5 14       		.uleb128 0x14
 1970 0da6 75000000 		.4byte	0x75
 1971 0daa 0F       		.byte	0xf
 1972 0dab 00       		.byte	0
 1973 0dac 0E       		.uleb128 0xe
 1974 0dad 580D0000 		.4byte	0xd58
 1975 0db1 13       		.uleb128 0x13
 1976 0db2 B6000000 		.4byte	0xb6
 1977 0db6 C10D0000 		.4byte	0xdc1
 1978 0dba 14       		.uleb128 0x14
 1979 0dbb 75000000 		.4byte	0x75
 1980 0dbf 7E       		.byte	0x7e
 1981 0dc0 00       		.byte	0
 1982 0dc1 0E       		.uleb128 0xe
 1983 0dc2 B10D0000 		.4byte	0xdb1
 1984 0dc6 13       		.uleb128 0x13
 1985 0dc7 B6000000 		.4byte	0xb6
 1986 0dcb DD0D0000 		.4byte	0xddd
 1987 0dcf 14       		.uleb128 0x14
ARM GAS  /tmp/ccIuhau9.s 			page 36


 1988 0dd0 75000000 		.4byte	0x75
 1989 0dd4 0F       		.byte	0xf
 1990 0dd5 1D       		.uleb128 0x1d
 1991 0dd6 75000000 		.4byte	0x75
 1992 0dda FF03     		.2byte	0x3ff
 1993 0ddc 00       		.byte	0
 1994 0ddd 0E       		.uleb128 0xe
 1995 0dde C60D0000 		.4byte	0xdc6
 1996 0de2 02       		.uleb128 0x2
 1997 0de3 68060000 		.4byte	.LASF196
 1998 0de7 0C       		.byte	0xc
 1999 0de8 BA       		.byte	0xba
 2000 0de9 A0090000 		.4byte	0x9a0
 2001 0ded 0B       		.uleb128 0xb
 2002 0dee 0C       		.byte	0xc
 2003 0def 0B       		.byte	0xb
 2004 0df0 C0       		.byte	0xc0
 2005 0df1 200E0000 		.4byte	0xe20
 2006 0df5 09       		.uleb128 0x9
 2007 0df6 40000000 		.4byte	.LASF197
 2008 0dfa 0B       		.byte	0xb
 2009 0dfb C1       		.byte	0xc1
 2010 0dfc B6000000 		.4byte	0xb6
 2011 0e00 02       		.byte	0x2
 2012 0e01 23       		.byte	0x23
 2013 0e02 00       		.uleb128 0
 2014 0e03 09       		.uleb128 0x9
 2015 0e04 18080000 		.4byte	.LASF198
 2016 0e08 0B       		.byte	0xb
 2017 0e09 C2       		.byte	0xc2
 2018 0e0a B6000000 		.4byte	0xb6
 2019 0e0e 02       		.byte	0x2
 2020 0e0f 23       		.byte	0x23
 2021 0e10 04       		.uleb128 0x4
 2022 0e11 09       		.uleb128 0x9
 2023 0e12 0E050000 		.4byte	.LASF199
 2024 0e16 0B       		.byte	0xb
 2025 0e17 C3       		.byte	0xc3
 2026 0e18 B6000000 		.4byte	0xb6
 2027 0e1c 02       		.byte	0x2
 2028 0e1d 23       		.byte	0x23
 2029 0e1e 08       		.uleb128 0x8
 2030 0e1f 00       		.byte	0
 2031 0e20 02       		.uleb128 0x2
 2032 0e21 36040000 		.4byte	.LASF200
 2033 0e25 0B       		.byte	0xb
 2034 0e26 C4       		.byte	0xc4
 2035 0e27 ED0D0000 		.4byte	0xded
 2036 0e2b 0B       		.uleb128 0xb
 2037 0e2c 04       		.byte	0x4
 2038 0e2d 0B       		.byte	0xb
 2039 0e2e D7       		.byte	0xd7
 2040 0e2f 420E0000 		.4byte	0xe42
 2041 0e33 09       		.uleb128 0x9
 2042 0e34 81010000 		.4byte	.LASF201
 2043 0e38 0B       		.byte	0xb
 2044 0e39 DB       		.byte	0xdb
ARM GAS  /tmp/ccIuhau9.s 			page 37


 2045 0e3a E6040000 		.4byte	0x4e6
 2046 0e3e 02       		.byte	0x2
 2047 0e3f 23       		.byte	0x23
 2048 0e40 00       		.uleb128 0
 2049 0e41 00       		.byte	0
 2050 0e42 0B       		.uleb128 0xb
 2051 0e43 04       		.byte	0x4
 2052 0e44 0B       		.byte	0xb
 2053 0e45 DD       		.byte	0xdd
 2054 0e46 590E0000 		.4byte	0xe59
 2055 0e4a 09       		.uleb128 0x9
 2056 0e4b B6080000 		.4byte	.LASF202
 2057 0e4f 0B       		.byte	0xb
 2058 0e50 E1       		.byte	0xe1
 2059 0e51 590E0000 		.4byte	0xe59
 2060 0e55 02       		.byte	0x2
 2061 0e56 23       		.byte	0x23
 2062 0e57 00       		.uleb128 0
 2063 0e58 00       		.byte	0
 2064 0e59 06       		.uleb128 0x6
 2065 0e5a 04       		.byte	0x4
 2066 0e5b DB040000 		.4byte	0x4db
 2067 0e5f 0F       		.uleb128 0xf
 2068 0e60 04       		.byte	0x4
 2069 0e61 0B       		.byte	0xb
 2070 0e62 D6       		.byte	0xd6
 2071 0e63 7E0E0000 		.4byte	0xe7e
 2072 0e67 10       		.uleb128 0x10
 2073 0e68 7B070000 		.4byte	.LASF203
 2074 0e6c 0B       		.byte	0xb
 2075 0e6d DC       		.byte	0xdc
 2076 0e6e 2B0E0000 		.4byte	0xe2b
 2077 0e72 10       		.uleb128 0x10
 2078 0e73 E6070000 		.4byte	.LASF204
 2079 0e77 0B       		.byte	0xb
 2080 0e78 E2       		.byte	0xe2
 2081 0e79 420E0000 		.4byte	0xe42
 2082 0e7d 00       		.byte	0
 2083 0e7e 0B       		.uleb128 0xb
 2084 0e7f 10       		.byte	0x10
 2085 0e80 0B       		.byte	0xb
 2086 0e81 C9       		.byte	0xc9
 2087 0e82 BF0E0000 		.4byte	0xebf
 2088 0e86 09       		.uleb128 0x9
 2089 0e87 5B0A0000 		.4byte	.LASF205
 2090 0e8b 0B       		.byte	0xb
 2091 0e8c CD       		.byte	0xcd
 2092 0e8d CC000000 		.4byte	0xcc
 2093 0e91 02       		.byte	0x2
 2094 0e92 23       		.byte	0x23
 2095 0e93 00       		.uleb128 0
 2096 0e94 09       		.uleb128 0x9
 2097 0e95 24050000 		.4byte	.LASF206
 2098 0e99 0B       		.byte	0xb
 2099 0e9a D1       		.byte	0xd1
 2100 0e9b 29000000 		.4byte	0x29
 2101 0e9f 02       		.byte	0x2
ARM GAS  /tmp/ccIuhau9.s 			page 38


 2102 0ea0 23       		.byte	0x23
 2103 0ea1 04       		.uleb128 0x4
 2104 0ea2 09       		.uleb128 0x9
 2105 0ea3 3D010000 		.4byte	.LASF207
 2106 0ea7 0B       		.byte	0xb
 2107 0ea8 D5       		.byte	0xd5
 2108 0ea9 29000000 		.4byte	0x29
 2109 0ead 02       		.byte	0x2
 2110 0eae 23       		.byte	0x23
 2111 0eaf 08       		.uleb128 0x8
 2112 0eb0 09       		.uleb128 0x9
 2113 0eb1 89080000 		.4byte	.LASF208
 2114 0eb5 0B       		.byte	0xb
 2115 0eb6 E3       		.byte	0xe3
 2116 0eb7 5F0E0000 		.4byte	0xe5f
 2117 0ebb 02       		.byte	0x2
 2118 0ebc 23       		.byte	0x23
 2119 0ebd 0C       		.uleb128 0xc
 2120 0ebe 00       		.byte	0
 2121 0ebf 02       		.uleb128 0x2
 2122 0ec0 E2030000 		.4byte	.LASF209
 2123 0ec4 0B       		.byte	0xb
 2124 0ec5 E4       		.byte	0xe4
 2125 0ec6 7E0E0000 		.4byte	0xe7e
 2126 0eca 0B       		.uleb128 0xb
 2127 0ecb 04       		.byte	0x4
 2128 0ecc 0B       		.byte	0xb
 2129 0ecd F7       		.byte	0xf7
 2130 0ece E10E0000 		.4byte	0xee1
 2131 0ed2 09       		.uleb128 0x9
 2132 0ed3 5D050000 		.4byte	.LASF210
 2133 0ed7 0B       		.byte	0xb
 2134 0ed8 FB       		.byte	0xfb
 2135 0ed9 CA040000 		.4byte	0x4ca
 2136 0edd 02       		.byte	0x2
 2137 0ede 23       		.byte	0x23
 2138 0edf 00       		.uleb128 0
 2139 0ee0 00       		.byte	0
 2140 0ee1 0B       		.uleb128 0xb
 2141 0ee2 04       		.byte	0x4
 2142 0ee3 0B       		.byte	0xb
 2143 0ee4 FD       		.byte	0xfd
 2144 0ee5 F90E0000 		.4byte	0xef9
 2145 0ee9 16       		.uleb128 0x16
 2146 0eea EC070000 		.4byte	.LASF211
 2147 0eee 0B       		.byte	0xb
 2148 0eef 0101     		.2byte	0x101
 2149 0ef1 F90E0000 		.4byte	0xef9
 2150 0ef5 02       		.byte	0x2
 2151 0ef6 23       		.byte	0x23
 2152 0ef7 00       		.uleb128 0
 2153 0ef8 00       		.byte	0
 2154 0ef9 06       		.uleb128 0x6
 2155 0efa 04       		.byte	0x4
 2156 0efb D0040000 		.4byte	0x4d0
 2157 0eff 0F       		.uleb128 0xf
 2158 0f00 04       		.byte	0x4
ARM GAS  /tmp/ccIuhau9.s 			page 39


 2159 0f01 0B       		.byte	0xb
 2160 0f02 F6       		.byte	0xf6
 2161 0f03 1F0F0000 		.4byte	0xf1f
 2162 0f07 10       		.uleb128 0x10
 2163 0f08 7B070000 		.4byte	.LASF203
 2164 0f0c 0B       		.byte	0xb
 2165 0f0d FC       		.byte	0xfc
 2166 0f0e CA0E0000 		.4byte	0xeca
 2167 0f12 1E       		.uleb128 0x1e
 2168 0f13 E6070000 		.4byte	.LASF204
 2169 0f17 0B       		.byte	0xb
 2170 0f18 0201     		.2byte	0x102
 2171 0f1a E10E0000 		.4byte	0xee1
 2172 0f1e 00       		.byte	0
 2173 0f1f 0B       		.uleb128 0xb
 2174 0f20 10       		.byte	0x10
 2175 0f21 0B       		.byte	0xb
 2176 0f22 E9       		.byte	0xe9
 2177 0f23 610F0000 		.4byte	0xf61
 2178 0f27 09       		.uleb128 0x9
 2179 0f28 CB070000 		.4byte	.LASF212
 2180 0f2c 0B       		.byte	0xb
 2181 0f2d ED       		.byte	0xed
 2182 0f2e CC000000 		.4byte	0xcc
 2183 0f32 02       		.byte	0x2
 2184 0f33 23       		.byte	0x23
 2185 0f34 00       		.uleb128 0
 2186 0f35 09       		.uleb128 0x9
 2187 0f36 3D020000 		.4byte	.LASF213
 2188 0f3a 0B       		.byte	0xb
 2189 0f3b F1       		.byte	0xf1
 2190 0f3c 29000000 		.4byte	0x29
 2191 0f40 02       		.byte	0x2
 2192 0f41 23       		.byte	0x23
 2193 0f42 04       		.uleb128 0x4
 2194 0f43 09       		.uleb128 0x9
 2195 0f44 3B050000 		.4byte	.LASF214
 2196 0f48 0B       		.byte	0xb
 2197 0f49 F5       		.byte	0xf5
 2198 0f4a 29000000 		.4byte	0x29
 2199 0f4e 02       		.byte	0x2
 2200 0f4f 23       		.byte	0x23
 2201 0f50 08       		.uleb128 0x8
 2202 0f51 16       		.uleb128 0x16
 2203 0f52 89080000 		.4byte	.LASF208
 2204 0f56 0B       		.byte	0xb
 2205 0f57 0301     		.2byte	0x103
 2206 0f59 FF0E0000 		.4byte	0xeff
 2207 0f5d 02       		.byte	0x2
 2208 0f5e 23       		.byte	0x23
 2209 0f5f 0C       		.uleb128 0xc
 2210 0f60 00       		.byte	0
 2211 0f61 1A       		.uleb128 0x1a
 2212 0f62 1B070000 		.4byte	.LASF215
 2213 0f66 0B       		.byte	0xb
 2214 0f67 0401     		.2byte	0x104
 2215 0f69 1F0F0000 		.4byte	0xf1f
ARM GAS  /tmp/ccIuhau9.s 			page 40


 2216 0f6d 19       		.uleb128 0x19
 2217 0f6e 24       		.byte	0x24
 2218 0f6f 0B       		.byte	0xb
 2219 0f70 0A01     		.2byte	0x10a
 2220 0f72 0D100000 		.4byte	0x100d
 2221 0f76 16       		.uleb128 0x16
 2222 0f77 8B000000 		.4byte	.LASF216
 2223 0f7b 0B       		.byte	0xb
 2224 0f7c 0E01     		.2byte	0x10e
 2225 0f7e B6000000 		.4byte	0xb6
 2226 0f82 02       		.byte	0x2
 2227 0f83 23       		.byte	0x23
 2228 0f84 00       		.uleb128 0
 2229 0f85 16       		.uleb128 0x16
 2230 0f86 76030000 		.4byte	.LASF217
 2231 0f8a 0B       		.byte	0xb
 2232 0f8b 1901     		.2byte	0x119
 2233 0f8d 70070000 		.4byte	0x770
 2234 0f91 02       		.byte	0x2
 2235 0f92 23       		.byte	0x23
 2236 0f93 04       		.uleb128 0x4
 2237 0f94 16       		.uleb128 0x16
 2238 0f95 89030000 		.4byte	.LASF218
 2239 0f99 0B       		.byte	0xb
 2240 0f9a 1F01     		.2byte	0x11f
 2241 0f9c 70070000 		.4byte	0x770
 2242 0fa0 02       		.byte	0x2
 2243 0fa1 23       		.byte	0x23
 2244 0fa2 08       		.uleb128 0x8
 2245 0fa3 16       		.uleb128 0x16
 2246 0fa4 A5060000 		.4byte	.LASF219
 2247 0fa8 0B       		.byte	0xb
 2248 0fa9 2501     		.2byte	0x125
 2249 0fab 70070000 		.4byte	0x770
 2250 0faf 02       		.byte	0x2
 2251 0fb0 23       		.byte	0x23
 2252 0fb1 0C       		.uleb128 0xc
 2253 0fb2 16       		.uleb128 0x16
 2254 0fb3 C8060000 		.4byte	.LASF220
 2255 0fb7 0B       		.byte	0xb
 2256 0fb8 2B01     		.2byte	0x12b
 2257 0fba A0000000 		.4byte	0xa0
 2258 0fbe 02       		.byte	0x2
 2259 0fbf 23       		.byte	0x23
 2260 0fc0 10       		.uleb128 0x10
 2261 0fc1 16       		.uleb128 0x16
 2262 0fc2 62010000 		.4byte	.LASF221
 2263 0fc6 0B       		.byte	0xb
 2264 0fc7 3101     		.2byte	0x131
 2265 0fc9 A0000000 		.4byte	0xa0
 2266 0fcd 02       		.byte	0x2
 2267 0fce 23       		.byte	0x23
 2268 0fcf 12       		.uleb128 0x12
 2269 0fd0 16       		.uleb128 0x16
 2270 0fd1 6B050000 		.4byte	.LASF222
 2271 0fd5 0B       		.byte	0xb
 2272 0fd6 3601     		.2byte	0x136
ARM GAS  /tmp/ccIuhau9.s 			page 41


 2273 0fd8 0D100000 		.4byte	0x100d
 2274 0fdc 02       		.byte	0x2
 2275 0fdd 23       		.byte	0x23
 2276 0fde 14       		.uleb128 0x14
 2277 0fdf 16       		.uleb128 0x16
 2278 0fe0 E2060000 		.4byte	.LASF223
 2279 0fe4 0B       		.byte	0xb
 2280 0fe5 3B01     		.2byte	0x13b
 2281 0fe7 13100000 		.4byte	0x1013
 2282 0feb 02       		.byte	0x2
 2283 0fec 23       		.byte	0x23
 2284 0fed 18       		.uleb128 0x18
 2285 0fee 16       		.uleb128 0x16
 2286 0fef FB040000 		.4byte	.LASF224
 2287 0ff3 0B       		.byte	0xb
 2288 0ff4 4201     		.2byte	0x142
 2289 0ff6 A0000000 		.4byte	0xa0
 2290 0ffa 02       		.byte	0x2
 2291 0ffb 23       		.byte	0x23
 2292 0ffc 1C       		.uleb128 0x1c
 2293 0ffd 16       		.uleb128 0x16
 2294 0ffe 7B060000 		.4byte	.LASF225
 2295 1002 0B       		.byte	0xb
 2296 1003 4801     		.2byte	0x148
 2297 1005 CA040000 		.4byte	0x4ca
 2298 1009 02       		.byte	0x2
 2299 100a 23       		.byte	0x23
 2300 100b 20       		.uleb128 0x20
 2301 100c 00       		.byte	0
 2302 100d 06       		.uleb128 0x6
 2303 100e 04       		.byte	0x4
 2304 100f BF0E0000 		.4byte	0xebf
 2305 1013 06       		.uleb128 0x6
 2306 1014 04       		.byte	0x4
 2307 1015 610F0000 		.4byte	0xf61
 2308 1019 1A       		.uleb128 0x1a
 2309 101a 8D070000 		.4byte	.LASF226
 2310 101e 0B       		.byte	0xb
 2311 101f 4901     		.2byte	0x149
 2312 1021 6D0F0000 		.4byte	0xf6d
 2313 1025 19       		.uleb128 0x19
 2314 1026 10       		.byte	0x10
 2315 1027 0B       		.byte	0xb
 2316 1028 4E01     		.2byte	0x14e
 2317 102a 6B100000 		.4byte	0x106b
 2318 102e 16       		.uleb128 0x16
 2319 102f 95050000 		.4byte	.LASF227
 2320 1033 0B       		.byte	0xb
 2321 1034 5301     		.2byte	0x153
 2322 1036 93070000 		.4byte	0x793
 2323 103a 02       		.byte	0x2
 2324 103b 23       		.byte	0x23
 2325 103c 00       		.uleb128 0
 2326 103d 16       		.uleb128 0x16
 2327 103e E1090000 		.4byte	.LASF228
 2328 1042 0B       		.byte	0xb
 2329 1043 5801     		.2byte	0x158
ARM GAS  /tmp/ccIuhau9.s 			page 42


 2330 1045 D8070000 		.4byte	0x7d8
 2331 1049 02       		.byte	0x2
 2332 104a 23       		.byte	0x23
 2333 104b 04       		.uleb128 0x4
 2334 104c 16       		.uleb128 0x16
 2335 104d DA020000 		.4byte	.LASF229
 2336 1051 0B       		.byte	0xb
 2337 1052 5E01     		.2byte	0x15e
 2338 1054 B6070000 		.4byte	0x7b6
 2339 1058 02       		.byte	0x2
 2340 1059 23       		.byte	0x23
 2341 105a 08       		.uleb128 0x8
 2342 105b 16       		.uleb128 0x16
 2343 105c 5F090000 		.4byte	.LASF230
 2344 1060 0B       		.byte	0xb
 2345 1061 6201     		.2byte	0x162
 2346 1063 4C070000 		.4byte	0x74c
 2347 1067 02       		.byte	0x2
 2348 1068 23       		.byte	0x23
 2349 1069 0C       		.uleb128 0xc
 2350 106a 00       		.byte	0
 2351 106b 1A       		.uleb128 0x1a
 2352 106c 4C060000 		.4byte	.LASF231
 2353 1070 0B       		.byte	0xb
 2354 1071 6401     		.2byte	0x164
 2355 1073 25100000 		.4byte	0x1025
 2356 1077 06       		.uleb128 0x6
 2357 1078 04       		.byte	0x4
 2358 1079 7D100000 		.4byte	0x107d
 2359 107d 07       		.uleb128 0x7
 2360 107e 6B100000 		.4byte	0x106b
 2361 1082 13       		.uleb128 0x13
 2362 1083 92100000 		.4byte	0x1092
 2363 1087 92100000 		.4byte	0x1092
 2364 108b 14       		.uleb128 0x14
 2365 108c 75000000 		.4byte	0x75
 2366 1090 03       		.byte	0x3
 2367 1091 00       		.byte	0
 2368 1092 06       		.uleb128 0x6
 2369 1093 04       		.byte	0x4
 2370 1094 98100000 		.4byte	0x1098
 2371 1098 07       		.uleb128 0x7
 2372 1099 19100000 		.4byte	0x1019
 2373 109d 13       		.uleb128 0x13
 2374 109e 95000000 		.4byte	0x95
 2375 10a2 AD100000 		.4byte	0x10ad
 2376 10a6 14       		.uleb128 0x14
 2377 10a7 75000000 		.4byte	0x75
 2378 10ab 07       		.byte	0x7
 2379 10ac 00       		.byte	0
 2380 10ad 06       		.uleb128 0x6
 2381 10ae 04       		.byte	0x4
 2382 10af E20D0000 		.4byte	0xde2
 2383 10b3 06       		.uleb128 0x6
 2384 10b4 04       		.byte	0x4
 2385 10b5 B9100000 		.4byte	0x10b9
 2386 10b9 07       		.uleb128 0x7
ARM GAS  /tmp/ccIuhau9.s 			page 43


 2387 10ba 200E0000 		.4byte	0xe20
 2388 10be 13       		.uleb128 0x13
 2389 10bf D0020000 		.4byte	0x2d0
 2390 10c3 CE100000 		.4byte	0x10ce
 2391 10c7 14       		.uleb128 0x14
 2392 10c8 75000000 		.4byte	0x75
 2393 10cc 25       		.byte	0x25
 2394 10cd 00       		.byte	0
 2395 10ce 13       		.uleb128 0x13
 2396 10cf 95000000 		.4byte	0x95
 2397 10d3 DE100000 		.4byte	0x10de
 2398 10d7 14       		.uleb128 0x14
 2399 10d8 75000000 		.4byte	0x75
 2400 10dc FF       		.byte	0xff
 2401 10dd 00       		.byte	0
 2402 10de 1F       		.uleb128 0x1f
 2403 10df 01       		.byte	0x1
 2404 10e0 5D010000 		.4byte	.LASF256
 2405 10e4 01       		.byte	0x1
 2406 10e5 13       		.byte	0x13
 2407 10e6 01       		.byte	0x1
 2408 10e7 59000000 		.4byte	0x59
 2409 10eb 00000000 		.4byte	.LFB118
 2410 10ef 40000000 		.4byte	.LFE118
 2411 10f3 00000000 		.4byte	.LLST0
 2412 10f7 01       		.byte	0x1
 2413 10f8 43110000 		.4byte	0x1143
 2414 10fc 20       		.uleb128 0x20
 2415 10fd 6900     		.ascii	"i\000"
 2416 10ff 01       		.byte	0x1
 2417 1100 28       		.byte	0x28
 2418 1101 A0000000 		.4byte	0xa0
 2419 1105 20000000 		.4byte	.LLST1
 2420 1109 21       		.uleb128 0x21
 2421 110a 06000000 		.4byte	.LVL0
 2422 110e CF120000 		.4byte	0x12cf
 2423 1112 21       		.uleb128 0x21
 2424 1113 0A000000 		.4byte	.LVL1
 2425 1117 D9120000 		.4byte	0x12d9
 2426 111b 21       		.uleb128 0x21
 2427 111c 0E000000 		.4byte	.LVL2
 2428 1120 E3120000 		.4byte	0x12e3
 2429 1124 22       		.uleb128 0x22
 2430 1125 2C000000 		.4byte	.LVL4
 2431 1129 ED120000 		.4byte	0x12ed
 2432 112d 39110000 		.4byte	0x1139
 2433 1131 23       		.uleb128 0x23
 2434 1132 01       		.byte	0x1
 2435 1133 50       		.byte	0x50
 2436 1134 03       		.byte	0x3
 2437 1135 0A       		.byte	0xa
 2438 1136 E803     		.2byte	0x3e8
 2439 1138 00       		.byte	0
 2440 1139 21       		.uleb128 0x21
 2441 113a 36000000 		.4byte	.LVL5
 2442 113e 02130000 		.4byte	0x1302
 2443 1142 00       		.byte	0
ARM GAS  /tmp/ccIuhau9.s 			page 44


 2444 1143 13       		.uleb128 0x13
 2445 1144 95000000 		.4byte	0x95
 2446 1148 53110000 		.4byte	0x1153
 2447 114c 14       		.uleb128 0x14
 2448 114d 75000000 		.4byte	0x75
 2449 1151 11       		.byte	0x11
 2450 1152 00       		.byte	0
 2451 1153 24       		.uleb128 0x24
 2452 1154 24090000 		.4byte	.LASF232
 2453 1158 0D       		.byte	0xd
 2454 1159 10       		.byte	0x10
 2455 115a 5E110000 		.4byte	0x115e
 2456 115e 07       		.uleb128 0x7
 2457 115f 43110000 		.4byte	0x1143
 2458 1163 24       		.uleb128 0x24
 2459 1164 D9000000 		.4byte	.LASF233
 2460 1168 0D       		.byte	0xd
 2461 1169 26       		.byte	0x26
 2462 116a 0F080000 		.4byte	0x80f
 2463 116e 13       		.uleb128 0x13
 2464 116f 95000000 		.4byte	0x95
 2465 1173 7E110000 		.4byte	0x117e
 2466 1177 14       		.uleb128 0x14
 2467 1178 75000000 		.4byte	0x75
 2468 117c 1F       		.byte	0x1f
 2469 117d 00       		.byte	0
 2470 117e 24       		.uleb128 0x24
 2471 117f 9F070000 		.4byte	.LASF234
 2472 1183 0D       		.byte	0xd
 2473 1184 33       		.byte	0x33
 2474 1185 89110000 		.4byte	0x1189
 2475 1189 07       		.uleb128 0x7
 2476 118a 6E110000 		.4byte	0x116e
 2477 118e 24       		.uleb128 0x24
 2478 118f 03020000 		.4byte	.LASF235
 2479 1193 0D       		.byte	0xd
 2480 1194 56       		.byte	0x56
 2481 1195 0F080000 		.4byte	0x80f
 2482 1199 13       		.uleb128 0x13
 2483 119a 95000000 		.4byte	0x95
 2484 119e A9110000 		.4byte	0x11a9
 2485 11a2 14       		.uleb128 0x14
 2486 11a3 75000000 		.4byte	0x75
 2487 11a7 03       		.byte	0x3
 2488 11a8 00       		.byte	0
 2489 11a9 24       		.uleb128 0x24
 2490 11aa EC060000 		.4byte	.LASF236
 2491 11ae 0D       		.byte	0xd
 2492 11af 5E       		.byte	0x5e
 2493 11b0 B4110000 		.4byte	0x11b4
 2494 11b4 07       		.uleb128 0x7
 2495 11b5 99110000 		.4byte	0x1199
 2496 11b9 13       		.uleb128 0x13
 2497 11ba 95000000 		.4byte	0x95
 2498 11be C9110000 		.4byte	0x11c9
 2499 11c2 14       		.uleb128 0x14
 2500 11c3 75000000 		.4byte	0x75
ARM GAS  /tmp/ccIuhau9.s 			page 45


 2501 11c7 25       		.byte	0x25
 2502 11c8 00       		.byte	0
 2503 11c9 24       		.uleb128 0x24
 2504 11ca C4020000 		.4byte	.LASF237
 2505 11ce 0D       		.byte	0xd
 2506 11cf 67       		.byte	0x67
 2507 11d0 D4110000 		.4byte	0x11d4
 2508 11d4 07       		.uleb128 0x7
 2509 11d5 B9110000 		.4byte	0x11b9
 2510 11d9 13       		.uleb128 0x13
 2511 11da 95000000 		.4byte	0x95
 2512 11de E9110000 		.4byte	0x11e9
 2513 11e2 14       		.uleb128 0x14
 2514 11e3 75000000 		.4byte	0x75
 2515 11e7 2F       		.byte	0x2f
 2516 11e8 00       		.byte	0
 2517 11e9 24       		.uleb128 0x24
 2518 11ea BC010000 		.4byte	.LASF238
 2519 11ee 0D       		.byte	0xd
 2520 11ef 72       		.byte	0x72
 2521 11f0 F4110000 		.4byte	0x11f4
 2522 11f4 07       		.uleb128 0x7
 2523 11f5 D9110000 		.4byte	0x11d9
 2524 11f9 24       		.uleb128 0x24
 2525 11fa 2B030000 		.4byte	.LASF239
 2526 11fe 0D       		.byte	0xd
 2527 11ff 7D       		.byte	0x7d
 2528 1200 04120000 		.4byte	0x1204
 2529 1204 07       		.uleb128 0x7
 2530 1205 F1040000 		.4byte	0x4f1
 2531 1209 13       		.uleb128 0x13
 2532 120a 95000000 		.4byte	0x95
 2533 120e 19120000 		.4byte	0x1219
 2534 1212 14       		.uleb128 0x14
 2535 1213 75000000 		.4byte	0x75
 2536 1217 21       		.byte	0x21
 2537 1218 00       		.byte	0
 2538 1219 24       		.uleb128 0x24
 2539 121a 9E000000 		.4byte	.LASF240
 2540 121e 0D       		.byte	0xd
 2541 121f 88       		.byte	0x88
 2542 1220 24120000 		.4byte	0x1224
 2543 1224 07       		.uleb128 0x7
 2544 1225 09120000 		.4byte	0x1209
 2545 1229 13       		.uleb128 0x13
 2546 122a 40070000 		.4byte	0x740
 2547 122e 39120000 		.4byte	0x1239
 2548 1232 14       		.uleb128 0x14
 2549 1233 75000000 		.4byte	0x75
 2550 1237 04       		.byte	0x4
 2551 1238 00       		.byte	0
 2552 1239 24       		.uleb128 0x24
 2553 123a 20000000 		.4byte	.LASF241
 2554 123e 0D       		.byte	0xd
 2555 123f 92       		.byte	0x92
 2556 1240 44120000 		.4byte	0x1244
 2557 1244 07       		.uleb128 0x7
ARM GAS  /tmp/ccIuhau9.s 			page 46


 2558 1245 29120000 		.4byte	0x1229
 2559 1249 25       		.uleb128 0x25
 2560 124a FE050000 		.4byte	.LASF242
 2561 124e 0E       		.byte	0xe
 2562 124f 9806     		.2byte	0x698
 2563 1251 11050000 		.4byte	0x511
 2564 1255 01       		.byte	0x1
 2565 1256 01       		.byte	0x1
 2566 1257 25       		.uleb128 0x25
 2567 1258 51090000 		.4byte	.LASF243
 2568 125c 0B       		.byte	0xb
 2569 125d ED01     		.2byte	0x1ed
 2570 125f 16050000 		.4byte	0x516
 2571 1263 01       		.byte	0x1
 2572 1264 01       		.byte	0x1
 2573 1265 13       		.uleb128 0x13
 2574 1266 95000000 		.4byte	0x95
 2575 126a 75120000 		.4byte	0x1275
 2576 126e 14       		.uleb128 0x14
 2577 126f 75000000 		.4byte	0x75
 2578 1273 3F       		.byte	0x3f
 2579 1274 00       		.byte	0
 2580 1275 26       		.uleb128 0x26
 2581 1276 85060000 		.4byte	.LASF244
 2582 127a 0D       		.byte	0xd
 2583 127b 9B       		.byte	0x9b
 2584 127c 65120000 		.4byte	0x1265
 2585 1280 01       		.byte	0x1
 2586 1281 05       		.byte	0x5
 2587 1282 03       		.byte	0x3
 2588 1283 00000000 		.4byte	receiveBuf
 2589 1287 26       		.uleb128 0x26
 2590 1288 2F070000 		.4byte	.LASF245
 2591 128c 0D       		.byte	0xd
 2592 128d 9D       		.byte	0x9d
 2593 128e CE100000 		.4byte	0x10ce
 2594 1292 01       		.byte	0x1
 2595 1293 05       		.byte	0x5
 2596 1294 03       		.byte	0x3
 2597 1295 00000000 		.4byte	transferBuf
 2598 1299 26       		.uleb128 0x26
 2599 129a 09050000 		.4byte	.LASF246
 2600 129e 0D       		.byte	0xd
 2601 129f 9F       		.byte	0x9f
 2602 12a0 6A070000 		.4byte	0x76a
 2603 12a4 01       		.byte	0x1
 2604 12a5 05       		.byte	0x5
 2605 12a6 03       		.byte	0x3
 2606 12a7 00000000 		.4byte	usbp
 2607 12ab 26       		.uleb128 0x26
 2608 12ac D8080000 		.4byte	.LASF247
 2609 12b0 0D       		.byte	0xd
 2610 12b1 A0       		.byte	0xa0
 2611 12b2 95000000 		.4byte	0x95
 2612 12b6 01       		.byte	0x1
 2613 12b7 05       		.byte	0x5
 2614 12b8 03       		.byte	0x3
ARM GAS  /tmp/ccIuhau9.s 			page 47


 2615 12b9 00000000 		.4byte	initUSB
 2616 12bd 26       		.uleb128 0x26
 2617 12be CE080000 		.4byte	.LASF248
 2618 12c2 0D       		.byte	0xd
 2619 12c3 A1       		.byte	0xa1
 2620 12c4 95000000 		.4byte	0x95
 2621 12c8 01       		.byte	0x1
 2622 12c9 05       		.byte	0x5
 2623 12ca 03       		.byte	0x3
 2624 12cb 00000000 		.4byte	usbStatus
 2625 12cf 27       		.uleb128 0x27
 2626 12d0 01       		.byte	0x1
 2627 12d1 33050000 		.4byte	.LASF249
 2628 12d5 0F       		.byte	0xf
 2629 12d6 C8       		.byte	0xc8
 2630 12d7 01       		.byte	0x1
 2631 12d8 01       		.byte	0x1
 2632 12d9 27       		.uleb128 0x27
 2633 12da 01       		.byte	0x1
 2634 12db 88090000 		.4byte	.LASF250
 2635 12df 10       		.byte	0x10
 2636 12e0 EF       		.byte	0xef
 2637 12e1 01       		.byte	0x1
 2638 12e2 01       		.byte	0x1
 2639 12e3 27       		.uleb128 0x27
 2640 12e4 01       		.byte	0x1
 2641 12e5 43010000 		.4byte	.LASF251
 2642 12e9 0D       		.byte	0xd
 2643 12ea A3       		.byte	0xa3
 2644 12eb 01       		.byte	0x1
 2645 12ec 01       		.byte	0x1
 2646 12ed 28       		.uleb128 0x28
 2647 12ee 01       		.byte	0x1
 2648 12ef 12040000 		.4byte	.LASF257
 2649 12f3 06       		.byte	0x6
 2650 12f4 6901     		.2byte	0x169
 2651 12f6 01       		.byte	0x1
 2652 12f7 01       		.byte	0x1
 2653 12f8 02130000 		.4byte	0x1302
 2654 12fc 12       		.uleb128 0x12
 2655 12fd 24010000 		.4byte	0x124
 2656 1301 00       		.byte	0
 2657 1302 27       		.uleb128 0x27
 2658 1303 01       		.byte	0x1
 2659 1304 6C080000 		.4byte	.LASF252
 2660 1308 0D       		.byte	0xd
 2661 1309 A6       		.byte	0xa6
 2662 130a 01       		.byte	0x1
 2663 130b 01       		.byte	0x1
 2664 130c 00       		.byte	0
 2665              		.section	.debug_abbrev,"",%progbits
 2666              	.Ldebug_abbrev0:
 2667 0000 01       		.uleb128 0x1
 2668 0001 11       		.uleb128 0x11
 2669 0002 01       		.byte	0x1
 2670 0003 25       		.uleb128 0x25
 2671 0004 0E       		.uleb128 0xe
ARM GAS  /tmp/ccIuhau9.s 			page 48


 2672 0005 13       		.uleb128 0x13
 2673 0006 0B       		.uleb128 0xb
 2674 0007 03       		.uleb128 0x3
 2675 0008 0E       		.uleb128 0xe
 2676 0009 1B       		.uleb128 0x1b
 2677 000a 0E       		.uleb128 0xe
 2678 000b 55       		.uleb128 0x55
 2679 000c 06       		.uleb128 0x6
 2680 000d 11       		.uleb128 0x11
 2681 000e 01       		.uleb128 0x1
 2682 000f 52       		.uleb128 0x52
 2683 0010 01       		.uleb128 0x1
 2684 0011 10       		.uleb128 0x10
 2685 0012 06       		.uleb128 0x6
 2686 0013 00       		.byte	0
 2687 0014 00       		.byte	0
 2688 0015 02       		.uleb128 0x2
 2689 0016 16       		.uleb128 0x16
 2690 0017 00       		.byte	0
 2691 0018 03       		.uleb128 0x3
 2692 0019 0E       		.uleb128 0xe
 2693 001a 3A       		.uleb128 0x3a
 2694 001b 0B       		.uleb128 0xb
 2695 001c 3B       		.uleb128 0x3b
 2696 001d 0B       		.uleb128 0xb
 2697 001e 49       		.uleb128 0x49
 2698 001f 13       		.uleb128 0x13
 2699 0020 00       		.byte	0
 2700 0021 00       		.byte	0
 2701 0022 03       		.uleb128 0x3
 2702 0023 24       		.uleb128 0x24
 2703 0024 00       		.byte	0
 2704 0025 0B       		.uleb128 0xb
 2705 0026 0B       		.uleb128 0xb
 2706 0027 3E       		.uleb128 0x3e
 2707 0028 0B       		.uleb128 0xb
 2708 0029 03       		.uleb128 0x3
 2709 002a 0E       		.uleb128 0xe
 2710 002b 00       		.byte	0
 2711 002c 00       		.byte	0
 2712 002d 04       		.uleb128 0x4
 2713 002e 0F       		.uleb128 0xf
 2714 002f 00       		.byte	0
 2715 0030 0B       		.uleb128 0xb
 2716 0031 0B       		.uleb128 0xb
 2717 0032 00       		.byte	0
 2718 0033 00       		.byte	0
 2719 0034 05       		.uleb128 0x5
 2720 0035 24       		.uleb128 0x24
 2721 0036 00       		.byte	0
 2722 0037 0B       		.uleb128 0xb
 2723 0038 0B       		.uleb128 0xb
 2724 0039 3E       		.uleb128 0x3e
 2725 003a 0B       		.uleb128 0xb
 2726 003b 03       		.uleb128 0x3
 2727 003c 08       		.uleb128 0x8
 2728 003d 00       		.byte	0
ARM GAS  /tmp/ccIuhau9.s 			page 49


 2729 003e 00       		.byte	0
 2730 003f 06       		.uleb128 0x6
 2731 0040 0F       		.uleb128 0xf
 2732 0041 00       		.byte	0
 2733 0042 0B       		.uleb128 0xb
 2734 0043 0B       		.uleb128 0xb
 2735 0044 49       		.uleb128 0x49
 2736 0045 13       		.uleb128 0x13
 2737 0046 00       		.byte	0
 2738 0047 00       		.byte	0
 2739 0048 07       		.uleb128 0x7
 2740 0049 26       		.uleb128 0x26
 2741 004a 00       		.byte	0
 2742 004b 49       		.uleb128 0x49
 2743 004c 13       		.uleb128 0x13
 2744 004d 00       		.byte	0
 2745 004e 00       		.byte	0
 2746 004f 08       		.uleb128 0x8
 2747 0050 13       		.uleb128 0x13
 2748 0051 01       		.byte	0x1
 2749 0052 03       		.uleb128 0x3
 2750 0053 0E       		.uleb128 0xe
 2751 0054 0B       		.uleb128 0xb
 2752 0055 0B       		.uleb128 0xb
 2753 0056 3A       		.uleb128 0x3a
 2754 0057 0B       		.uleb128 0xb
 2755 0058 3B       		.uleb128 0x3b
 2756 0059 0B       		.uleb128 0xb
 2757 005a 01       		.uleb128 0x1
 2758 005b 13       		.uleb128 0x13
 2759 005c 00       		.byte	0
 2760 005d 00       		.byte	0
 2761 005e 09       		.uleb128 0x9
 2762 005f 0D       		.uleb128 0xd
 2763 0060 00       		.byte	0
 2764 0061 03       		.uleb128 0x3
 2765 0062 0E       		.uleb128 0xe
 2766 0063 3A       		.uleb128 0x3a
 2767 0064 0B       		.uleb128 0xb
 2768 0065 3B       		.uleb128 0x3b
 2769 0066 0B       		.uleb128 0xb
 2770 0067 49       		.uleb128 0x49
 2771 0068 13       		.uleb128 0x13
 2772 0069 38       		.uleb128 0x38
 2773 006a 0A       		.uleb128 0xa
 2774 006b 00       		.byte	0
 2775 006c 00       		.byte	0
 2776 006d 0A       		.uleb128 0xa
 2777 006e 0D       		.uleb128 0xd
 2778 006f 00       		.byte	0
 2779 0070 03       		.uleb128 0x3
 2780 0071 08       		.uleb128 0x8
 2781 0072 3A       		.uleb128 0x3a
 2782 0073 0B       		.uleb128 0xb
 2783 0074 3B       		.uleb128 0x3b
 2784 0075 0B       		.uleb128 0xb
 2785 0076 49       		.uleb128 0x49
ARM GAS  /tmp/ccIuhau9.s 			page 50


 2786 0077 13       		.uleb128 0x13
 2787 0078 38       		.uleb128 0x38
 2788 0079 0A       		.uleb128 0xa
 2789 007a 00       		.byte	0
 2790 007b 00       		.byte	0
 2791 007c 0B       		.uleb128 0xb
 2792 007d 13       		.uleb128 0x13
 2793 007e 01       		.byte	0x1
 2794 007f 0B       		.uleb128 0xb
 2795 0080 0B       		.uleb128 0xb
 2796 0081 3A       		.uleb128 0x3a
 2797 0082 0B       		.uleb128 0xb
 2798 0083 3B       		.uleb128 0x3b
 2799 0084 0B       		.uleb128 0xb
 2800 0085 01       		.uleb128 0x1
 2801 0086 13       		.uleb128 0x13
 2802 0087 00       		.byte	0
 2803 0088 00       		.byte	0
 2804 0089 0C       		.uleb128 0xc
 2805 008a 13       		.uleb128 0x13
 2806 008b 01       		.byte	0x1
 2807 008c 03       		.uleb128 0x3
 2808 008d 0E       		.uleb128 0xe
 2809 008e 0B       		.uleb128 0xb
 2810 008f 0B       		.uleb128 0xb
 2811 0090 3A       		.uleb128 0x3a
 2812 0091 0B       		.uleb128 0xb
 2813 0092 3B       		.uleb128 0x3b
 2814 0093 05       		.uleb128 0x5
 2815 0094 01       		.uleb128 0x1
 2816 0095 13       		.uleb128 0x13
 2817 0096 00       		.byte	0
 2818 0097 00       		.byte	0
 2819 0098 0D       		.uleb128 0xd
 2820 0099 0D       		.uleb128 0xd
 2821 009a 00       		.byte	0
 2822 009b 03       		.uleb128 0x3
 2823 009c 08       		.uleb128 0x8
 2824 009d 3A       		.uleb128 0x3a
 2825 009e 0B       		.uleb128 0xb
 2826 009f 3B       		.uleb128 0x3b
 2827 00a0 05       		.uleb128 0x5
 2828 00a1 49       		.uleb128 0x49
 2829 00a2 13       		.uleb128 0x13
 2830 00a3 38       		.uleb128 0x38
 2831 00a4 0A       		.uleb128 0xa
 2832 00a5 00       		.byte	0
 2833 00a6 00       		.byte	0
 2834 00a7 0E       		.uleb128 0xe
 2835 00a8 35       		.uleb128 0x35
 2836 00a9 00       		.byte	0
 2837 00aa 49       		.uleb128 0x49
 2838 00ab 13       		.uleb128 0x13
 2839 00ac 00       		.byte	0
 2840 00ad 00       		.byte	0
 2841 00ae 0F       		.uleb128 0xf
 2842 00af 17       		.uleb128 0x17
ARM GAS  /tmp/ccIuhau9.s 			page 51


 2843 00b0 01       		.byte	0x1
 2844 00b1 0B       		.uleb128 0xb
 2845 00b2 0B       		.uleb128 0xb
 2846 00b3 3A       		.uleb128 0x3a
 2847 00b4 0B       		.uleb128 0xb
 2848 00b5 3B       		.uleb128 0x3b
 2849 00b6 0B       		.uleb128 0xb
 2850 00b7 01       		.uleb128 0x1
 2851 00b8 13       		.uleb128 0x13
 2852 00b9 00       		.byte	0
 2853 00ba 00       		.byte	0
 2854 00bb 10       		.uleb128 0x10
 2855 00bc 0D       		.uleb128 0xd
 2856 00bd 00       		.byte	0
 2857 00be 03       		.uleb128 0x3
 2858 00bf 0E       		.uleb128 0xe
 2859 00c0 3A       		.uleb128 0x3a
 2860 00c1 0B       		.uleb128 0xb
 2861 00c2 3B       		.uleb128 0x3b
 2862 00c3 0B       		.uleb128 0xb
 2863 00c4 49       		.uleb128 0x49
 2864 00c5 13       		.uleb128 0x13
 2865 00c6 00       		.byte	0
 2866 00c7 00       		.byte	0
 2867 00c8 11       		.uleb128 0x11
 2868 00c9 15       		.uleb128 0x15
 2869 00ca 01       		.byte	0x1
 2870 00cb 27       		.uleb128 0x27
 2871 00cc 0C       		.uleb128 0xc
 2872 00cd 01       		.uleb128 0x1
 2873 00ce 13       		.uleb128 0x13
 2874 00cf 00       		.byte	0
 2875 00d0 00       		.byte	0
 2876 00d1 12       		.uleb128 0x12
 2877 00d2 05       		.uleb128 0x5
 2878 00d3 00       		.byte	0
 2879 00d4 49       		.uleb128 0x49
 2880 00d5 13       		.uleb128 0x13
 2881 00d6 00       		.byte	0
 2882 00d7 00       		.byte	0
 2883 00d8 13       		.uleb128 0x13
 2884 00d9 01       		.uleb128 0x1
 2885 00da 01       		.byte	0x1
 2886 00db 49       		.uleb128 0x49
 2887 00dc 13       		.uleb128 0x13
 2888 00dd 01       		.uleb128 0x1
 2889 00de 13       		.uleb128 0x13
 2890 00df 00       		.byte	0
 2891 00e0 00       		.byte	0
 2892 00e1 14       		.uleb128 0x14
 2893 00e2 21       		.uleb128 0x21
 2894 00e3 00       		.byte	0
 2895 00e4 49       		.uleb128 0x49
 2896 00e5 13       		.uleb128 0x13
 2897 00e6 2F       		.uleb128 0x2f
 2898 00e7 0B       		.uleb128 0xb
 2899 00e8 00       		.byte	0
ARM GAS  /tmp/ccIuhau9.s 			page 52


 2900 00e9 00       		.byte	0
 2901 00ea 15       		.uleb128 0x15
 2902 00eb 13       		.uleb128 0x13
 2903 00ec 01       		.byte	0x1
 2904 00ed 03       		.uleb128 0x3
 2905 00ee 0E       		.uleb128 0xe
 2906 00ef 0B       		.uleb128 0xb
 2907 00f0 05       		.uleb128 0x5
 2908 00f1 3A       		.uleb128 0x3a
 2909 00f2 0B       		.uleb128 0xb
 2910 00f3 3B       		.uleb128 0x3b
 2911 00f4 05       		.uleb128 0x5
 2912 00f5 01       		.uleb128 0x1
 2913 00f6 13       		.uleb128 0x13
 2914 00f7 00       		.byte	0
 2915 00f8 00       		.byte	0
 2916 00f9 16       		.uleb128 0x16
 2917 00fa 0D       		.uleb128 0xd
 2918 00fb 00       		.byte	0
 2919 00fc 03       		.uleb128 0x3
 2920 00fd 0E       		.uleb128 0xe
 2921 00fe 3A       		.uleb128 0x3a
 2922 00ff 0B       		.uleb128 0xb
 2923 0100 3B       		.uleb128 0x3b
 2924 0101 05       		.uleb128 0x5
 2925 0102 49       		.uleb128 0x49
 2926 0103 13       		.uleb128 0x13
 2927 0104 38       		.uleb128 0x38
 2928 0105 0A       		.uleb128 0xa
 2929 0106 00       		.byte	0
 2930 0107 00       		.byte	0
 2931 0108 17       		.uleb128 0x17
 2932 0109 04       		.uleb128 0x4
 2933 010a 01       		.byte	0x1
 2934 010b 0B       		.uleb128 0xb
 2935 010c 0B       		.uleb128 0xb
 2936 010d 3A       		.uleb128 0x3a
 2937 010e 0B       		.uleb128 0xb
 2938 010f 3B       		.uleb128 0x3b
 2939 0110 0B       		.uleb128 0xb
 2940 0111 01       		.uleb128 0x1
 2941 0112 13       		.uleb128 0x13
 2942 0113 00       		.byte	0
 2943 0114 00       		.byte	0
 2944 0115 18       		.uleb128 0x18
 2945 0116 28       		.uleb128 0x28
 2946 0117 00       		.byte	0
 2947 0118 03       		.uleb128 0x3
 2948 0119 0E       		.uleb128 0xe
 2949 011a 1C       		.uleb128 0x1c
 2950 011b 0D       		.uleb128 0xd
 2951 011c 00       		.byte	0
 2952 011d 00       		.byte	0
 2953 011e 19       		.uleb128 0x19
 2954 011f 13       		.uleb128 0x13
 2955 0120 01       		.byte	0x1
 2956 0121 0B       		.uleb128 0xb
ARM GAS  /tmp/ccIuhau9.s 			page 53


 2957 0122 0B       		.uleb128 0xb
 2958 0123 3A       		.uleb128 0x3a
 2959 0124 0B       		.uleb128 0xb
 2960 0125 3B       		.uleb128 0x3b
 2961 0126 05       		.uleb128 0x5
 2962 0127 01       		.uleb128 0x1
 2963 0128 13       		.uleb128 0x13
 2964 0129 00       		.byte	0
 2965 012a 00       		.byte	0
 2966 012b 1A       		.uleb128 0x1a
 2967 012c 16       		.uleb128 0x16
 2968 012d 00       		.byte	0
 2969 012e 03       		.uleb128 0x3
 2970 012f 0E       		.uleb128 0xe
 2971 0130 3A       		.uleb128 0x3a
 2972 0131 0B       		.uleb128 0xb
 2973 0132 3B       		.uleb128 0x3b
 2974 0133 05       		.uleb128 0x5
 2975 0134 49       		.uleb128 0x49
 2976 0135 13       		.uleb128 0x13
 2977 0136 00       		.byte	0
 2978 0137 00       		.byte	0
 2979 0138 1B       		.uleb128 0x1b
 2980 0139 15       		.uleb128 0x15
 2981 013a 01       		.byte	0x1
 2982 013b 27       		.uleb128 0x27
 2983 013c 0C       		.uleb128 0xc
 2984 013d 49       		.uleb128 0x49
 2985 013e 13       		.uleb128 0x13
 2986 013f 01       		.uleb128 0x1
 2987 0140 13       		.uleb128 0x13
 2988 0141 00       		.byte	0
 2989 0142 00       		.byte	0
 2990 0143 1C       		.uleb128 0x1c
 2991 0144 13       		.uleb128 0x13
 2992 0145 01       		.byte	0x1
 2993 0146 0B       		.uleb128 0xb
 2994 0147 06       		.uleb128 0x6
 2995 0148 3A       		.uleb128 0x3a
 2996 0149 0B       		.uleb128 0xb
 2997 014a 3B       		.uleb128 0x3b
 2998 014b 0B       		.uleb128 0xb
 2999 014c 01       		.uleb128 0x1
 3000 014d 13       		.uleb128 0x13
 3001 014e 00       		.byte	0
 3002 014f 00       		.byte	0
 3003 0150 1D       		.uleb128 0x1d
 3004 0151 21       		.uleb128 0x21
 3005 0152 00       		.byte	0
 3006 0153 49       		.uleb128 0x49
 3007 0154 13       		.uleb128 0x13
 3008 0155 2F       		.uleb128 0x2f
 3009 0156 05       		.uleb128 0x5
 3010 0157 00       		.byte	0
 3011 0158 00       		.byte	0
 3012 0159 1E       		.uleb128 0x1e
 3013 015a 0D       		.uleb128 0xd
ARM GAS  /tmp/ccIuhau9.s 			page 54


 3014 015b 00       		.byte	0
 3015 015c 03       		.uleb128 0x3
 3016 015d 0E       		.uleb128 0xe
 3017 015e 3A       		.uleb128 0x3a
 3018 015f 0B       		.uleb128 0xb
 3019 0160 3B       		.uleb128 0x3b
 3020 0161 05       		.uleb128 0x5
 3021 0162 49       		.uleb128 0x49
 3022 0163 13       		.uleb128 0x13
 3023 0164 00       		.byte	0
 3024 0165 00       		.byte	0
 3025 0166 1F       		.uleb128 0x1f
 3026 0167 2E       		.uleb128 0x2e
 3027 0168 01       		.byte	0x1
 3028 0169 3F       		.uleb128 0x3f
 3029 016a 0C       		.uleb128 0xc
 3030 016b 03       		.uleb128 0x3
 3031 016c 0E       		.uleb128 0xe
 3032 016d 3A       		.uleb128 0x3a
 3033 016e 0B       		.uleb128 0xb
 3034 016f 3B       		.uleb128 0x3b
 3035 0170 0B       		.uleb128 0xb
 3036 0171 27       		.uleb128 0x27
 3037 0172 0C       		.uleb128 0xc
 3038 0173 49       		.uleb128 0x49
 3039 0174 13       		.uleb128 0x13
 3040 0175 11       		.uleb128 0x11
 3041 0176 01       		.uleb128 0x1
 3042 0177 12       		.uleb128 0x12
 3043 0178 01       		.uleb128 0x1
 3044 0179 40       		.uleb128 0x40
 3045 017a 06       		.uleb128 0x6
 3046 017b 9742     		.uleb128 0x2117
 3047 017d 0C       		.uleb128 0xc
 3048 017e 01       		.uleb128 0x1
 3049 017f 13       		.uleb128 0x13
 3050 0180 00       		.byte	0
 3051 0181 00       		.byte	0
 3052 0182 20       		.uleb128 0x20
 3053 0183 34       		.uleb128 0x34
 3054 0184 00       		.byte	0
 3055 0185 03       		.uleb128 0x3
 3056 0186 08       		.uleb128 0x8
 3057 0187 3A       		.uleb128 0x3a
 3058 0188 0B       		.uleb128 0xb
 3059 0189 3B       		.uleb128 0x3b
 3060 018a 0B       		.uleb128 0xb
 3061 018b 49       		.uleb128 0x49
 3062 018c 13       		.uleb128 0x13
 3063 018d 02       		.uleb128 0x2
 3064 018e 06       		.uleb128 0x6
 3065 018f 00       		.byte	0
 3066 0190 00       		.byte	0
 3067 0191 21       		.uleb128 0x21
 3068 0192 898201   		.uleb128 0x4109
 3069 0195 00       		.byte	0
 3070 0196 11       		.uleb128 0x11
ARM GAS  /tmp/ccIuhau9.s 			page 55


 3071 0197 01       		.uleb128 0x1
 3072 0198 31       		.uleb128 0x31
 3073 0199 13       		.uleb128 0x13
 3074 019a 00       		.byte	0
 3075 019b 00       		.byte	0
 3076 019c 22       		.uleb128 0x22
 3077 019d 898201   		.uleb128 0x4109
 3078 01a0 01       		.byte	0x1
 3079 01a1 11       		.uleb128 0x11
 3080 01a2 01       		.uleb128 0x1
 3081 01a3 31       		.uleb128 0x31
 3082 01a4 13       		.uleb128 0x13
 3083 01a5 01       		.uleb128 0x1
 3084 01a6 13       		.uleb128 0x13
 3085 01a7 00       		.byte	0
 3086 01a8 00       		.byte	0
 3087 01a9 23       		.uleb128 0x23
 3088 01aa 8A8201   		.uleb128 0x410a
 3089 01ad 00       		.byte	0
 3090 01ae 02       		.uleb128 0x2
 3091 01af 0A       		.uleb128 0xa
 3092 01b0 9142     		.uleb128 0x2111
 3093 01b2 0A       		.uleb128 0xa
 3094 01b3 00       		.byte	0
 3095 01b4 00       		.byte	0
 3096 01b5 24       		.uleb128 0x24
 3097 01b6 34       		.uleb128 0x34
 3098 01b7 00       		.byte	0
 3099 01b8 03       		.uleb128 0x3
 3100 01b9 0E       		.uleb128 0xe
 3101 01ba 3A       		.uleb128 0x3a
 3102 01bb 0B       		.uleb128 0xb
 3103 01bc 3B       		.uleb128 0x3b
 3104 01bd 0B       		.uleb128 0xb
 3105 01be 49       		.uleb128 0x49
 3106 01bf 13       		.uleb128 0x13
 3107 01c0 00       		.byte	0
 3108 01c1 00       		.byte	0
 3109 01c2 25       		.uleb128 0x25
 3110 01c3 34       		.uleb128 0x34
 3111 01c4 00       		.byte	0
 3112 01c5 03       		.uleb128 0x3
 3113 01c6 0E       		.uleb128 0xe
 3114 01c7 3A       		.uleb128 0x3a
 3115 01c8 0B       		.uleb128 0xb
 3116 01c9 3B       		.uleb128 0x3b
 3117 01ca 05       		.uleb128 0x5
 3118 01cb 49       		.uleb128 0x49
 3119 01cc 13       		.uleb128 0x13
 3120 01cd 3F       		.uleb128 0x3f
 3121 01ce 0C       		.uleb128 0xc
 3122 01cf 3C       		.uleb128 0x3c
 3123 01d0 0C       		.uleb128 0xc
 3124 01d1 00       		.byte	0
 3125 01d2 00       		.byte	0
 3126 01d3 26       		.uleb128 0x26
 3127 01d4 34       		.uleb128 0x34
ARM GAS  /tmp/ccIuhau9.s 			page 56


 3128 01d5 00       		.byte	0
 3129 01d6 03       		.uleb128 0x3
 3130 01d7 0E       		.uleb128 0xe
 3131 01d8 3A       		.uleb128 0x3a
 3132 01d9 0B       		.uleb128 0xb
 3133 01da 3B       		.uleb128 0x3b
 3134 01db 0B       		.uleb128 0xb
 3135 01dc 49       		.uleb128 0x49
 3136 01dd 13       		.uleb128 0x13
 3137 01de 3F       		.uleb128 0x3f
 3138 01df 0C       		.uleb128 0xc
 3139 01e0 02       		.uleb128 0x2
 3140 01e1 0A       		.uleb128 0xa
 3141 01e2 00       		.byte	0
 3142 01e3 00       		.byte	0
 3143 01e4 27       		.uleb128 0x27
 3144 01e5 2E       		.uleb128 0x2e
 3145 01e6 00       		.byte	0
 3146 01e7 3F       		.uleb128 0x3f
 3147 01e8 0C       		.uleb128 0xc
 3148 01e9 03       		.uleb128 0x3
 3149 01ea 0E       		.uleb128 0xe
 3150 01eb 3A       		.uleb128 0x3a
 3151 01ec 0B       		.uleb128 0xb
 3152 01ed 3B       		.uleb128 0x3b
 3153 01ee 0B       		.uleb128 0xb
 3154 01ef 27       		.uleb128 0x27
 3155 01f0 0C       		.uleb128 0xc
 3156 01f1 3C       		.uleb128 0x3c
 3157 01f2 0C       		.uleb128 0xc
 3158 01f3 00       		.byte	0
 3159 01f4 00       		.byte	0
 3160 01f5 28       		.uleb128 0x28
 3161 01f6 2E       		.uleb128 0x2e
 3162 01f7 01       		.byte	0x1
 3163 01f8 3F       		.uleb128 0x3f
 3164 01f9 0C       		.uleb128 0xc
 3165 01fa 03       		.uleb128 0x3
 3166 01fb 0E       		.uleb128 0xe
 3167 01fc 3A       		.uleb128 0x3a
 3168 01fd 0B       		.uleb128 0xb
 3169 01fe 3B       		.uleb128 0x3b
 3170 01ff 05       		.uleb128 0x5
 3171 0200 27       		.uleb128 0x27
 3172 0201 0C       		.uleb128 0xc
 3173 0202 3C       		.uleb128 0x3c
 3174 0203 0C       		.uleb128 0xc
 3175 0204 01       		.uleb128 0x1
 3176 0205 13       		.uleb128 0x13
 3177 0206 00       		.byte	0
 3178 0207 00       		.byte	0
 3179 0208 00       		.byte	0
 3180              		.section	.debug_loc,"",%progbits
 3181              	.Ldebug_loc0:
 3182              	.LLST0:
 3183 0000 00000000 		.4byte	.LFB118
 3184 0004 02000000 		.4byte	.LCFI0
ARM GAS  /tmp/ccIuhau9.s 			page 57


 3185 0008 0200     		.2byte	0x2
 3186 000a 7D       		.byte	0x7d
 3187 000b 00       		.sleb128 0
 3188 000c 02000000 		.4byte	.LCFI0
 3189 0010 40000000 		.4byte	.LFE118
 3190 0014 0200     		.2byte	0x2
 3191 0016 7D       		.byte	0x7d
 3192 0017 08       		.sleb128 8
 3193 0018 00000000 		.4byte	0
 3194 001c 00000000 		.4byte	0
 3195              	.LLST1:
 3196 0020 0E000000 		.4byte	.LVL2
 3197 0024 12000000 		.4byte	.LVL3
 3198 0028 0200     		.2byte	0x2
 3199 002a 30       		.byte	0x30
 3200 002b 9F       		.byte	0x9f
 3201 002c 00000000 		.4byte	0
 3202 0030 00000000 		.4byte	0
 3203              		.section	.debug_aranges,"",%progbits
 3204 0000 1C000000 		.4byte	0x1c
 3205 0004 0200     		.2byte	0x2
 3206 0006 00000000 		.4byte	.Ldebug_info0
 3207 000a 04       		.byte	0x4
 3208 000b 00       		.byte	0
 3209 000c 0000     		.2byte	0
 3210 000e 0000     		.2byte	0
 3211 0010 00000000 		.4byte	.LFB118
 3212 0014 40000000 		.4byte	.LFE118-.LFB118
 3213 0018 00000000 		.4byte	0
 3214 001c 00000000 		.4byte	0
 3215              		.section	.debug_ranges,"",%progbits
 3216              	.Ldebug_ranges0:
 3217 0000 00000000 		.4byte	.LFB118
 3218 0004 40000000 		.4byte	.LFE118
 3219 0008 00000000 		.4byte	0
 3220 000c 00000000 		.4byte	0
 3221              		.section	.debug_line,"",%progbits
 3222              	.Ldebug_line0:
 3223 0000 C3020000 		.section	.debug_str,"MS",%progbits,1
 3223      02008E02 
 3223      00000201 
 3223      FB0E0D00 
 3223      01010101 
 3224              	.LASF11:
 3225 0000 73697A65 		.ascii	"size_t\000"
 3225      5F7400
 3226              	.LASF8:
 3227 0007 73697A65 		.ascii	"sizetype\000"
 3227      74797065 
 3227      00
 3228              	.LASF25:
 3229 0010 73797374 		.ascii	"systime_t\000"
 3229      696D655F 
 3229      7400
 3230              	.LASF30:
 3231 001a 705F6374 		.ascii	"p_ctx\000"
 3231      7800
ARM GAS  /tmp/ccIuhau9.s 			page 58


 3232              	.LASF241:
 3233 0020 76636F6D 		.ascii	"vcom_strings\000"
 3233      5F737472 
 3233      696E6773 
 3233      00
 3234              	.LASF22:
 3235 002d 74707269 		.ascii	"tprio_t\000"
 3235      6F5F7400 
 3236              	.LASF41:
 3237 0035 705F6D73 		.ascii	"p_msgqueue\000"
 3237      67717565 
 3237      756500
 3238              	.LASF197:
 3239 0040 72785F66 		.ascii	"rx_fifo_size\000"
 3239      69666F5F 
 3239      73697A65 
 3239      00
 3240              	.LASF14:
 3241 004d 696E7433 		.ascii	"int32_t\000"
 3241      325F7400 
 3242              	.LASF132:
 3243 0055 72657376 		.ascii	"resvd4\000"
 3243      643400
 3244              	.LASF123:
 3245 005c 72657376 		.ascii	"resvd8\000"
 3245      643800
 3246              	.LASF134:
 3247 0063 72657376 		.ascii	"resvdC\000"
 3247      644300
 3248              	.LASF101:
 3249 006a 5553425F 		.ascii	"USB_EP0_TX\000"
 3249      4550305F 
 3249      545800
 3250              	.LASF172:
 3251 0075 72657376 		.ascii	"resvd700\000"
 3251      64373030 
 3251      00
 3252              	.LASF75:
 3253 007e 636F6E66 		.ascii	"config\000"
 3253      696700
 3254              	.LASF74:
 3255 0085 73746174 		.ascii	"state\000"
 3255      6500
 3256              	.LASF216:
 3257 008b 65705F6D 		.ascii	"ep_mode\000"
 3257      6F646500 
 3258              	.LASF98:
 3259 0093 5553425F 		.ascii	"USB_ACTIVE\000"
 3259      41435449 
 3259      564500
 3260              	.LASF240:
 3261 009e 73747269 		.ascii	"stringNotFound\000"
 3261      6E674E6F 
 3261      74466F75 
 3261      6E6400
 3262              	.LASF55:
 3263 00ad 6D5F6F77 		.ascii	"m_owner\000"
ARM GAS  /tmp/ccIuhau9.s 			page 59


 3263      6E657200 
 3264              	.LASF58:
 3265 00b5 65786974 		.ascii	"exitcode\000"
 3265      636F6465 
 3265      00
 3266              	.LASF106:
 3267 00be 75736265 		.ascii	"usbep0state_t\000"
 3267      70307374 
 3267      6174655F 
 3267      7400
 3268              	.LASF65:
 3269 00cc 715F746F 		.ascii	"q_top\000"
 3269      7000
 3270              	.LASF60:
 3271 00d2 65776D61 		.ascii	"ewmask\000"
 3271      736B00
 3272              	.LASF233:
 3273 00d9 76636F6D 		.ascii	"vcom_device_descriptor\000"
 3273      5F646576 
 3273      6963655F 
 3273      64657363 
 3273      72697074 
 3274              	.LASF64:
 3275 00f0 715F6275 		.ascii	"q_buffer\000"
 3275      66666572 
 3275      00
 3276              	.LASF108:
 3277 00f9 5553425F 		.ascii	"USB_EVENT_ADDRESS\000"
 3277      4556454E 
 3277      545F4144 
 3277      44524553 
 3277      5300
 3278              	.LASF153:
 3279 010b 44494550 		.ascii	"DIEPTXF0\000"
 3279      54584630 
 3279      00
 3280              	.LASF68:
 3281 0114 715F6E6F 		.ascii	"q_notify\000"
 3281      74696679 
 3281      00
 3282              	.LASF31:
 3283 011d 705F6E65 		.ascii	"p_newer\000"
 3283      77657200 
 3284              	.LASF7:
 3285 0125 6C6F6E67 		.ascii	"long int\000"
 3285      20696E74 
 3285      00
 3286              	.LASF27:
 3287 012e 705F6E65 		.ascii	"p_next\000"
 3287      787400
 3288              	.LASF67:
 3289 0135 715F7264 		.ascii	"q_rdptr\000"
 3289      70747200 
 3290              	.LASF207:
 3291 013d 7478636E 		.ascii	"txcnt\000"
 3291      7400
 3292              	.LASF251:
ARM GAS  /tmp/ccIuhau9.s 			page 60


 3293 0143 6D795553 		.ascii	"myUSBinit\000"
 3293      42696E69 
 3293      7400
 3294              	.LASF28:
 3295 014d 705F7072 		.ascii	"p_prev\000"
 3295      657600
 3296              	.LASF19:
 3297 0154 74737461 		.ascii	"tstate_t\000"
 3297      74655F74 
 3297      00
 3298              	.LASF256:
 3299 015d 6D61696E 		.ascii	"main\000"
 3299      00
 3300              	.LASF221:
 3301 0162 6F75745F 		.ascii	"out_maxsize\000"
 3301      6D617873 
 3301      697A6500 
 3302              	.LASF44:
 3303 016e 705F6D74 		.ascii	"p_mtxlist\000"
 3303      786C6973 
 3303      7400
 3304              	.LASF91:
 3305 0178 7468645F 		.ascii	"thd_wait\000"
 3305      77616974 
 3305      00
 3306              	.LASF201:
 3307 0181 74786275 		.ascii	"txbuf\000"
 3307      6600
 3308              	.LASF49:
 3309 0187 72656761 		.ascii	"regarm_t\000"
 3309      726D5F74 
 3309      00
 3310              	.LASF179:
 3311 0190 4441494E 		.ascii	"DAINT\000"
 3311      5400
 3312              	.LASF100:
 3313 0196 5553425F 		.ascii	"USB_EP0_WAITING_SETUP\000"
 3313      4550305F 
 3313      57414954 
 3313      494E475F 
 3313      53455455 
 3314              	.LASF178:
 3315 01ac 444F4550 		.ascii	"DOEPMSK\000"
 3315      4D534B00 
 3316              	.LASF139:
 3317 01b4 444F4550 		.ascii	"DOEPCTL\000"
 3317      43544C00 
 3318              	.LASF238:
 3319 01bc 73747269 		.ascii	"stringDeviceDescriptor\000"
 3319      6E674465 
 3319      76696365 
 3319      44657363 
 3319      72697074 
 3320              	.LASF1:
 3321 01d3 7369676E 		.ascii	"signed char\000"
 3321      65642063 
 3321      68617200 
ARM GAS  /tmp/ccIuhau9.s 			page 61


 3322              	.LASF38:
 3323 01df 705F7072 		.ascii	"p_preempt\000"
 3323      65656D70 
 3323      7400
 3324              	.LASF12:
 3325 01e9 75696E74 		.ascii	"uint8_t\000"
 3325      385F7400 
 3326              	.LASF112:
 3327 01f1 5553425F 		.ascii	"USB_EVENT_STALLED\000"
 3327      4556454E 
 3327      545F5354 
 3327      414C4C45 
 3327      4400
 3328              	.LASF235:
 3329 0203 76636F6D 		.ascii	"vcom_configuration_descriptor\000"
 3329      5F636F6E 
 3329      66696775 
 3329      72617469 
 3329      6F6E5F64 
 3330              	.LASF140:
 3331 0221 444F4550 		.ascii	"DOEPINT\000"
 3331      494E5400 
 3332              	.LASF24:
 3333 0229 6576656E 		.ascii	"eventmask_t\000"
 3333      746D6173 
 3333      6B5F7400 
 3334              	.LASF52:
 3335 0235 636F6E74 		.ascii	"context\000"
 3335      65787400 
 3336              	.LASF213:
 3337 023d 72787369 		.ascii	"rxsize\000"
 3337      7A6500
 3338              	.LASF2:
 3339 0244 756E7369 		.ascii	"unsigned char\000"
 3339      676E6564 
 3339      20636861 
 3339      7200
 3340              	.LASF105:
 3341 0252 5553425F 		.ascii	"USB_EP0_ERROR\000"
 3341      4550305F 
 3341      4552524F 
 3341      5200
 3342              	.LASF69:
 3343 0260 715F6C69 		.ascii	"q_link\000"
 3343      6E6B00
 3344              	.LASF253:
 3345 0267 474E5520 		.ascii	"GNU C 4.7.3 20130312 (release) [ARM/embedded-4_7-br"
 3345      4320342E 
 3345      372E3320 
 3345      32303133 
 3345      30333132 
 3346 029a 616E6368 		.ascii	"anch revision 196615]\000"
 3346      20726576 
 3346      6973696F 
 3346      6E203139 
 3346      36363135 
 3347              	.LASF173:
ARM GAS  /tmp/ccIuhau9.s 			page 62


 3348 02b0 44434647 		.ascii	"DCFG\000"
 3348      00
 3349              	.LASF157:
 3350 02b5 47434346 		.ascii	"GCCFG\000"
 3350      4700
 3351              	.LASF79:
 3352 02bb 65703073 		.ascii	"ep0state\000"
 3352      74617465 
 3352      00
 3353              	.LASF237:
 3354 02c4 73747269 		.ascii	"stringVendor\000"
 3354      6E675665 
 3354      6E646F72 
 3354      00
 3355              	.LASF135:
 3356 02d1 44494550 		.ascii	"DIEPTSIZ\000"
 3356      5453495A 
 3356      00
 3357              	.LASF229:
 3358 02da 72657175 		.ascii	"requests_hook_cb\000"
 3358      65737473 
 3358      5F686F6F 
 3358      6B5F6362 
 3358      00
 3359              	.LASF255:
 3360 02eb 2F686F6D 		.ascii	"/home/gokul/STM_Library/USB\000"
 3360      652F676F 
 3360      6B756C2F 
 3360      53544D5F 
 3360      4C696272 
 3361              	.LASF162:
 3362 0307 48434647 		.ascii	"HCFG\000"
 3362      00
 3363              	.LASF122:
 3364 030c 48434348 		.ascii	"HCCHAR\000"
 3364      415200
 3365              	.LASF142:
 3366 0313 73746D33 		.ascii	"stm32_otg_out_ep_t\000"
 3366      325F6F74 
 3366      675F6F75 
 3366      745F6570 
 3366      5F7400
 3367              	.LASF10:
 3368 0326 63686172 		.ascii	"char\000"
 3368      00
 3369              	.LASF239:
 3370 032b 73747269 		.ascii	"stringSerialNumber\000"
 3370      6E675365 
 3370      7269616C 
 3370      4E756D62 
 3370      657200
 3371              	.LASF81:
 3372 033e 6570306E 		.ascii	"ep0n\000"
 3372      00
 3373              	.LASF176:
 3374 0343 72657376 		.ascii	"resvd80C\000"
 3374      64383043 
ARM GAS  /tmp/ccIuhau9.s 			page 63


 3374      00
 3375              	.LASF170:
 3376 034c 48505254 		.ascii	"HPRT\000"
 3376      00
 3377              	.LASF29:
 3378 0351 705F7072 		.ascii	"p_prio\000"
 3378      696F00
 3379              	.LASF78:
 3380 0358 72656365 		.ascii	"receiving\000"
 3380      6976696E 
 3380      6700
 3381              	.LASF61:
 3382 0362 47656E65 		.ascii	"GenericQueue\000"
 3382      72696351 
 3382      75657565 
 3382      00
 3383              	.LASF59:
 3384 036f 77746F62 		.ascii	"wtobjp\000"
 3384      6A7000
 3385              	.LASF217:
 3386 0376 73657475 		.ascii	"setup_cb\000"
 3386      705F6362 
 3386      00
 3387              	.LASF115:
 3388 037f 75645F73 		.ascii	"ud_string\000"
 3388      7472696E 
 3388      6700
 3389              	.LASF218:
 3390 0389 696E5F63 		.ascii	"in_cb\000"
 3390      6200
 3391              	.LASF50:
 3392 038f 73746B61 		.ascii	"stkalign_t\000"
 3392      6C69676E 
 3392      5F7400
 3393              	.LASF72:
 3394 039a 4F757470 		.ascii	"OutputQueue\000"
 3394      75745175 
 3394      65756500 
 3395              	.LASF164:
 3396 03a6 48464E55 		.ascii	"HFNUM\000"
 3396      4D00
 3397              	.LASF119:
 3398 03ac 75736265 		.ascii	"usbeventcb_t\000"
 3398      76656E74 
 3398      63625F74 
 3398      00
 3399              	.LASF130:
 3400 03b9 73746D33 		.ascii	"stm32_otg_host_chn_t\000"
 3400      325F6F74 
 3400      675F686F 
 3400      73745F63 
 3400      686E5F74 
 3401              	.LASF77:
 3402 03ce 7472616E 		.ascii	"transmitting\000"
 3402      736D6974 
 3402      74696E67 
 3402      00
ARM GAS  /tmp/ccIuhau9.s 			page 64


 3403              	.LASF126:
 3404 03db 48435453 		.ascii	"HCTSIZ\000"
 3404      495A00
 3405              	.LASF209:
 3406 03e2 55534249 		.ascii	"USBInEndpointState\000"
 3406      6E456E64 
 3406      706F696E 
 3406      74537461 
 3406      746500
 3407              	.LASF181:
 3408 03f5 72657376 		.ascii	"resvd820\000"
 3408      64383230 
 3408      00
 3409              	.LASF182:
 3410 03fe 72657376 		.ascii	"resvd824\000"
 3410      64383234 
 3410      00
 3411              	.LASF184:
 3412 0407 44564255 		.ascii	"DVBUSPULSE\000"
 3412      5350554C 
 3412      534500
 3413              	.LASF257:
 3414 0412 63685468 		.ascii	"chThdSleep\000"
 3414      64536C65 
 3414      657000
 3415              	.LASF186:
 3416 041d 44494550 		.ascii	"DIEPEMPMSK\000"
 3416      454D504D 
 3416      534B00
 3417              	.LASF116:
 3418 0428 55534244 		.ascii	"USBDescriptor\000"
 3418      65736372 
 3418      6970746F 
 3418      7200
 3419              	.LASF200:
 3420 0436 73746D33 		.ascii	"stm32_otg_params_t\000"
 3420      325F6F74 
 3420      675F7061 
 3420      72616D73 
 3420      5F7400
 3421              	.LASF83:
 3422 0449 73657475 		.ascii	"setup\000"
 3422      7000
 3423              	.LASF51:
 3424 044f 696E7463 		.ascii	"intctx\000"
 3424      747800
 3425              	.LASF43:
 3426 0456 705F6570 		.ascii	"p_epending\000"
 3426      656E6469 
 3426      6E6700
 3427              	.LASF147:
 3428 0461 47525354 		.ascii	"GRSTCTL\000"
 3428      43544C00 
 3429              	.LASF113:
 3430 0469 75736265 		.ascii	"usbevent_t\000"
 3430      76656E74 
 3430      5F7400
ARM GAS  /tmp/ccIuhau9.s 			page 65


 3431              	.LASF187:
 3432 0474 72657376 		.ascii	"resvd838\000"
 3432      64383338 
 3432      00
 3433              	.LASF114:
 3434 047d 75645F73 		.ascii	"ud_size\000"
 3434      697A6500 
 3435              	.LASF97:
 3436 0485 5553425F 		.ascii	"USB_SELECTED\000"
 3436      53454C45 
 3436      43544544 
 3436      00
 3437              	.LASF86:
 3438 0492 636F6E66 		.ascii	"configuration\000"
 3438      69677572 
 3438      6174696F 
 3438      6E00
 3439              	.LASF152:
 3440 04a0 47525846 		.ascii	"GRXFSIZ\000"
 3440      53495A00 
 3441              	.LASF63:
 3442 04a8 715F636F 		.ascii	"q_counter\000"
 3442      756E7465 
 3442      7200
 3443              	.LASF189:
 3444 04b2 72657376 		.ascii	"resvd840\000"
 3444      64383430 
 3444      00
 3445              	.LASF160:
 3446 04bb 44494550 		.ascii	"DIEPTXF\000"
 3446      54584600 
 3447              	.LASF9:
 3448 04c3 6C6F6E67 		.ascii	"long unsigned int\000"
 3448      20756E73 
 3448      69676E65 
 3448      6420696E 
 3448      7400
 3449              	.LASF84:
 3450 04d5 73746174 		.ascii	"status\000"
 3450      757300
 3451              	.LASF76:
 3452 04dc 70617261 		.ascii	"param\000"
 3452      6D00
 3453              	.LASF85:
 3454 04e2 61646472 		.ascii	"address\000"
 3454      65737300 
 3455              	.LASF82:
 3456 04ea 65703065 		.ascii	"ep0endcb\000"
 3456      6E646362 
 3456      00
 3457              	.LASF145:
 3458 04f3 47414842 		.ascii	"GAHBCFG\000"
 3458      43464700 
 3459              	.LASF224:
 3460 04fb 696E5F6D 		.ascii	"in_multiplier\000"
 3460      756C7469 
 3460      706C6965 
ARM GAS  /tmp/ccIuhau9.s 			page 66


 3460      7200
 3461              	.LASF246:
 3462 0509 75736270 		.ascii	"usbp\000"
 3462      00
 3463              	.LASF199:
 3464 050e 6E756D5F 		.ascii	"num_endpoints\000"
 3464      656E6470 
 3464      6F696E74 
 3464      7300
 3465              	.LASF66:
 3466 051c 715F7772 		.ascii	"q_wrptr\000"
 3466      70747200 
 3467              	.LASF206:
 3468 0524 74787369 		.ascii	"txsize\000"
 3468      7A6500
 3469              	.LASF90:
 3470 052b 7468645F 		.ascii	"thd_ptr\000"
 3470      70747200 
 3471              	.LASF249:
 3472 0533 68616C49 		.ascii	"halInit\000"
 3472      6E697400 
 3473              	.LASF214:
 3474 053b 7278636E 		.ascii	"rxcnt\000"
 3474      7400
 3475              	.LASF99:
 3476 0541 75736273 		.ascii	"usbstate_t\000"
 3476      74617465 
 3476      5F7400
 3477              	.LASF165:
 3478 054c 72657376 		.ascii	"resvd40C\000"
 3478      64343043 
 3478      00
 3479              	.LASF143:
 3480 0555 474F5447 		.ascii	"GOTGCTL\000"
 3480      43544C00 
 3481              	.LASF210:
 3482 055d 72786275 		.ascii	"rxbuf\000"
 3482      6600
 3483              	.LASF151:
 3484 0563 47525853 		.ascii	"GRXSTSP\000"
 3484      54535000 
 3485              	.LASF222:
 3486 056b 696E5F73 		.ascii	"in_state\000"
 3486      74617465 
 3486      00
 3487              	.LASF150:
 3488 0574 47525853 		.ascii	"GRXSTSR\000"
 3488      54535200 
 3489              	.LASF111:
 3490 057c 5553425F 		.ascii	"USB_EVENT_WAKEUP\000"
 3490      4556454E 
 3490      545F5741 
 3490      4B455550 
 3490      00
 3491              	.LASF193:
 3492 058d 50434743 		.ascii	"PCGCCTL\000"
 3492      43544C00 
ARM GAS  /tmp/ccIuhau9.s 			page 67


 3493              	.LASF227:
 3494 0595 6576656E 		.ascii	"event_cb\000"
 3494      745F6362 
 3494      00
 3495              	.LASF53:
 3496 059e 4D757465 		.ascii	"Mutex\000"
 3496      7800
 3497              	.LASF5:
 3498 05a4 6C6F6E67 		.ascii	"long long int\000"
 3498      206C6F6E 
 3498      6720696E 
 3498      7400
 3499              	.LASF96:
 3500 05b2 5553425F 		.ascii	"USB_READY\000"
 3500      52454144 
 3500      5900
 3501              	.LASF54:
 3502 05bc 6D5F7175 		.ascii	"m_queue\000"
 3502      65756500 
 3503              	.LASF169:
 3504 05c4 72657376 		.ascii	"resvd41C\000"
 3504      64343143 
 3504      00
 3505              	.LASF80:
 3506 05cd 6570306E 		.ascii	"ep0next\000"
 3506      65787400 
 3507              	.LASF254:
 3508 05d5 6D61696E 		.ascii	"main.c\000"
 3508      2E6300
 3509              	.LASF185:
 3510 05dc 72657376 		.ascii	"resvd830\000"
 3510      64383330 
 3510      00
 3511              	.LASF118:
 3512 05e5 75736265 		.ascii	"usbepcallback_t\000"
 3512      7063616C 
 3512      6C626163 
 3512      6B5F7400 
 3513              	.LASF190:
 3514 05f5 72657376 		.ascii	"resvd880\000"
 3514      64383830 
 3514      00
 3515              	.LASF242:
 3516 05fe 49544D5F 		.ascii	"ITM_RxBuffer\000"
 3516      52784275 
 3516      66666572 
 3516      00
 3517              	.LASF188:
 3518 060b 72657376 		.ascii	"resvd83C\000"
 3518      64383343 
 3518      00
 3519              	.LASF70:
 3520 0614 716E6F74 		.ascii	"qnotify_t\000"
 3520      6966795F 
 3520      7400
 3521              	.LASF40:
 3522 061e 705F7761 		.ascii	"p_waiting\000"
ARM GAS  /tmp/ccIuhau9.s 			page 68


 3522      6974696E 
 3522      6700
 3523              	.LASF36:
 3524 0628 705F666C 		.ascii	"p_flags\000"
 3524      61677300 
 3525              	.LASF141:
 3526 0630 444F4550 		.ascii	"DOEPTSIZ\000"
 3526      5453495A 
 3526      00
 3527              	.LASF167:
 3528 0639 4841494E 		.ascii	"HAINT\000"
 3528      5400
 3529              	.LASF0:
 3530 063f 756E7369 		.ascii	"unsigned int\000"
 3530      676E6564 
 3530      20696E74 
 3530      00
 3531              	.LASF231:
 3532 064c 55534243 		.ascii	"USBConfig\000"
 3532      6F6E6669 
 3532      6700
 3533              	.LASF89:
 3534 0656 74787065 		.ascii	"txpending\000"
 3534      6E64696E 
 3534      6700
 3535              	.LASF46:
 3536 0660 705F6D70 		.ascii	"p_mpool\000"
 3536      6F6F6C00 
 3537              	.LASF196:
 3538 0668 73746D33 		.ascii	"stm32_otg_t\000"
 3538      325F6F74 
 3538      675F7400 
 3539              	.LASF37:
 3540 0674 705F7265 		.ascii	"p_refs\000"
 3540      667300
 3541              	.LASF225:
 3542 067b 73657475 		.ascii	"setup_buf\000"
 3542      705F6275 
 3542      6600
 3543              	.LASF244:
 3544 0685 72656365 		.ascii	"receiveBuf\000"
 3544      69766542 
 3544      756600
 3545              	.LASF48:
 3546 0690 54687265 		.ascii	"ThreadsList\000"
 3546      6164734C 
 3546      69737400 
 3547              	.LASF171:
 3548 069c 72657376 		.ascii	"resvd444\000"
 3548      64343434 
 3548      00
 3549              	.LASF219:
 3550 06a5 6F75745F 		.ascii	"out_cb\000"
 3550      636200
 3551              	.LASF73:
 3552 06ac 55534244 		.ascii	"USBDriver\000"
 3552      72697665 
ARM GAS  /tmp/ccIuhau9.s 			page 69


 3552      7200
 3553              	.LASF168:
 3554 06b6 4841494E 		.ascii	"HAINTMSK\000"
 3554      544D534B 
 3554      00
 3555              	.LASF95:
 3556 06bf 5553425F 		.ascii	"USB_STOP\000"
 3556      53544F50 
 3556      00
 3557              	.LASF220:
 3558 06c8 696E5F6D 		.ascii	"in_maxsize\000"
 3558      61787369 
 3558      7A6500
 3559              	.LASF149:
 3560 06d3 47494E54 		.ascii	"GINTMSK\000"
 3560      4D534B00 
 3561              	.LASF39:
 3562 06db 705F7469 		.ascii	"p_time\000"
 3562      6D6500
 3563              	.LASF223:
 3564 06e2 6F75745F 		.ascii	"out_state\000"
 3564      73746174 
 3564      6500
 3565              	.LASF236:
 3566 06ec 73747269 		.ascii	"stringLanguage\000"
 3566      6E674C61 
 3566      6E677561 
 3566      676500
 3567              	.LASF45:
 3568 06fb 705F7265 		.ascii	"p_realprio\000"
 3568      616C7072 
 3568      696F00
 3569              	.LASF87:
 3570 0706 6F746770 		.ascii	"otgparams\000"
 3570      6172616D 
 3570      7300
 3571              	.LASF94:
 3572 0710 5553425F 		.ascii	"USB_UNINIT\000"
 3572      554E494E 
 3572      495400
 3573              	.LASF215:
 3574 071b 5553424F 		.ascii	"USBOutEndpointState\000"
 3574      7574456E 
 3574      64706F69 
 3574      6E745374 
 3574      61746500 
 3575              	.LASF245:
 3576 072f 7472616E 		.ascii	"transferBuf\000"
 3576      73666572 
 3576      42756600 
 3577              	.LASF192:
 3578 073b 72657376 		.ascii	"resvdD00\000"
 3578      64443030 
 3578      00
 3579              	.LASF6:
 3580 0744 6C6F6E67 		.ascii	"long long unsigned int\000"
 3580      206C6F6E 
ARM GAS  /tmp/ccIuhau9.s 			page 70


 3580      6720756E 
 3580      7369676E 
 3580      65642069 
 3581              	.LASF159:
 3582 075b 48505458 		.ascii	"HPTXFSIZ\000"
 3582      4653495A 
 3582      00
 3583              	.LASF32:
 3584 0764 705F6F6C 		.ascii	"p_older\000"
 3584      64657200 
 3585              	.LASF13:
 3586 076c 75696E74 		.ascii	"uint16_t\000"
 3586      31365F74 
 3586      00
 3587              	.LASF124:
 3588 0775 4843494E 		.ascii	"HCINT\000"
 3588      5400
 3589              	.LASF203:
 3590 077b 6C696E65 		.ascii	"linear\000"
 3590      617200
 3591              	.LASF23:
 3592 0782 6D73675F 		.ascii	"msg_t\000"
 3592      7400
 3593              	.LASF174:
 3594 0788 4443544C 		.ascii	"DCTL\000"
 3594      00
 3595              	.LASF226:
 3596 078d 55534245 		.ascii	"USBEndpointConfig\000"
 3596      6E64706F 
 3596      696E7443 
 3596      6F6E6669 
 3596      6700
 3597              	.LASF234:
 3598 079f 76636F6D 		.ascii	"vcom_configuration_descriptor_data\000"
 3598      5F636F6E 
 3598      66696775 
 3598      72617469 
 3598      6F6E5F64 
 3599              	.LASF125:
 3600 07c2 4843494E 		.ascii	"HCINTMSK\000"
 3600      544D534B 
 3600      00
 3601              	.LASF212:
 3602 07cb 72787175 		.ascii	"rxqueued\000"
 3602      65756564 
 3602      00
 3603              	.LASF21:
 3604 07d4 74736C69 		.ascii	"tslices_t\000"
 3604      6365735F 
 3604      7400
 3605              	.LASF144:
 3606 07de 474F5447 		.ascii	"GOTGINT\000"
 3606      494E5400 
 3607              	.LASF204:
 3608 07e6 71756575 		.ascii	"queue\000"
 3608      6500
 3609              	.LASF211:
ARM GAS  /tmp/ccIuhau9.s 			page 71


 3610 07ec 72787175 		.ascii	"rxqueue\000"
 3610      65756500 
 3611              	.LASF180:
 3612 07f4 4441494E 		.ascii	"DAINTMSK\000"
 3612      544D534B 
 3612      00
 3613              	.LASF183:
 3614 07fd 44564255 		.ascii	"DVBUSDIS\000"
 3614      53444953 
 3614      00
 3615              	.LASF138:
 3616 0806 73746D33 		.ascii	"stm32_otg_in_ep_t\000"
 3616      325F6F74 
 3616      675F696E 
 3616      5F65705F 
 3616      7400
 3617              	.LASF198:
 3618 0818 6F74675F 		.ascii	"otg_ram_size\000"
 3618      72616D5F 
 3618      73697A65 
 3618      00
 3619              	.LASF109:
 3620 0825 5553425F 		.ascii	"USB_EVENT_CONFIGURED\000"
 3620      4556454E 
 3620      545F434F 
 3620      4E464947 
 3620      55524544 
 3621              	.LASF195:
 3622 083a 4649464F 		.ascii	"FIFO\000"
 3622      00
 3623              	.LASF62:
 3624 083f 715F7761 		.ascii	"q_waiting\000"
 3624      6974696E 
 3624      6700
 3625              	.LASF18:
 3626 0849 746D6F64 		.ascii	"tmode_t\000"
 3626      655F7400 
 3627              	.LASF121:
 3628 0851 75736267 		.ascii	"usbgetdescriptor_t\000"
 3628      65746465 
 3628      73637269 
 3628      70746F72 
 3628      5F7400
 3629              	.LASF92:
 3630 0864 77615F70 		.ascii	"wa_pump\000"
 3630      756D7000 
 3631              	.LASF252:
 3632 086c 73656E64 		.ascii	"send_data\000"
 3632      5F646174 
 3632      6100
 3633              	.LASF3:
 3634 0876 73686F72 		.ascii	"short int\000"
 3634      7420696E 
 3634      7400
 3635              	.LASF16:
 3636 0880 75696E74 		.ascii	"uint64_t\000"
 3636      36345F74 
ARM GAS  /tmp/ccIuhau9.s 			page 72


 3636      00
 3637              	.LASF208:
 3638 0889 6D6F6465 		.ascii	"mode\000"
 3638      00
 3639              	.LASF107:
 3640 088e 5553425F 		.ascii	"USB_EVENT_RESET\000"
 3640      4556454E 
 3640      545F5245 
 3640      53455400 
 3641              	.LASF127:
 3642 089e 72657376 		.ascii	"resvd14\000"
 3642      64313400 
 3643              	.LASF128:
 3644 08a6 72657376 		.ascii	"resvd18\000"
 3644      64313800 
 3645              	.LASF136:
 3646 08ae 44545846 		.ascii	"DTXFSTS\000"
 3646      53545300 
 3647              	.LASF202:
 3648 08b6 74787175 		.ascii	"txqueue\000"
 3648      65756500 
 3649              	.LASF137:
 3650 08be 72657376 		.ascii	"resvd1C\000"
 3650      64314300 
 3651              	.LASF177:
 3652 08c6 44494550 		.ascii	"DIEPMSK\000"
 3652      4D534B00 
 3653              	.LASF248:
 3654 08ce 75736253 		.ascii	"usbStatus\000"
 3654      74617475 
 3654      7300
 3655              	.LASF247:
 3656 08d8 696E6974 		.ascii	"initUSB\000"
 3656      55534200 
 3657              	.LASF17:
 3658 08e0 626F6F6C 		.ascii	"bool_t\000"
 3658      5F7400
 3659              	.LASF129:
 3660 08e7 72657376 		.ascii	"resvd1c\000"
 3660      64316300 
 3661              	.LASF120:
 3662 08ef 75736272 		.ascii	"usbreqhandler_t\000"
 3662      65716861 
 3662      6E646C65 
 3662      725F7400 
 3663              	.LASF131:
 3664 08ff 44494550 		.ascii	"DIEPCTL\000"
 3664      43544C00 
 3665              	.LASF117:
 3666 0907 75736263 		.ascii	"usbcallback_t\000"
 3666      616C6C62 
 3666      61636B5F 
 3666      7400
 3667              	.LASF26:
 3668 0915 54687265 		.ascii	"Thread\000"
 3668      616400
 3669              	.LASF148:
ARM GAS  /tmp/ccIuhau9.s 			page 73


 3670 091c 47494E54 		.ascii	"GINTSTS\000"
 3670      53545300 
 3671              	.LASF232:
 3672 0924 76636F6D 		.ascii	"vcom_device_descriptor_data\000"
 3672      5F646576 
 3672      6963655F 
 3672      64657363 
 3672      72697074 
 3673              	.LASF133:
 3674 0940 44494550 		.ascii	"DIEPINT\000"
 3674      494E5400 
 3675              	.LASF154:
 3676 0948 484E5054 		.ascii	"HNPTXSTS\000"
 3676      58535453 
 3676      00
 3677              	.LASF243:
 3678 0951 55534244 		.ascii	"USBD1\000"
 3678      3100
 3679              	.LASF20:
 3680 0957 74726566 		.ascii	"trefs_t\000"
 3680      735F7400 
 3681              	.LASF230:
 3682 095f 736F665F 		.ascii	"sof_cb\000"
 3682      636200
 3683              	.LASF194:
 3684 0966 72657376 		.ascii	"resvdE04\000"
 3684      64453034 
 3684      00
 3685              	.LASF155:
 3686 096f 72657376 		.ascii	"resvd30\000"
 3686      64333000 
 3687              	.LASF191:
 3688 0977 72657376 		.ascii	"resvd8C0\000"
 3688      64384330 
 3688      00
 3689              	.LASF156:
 3690 0980 72657376 		.ascii	"resvd34\000"
 3690      64333400 
 3691              	.LASF250:
 3692 0988 63685379 		.ascii	"chSysInit\000"
 3692      73496E69 
 3692      7400
 3693              	.LASF15:
 3694 0992 75696E74 		.ascii	"uint32_t\000"
 3694      33325F74 
 3694      00
 3695              	.LASF93:
 3696 099b 75736265 		.ascii	"usbep_t\000"
 3696      705F7400 
 3697              	.LASF47:
 3698 09a3 54687265 		.ascii	"ThreadsQueue\000"
 3698      61647351 
 3698      75657565 
 3698      00
 3699              	.LASF110:
 3700 09b0 5553425F 		.ascii	"USB_EVENT_SUSPEND\000"
 3700      4556454E 
ARM GAS  /tmp/ccIuhau9.s 			page 74


 3700      545F5355 
 3700      5350454E 
 3700      4400
 3701              	.LASF57:
 3702 09c2 7264796D 		.ascii	"rdymsg\000"
 3702      736700
 3703              	.LASF4:
 3704 09c9 73686F72 		.ascii	"short unsigned int\000"
 3704      7420756E 
 3704      7369676E 
 3704      65642069 
 3704      6E7400
 3705              	.LASF175:
 3706 09dc 44535453 		.ascii	"DSTS\000"
 3706      00
 3707              	.LASF228:
 3708 09e1 6765745F 		.ascii	"get_descriptor_cb\000"
 3708      64657363 
 3708      72697074 
 3708      6F725F63 
 3708      6200
 3709              	.LASF71:
 3710 09f3 496E7075 		.ascii	"InputQueue\000"
 3710      74517565 
 3710      756500
 3711              	.LASF34:
 3712 09fe 705F7374 		.ascii	"p_stklimit\000"
 3712      6B6C696D 
 3712      697400
 3713              	.LASF166:
 3714 0a09 48505458 		.ascii	"HPTXSTS\000"
 3714      53545300 
 3715              	.LASF158:
 3716 0a11 72657376 		.ascii	"resvd58\000"
 3716      64353800 
 3717              	.LASF104:
 3718 0a19 5553425F 		.ascii	"USB_EP0_SENDING_STS\000"
 3718      4550305F 
 3718      53454E44 
 3718      494E475F 
 3718      53545300 
 3719              	.LASF163:
 3720 0a2d 48464952 		.ascii	"HFIR\000"
 3720      00
 3721              	.LASF102:
 3722 0a32 5553425F 		.ascii	"USB_EP0_WAITING_STS\000"
 3722      4550305F 
 3722      57414954 
 3722      494E475F 
 3722      53545300 
 3723              	.LASF33:
 3724 0a46 705F6E61 		.ascii	"p_name\000"
 3724      6D6500
 3725              	.LASF56:
 3726 0a4d 6D5F6E65 		.ascii	"m_next\000"
 3726      787400
 3727              	.LASF88:
ARM GAS  /tmp/ccIuhau9.s 			page 75


 3728 0a54 706D6E65 		.ascii	"pmnext\000"
 3728      787400
 3729              	.LASF205:
 3730 0a5b 74787175 		.ascii	"txqueued\000"
 3730      65756564 
 3730      00
 3731              	.LASF146:
 3732 0a64 47555342 		.ascii	"GUSBCFG\000"
 3732      43464700 
 3733              	.LASF103:
 3734 0a6c 5553425F 		.ascii	"USB_EP0_RX\000"
 3734      4550305F 
 3734      525800
 3735              	.LASF161:
 3736 0a77 72657376 		.ascii	"resvd140\000"
 3736      64313430 
 3736      00
 3737              	.LASF42:
 3738 0a80 705F6D73 		.ascii	"p_msg\000"
 3738      6700
 3739              	.LASF35:
 3740 0a86 705F7374 		.ascii	"p_state\000"
 3740      61746500 
 3741              		.ident	"GCC: (GNU Tools for ARM Embedded Processors) 4.7.3 20130312 (release) [ARM/embedded-4_7-br
ARM GAS  /tmp/ccIuhau9.s 			page 76


DEFINED SYMBOLS
                            *ABS*:00000000 main.c
     /tmp/ccIuhau9.s:19     .text.startup.main:00000000 $t
     /tmp/ccIuhau9.s:25     .text.startup.main:00000000 main
     /tmp/ccIuhau9.s:79     .text.startup.main:00000038 $d
     /tmp/ccIuhau9.s:98     .bss.usbStatus:00000000 usbStatus
     /tmp/ccIuhau9.s:117    .bss.initUSB:00000000 initUSB
     /tmp/ccIuhau9.s:93     .data.usbp:00000000 usbp
     /tmp/ccIuhau9.s:105    .bss.transferBuf:00000000 transferBuf
     /tmp/ccIuhau9.s:111    .bss.receiveBuf:00000000 receiveBuf
     /tmp/ccIuhau9.s:90     .data.usbp:00000000 $d
     /tmp/ccIuhau9.s:99     .bss.usbStatus:00000000 $d
     /tmp/ccIuhau9.s:101    .bss.transferBuf:00000000 $d
     /tmp/ccIuhau9.s:108    .bss.receiveBuf:00000000 $d
     /tmp/ccIuhau9.s:118    .bss.initUSB:00000000 $d
                     .debug_frame:00000010 $d

UNDEFINED SYMBOLS
halInit
chSysInit
myUSBinit
chThdSleep
send_data
USBD1
