ARM GAS  /tmp/cc6ZvnxP.s 			page 1


   1              		.syntax unified
   2              		.cpu cortex-m4
   3              		.fpu softvfp
   4              		.eabi_attribute 20, 1
   5              		.eabi_attribute 21, 1
   6              		.eabi_attribute 23, 3
   7              		.eabi_attribute 24, 1
   8              		.eabi_attribute 25, 1
   9              		.eabi_attribute 26, 1
  10              		.eabi_attribute 30, 2
  11              		.eabi_attribute 34, 1
  12              		.eabi_attribute 18, 4
  13              		.thumb
  14              		.file	"nvic.c"
  15              		.text
  16              	.Ltext0:
  17              		.cfi_sections	.debug_frame
  18              		.section	.text.nvicEnableVector,"ax",%progbits
  19              		.align	2
  20              		.p2align 4,,15
  21              		.global	nvicEnableVector
  22              		.thumb
  23              		.thumb_func
  24              		.type	nvicEnableVector, %function
  25              	nvicEnableVector:
  26              	.LFB7:
  27              		.file 1 "/home/gokul/ChibiOS_2.5.0/os/ports/common/ARMCMx/nvic.c"
  28              		.loc 1 39 0
  29              		.cfi_startproc
  30              		@ args = 0, pretend = 0, frame = 0
  31              		@ frame_needed = 0, uses_anonymous_args = 0
  32              		@ link register save eliminated.
  33              	.LVL0:
  34 0000 F0B4     		push	{r4, r5, r6, r7}
  35              	.LCFI0:
  36              		.cfi_def_cfa_offset 16
  37              		.cfi_offset 4, -16
  38              		.cfi_offset 5, -12
  39              		.cfi_offset 6, -8
  40              		.cfi_offset 7, -4
  41              		.loc 1 42 0
  42 0002 4FF46143 		mov	r3, #57600
  43 0006 8408     		lsrs	r4, r0, #2
  44 0008 CEF20003 		movt	r3, 57344
  45 000c C034     		adds	r4, r4, #192
  46              		.loc 1 40 0
  47 000e 00F00305 		and	r5, r0, #3
  48              		.loc 1 42 0
  49 0012 53F82470 		ldr	r7, [r3, r4, lsl #2]
  50              		.loc 1 40 0
  51 0016 ED00     		lsls	r5, r5, #3
  52              	.LVL1:
  53              		.loc 1 42 0
  54 0018 FF26     		movs	r6, #255
  55              		.loc 1 43 0
  56 001a 4209     		lsrs	r2, r0, #5
  57              		.loc 1 42 0
ARM GAS  /tmp/cc6ZvnxP.s 			page 2


  58 001c 06FA05F6 		lsl	r6, r6, r5
  59 0020 27EA0606 		bic	r6, r7, r6
  60 0024 01FA05F5 		lsl	r5, r1, r5
  61              	.LVL2:
  62              		.loc 1 43 0
  63 0028 00F01F00 		and	r0, r0, #31
  64              	.LVL3:
  65 002c 02F16007 		add	r7, r2, #96
  66 0030 0121     		movs	r1, #1
  67              	.LVL4:
  68 0032 01FA00F0 		lsl	r0, r1, r0
  69              		.loc 1 42 0
  70 0036 2E43     		orrs	r6, r6, r5
  71 0038 43F82460 		str	r6, [r3, r4, lsl #2]
  72              		.loc 1 43 0
  73 003c 43F82700 		str	r0, [r3, r7, lsl #2]
  74              		.loc 1 44 0
  75 0040 43F82200 		str	r0, [r3, r2, lsl #2]
  76              		.loc 1 45 0
  77 0044 F0BC     		pop	{r4, r5, r6, r7}
  78 0046 7047     		bx	lr
  79              		.cfi_endproc
  80              	.LFE7:
  81              		.size	nvicEnableVector, .-nvicEnableVector
  82 0048 AFF30080 		.section	.text.nvicDisableVector,"ax",%progbits
  82      AFF30080 
  83              		.align	2
  84              		.p2align 4,,15
  85              		.global	nvicDisableVector
  86              		.thumb
  87              		.thumb_func
  88              		.type	nvicDisableVector, %function
  89              	nvicDisableVector:
  90              	.LFB8:
  91              		.loc 1 53 0
  92              		.cfi_startproc
  93              		@ args = 0, pretend = 0, frame = 0
  94              		@ frame_needed = 0, uses_anonymous_args = 0
  95              		@ link register save eliminated.
  96              	.LVL5:
  97              		.loc 1 56 0
  98 0000 4109     		lsrs	r1, r0, #5
  99 0002 4FF46143 		mov	r3, #57600
 100              		.loc 1 53 0
 101 0006 10B4     		push	{r4}
 102              	.LCFI1:
 103              		.cfi_def_cfa_offset 4
 104              		.cfi_offset 4, -4
 105              		.loc 1 56 0
 106 0008 CEF20003 		movt	r3, 57344
 107 000c 00F01F02 		and	r2, r0, #31
 108 0010 2031     		adds	r1, r1, #32
 109 0012 0124     		movs	r4, #1
 110 0014 04FA02F4 		lsl	r4, r4, r2
 111              		.loc 1 57 0
 112 0018 8208     		lsrs	r2, r0, #2
 113              		.loc 1 56 0
ARM GAS  /tmp/cc6ZvnxP.s 			page 3


 114 001a 43F82140 		str	r4, [r3, r1, lsl #2]
 115              		.loc 1 57 0
 116 001e C032     		adds	r2, r2, #192
 117              		.loc 1 54 0
 118 0020 00F00300 		and	r0, r0, #3
 119              	.LVL6:
 120              		.loc 1 57 0
 121 0024 53F82210 		ldr	r1, [r3, r2, lsl #2]
 122              		.loc 1 54 0
 123 0028 C000     		lsls	r0, r0, #3
 124              	.LVL7:
 125              		.loc 1 57 0
 126 002a FF24     		movs	r4, #255
 127 002c 04FA00F0 		lsl	r0, r4, r0
 128              	.LVL8:
 129 0030 21EA0001 		bic	r1, r1, r0
 130 0034 43F82210 		str	r1, [r3, r2, lsl #2]
 131              		.loc 1 58 0
 132 0038 10BC     		pop	{r4}
 133 003a 7047     		bx	lr
 134              		.cfi_endproc
 135              	.LFE8:
 136              		.size	nvicDisableVector, .-nvicDisableVector
 137 003c AFF30080 		.section	.text.nvicSetSystemHandlerPriority,"ax",%progbits
 138              		.align	2
 139              		.p2align 4,,15
 140              		.global	nvicSetSystemHandlerPriority
 141              		.thumb
 142              		.thumb_func
 143              		.type	nvicSetSystemHandlerPriority, %function
 144              	nvicSetSystemHandlerPriority:
 145              	.LFB9:
 146              		.loc 1 67 0
 147              		.cfi_startproc
 148              		@ args = 0, pretend = 0, frame = 0
 149              		@ frame_needed = 0, uses_anonymous_args = 0
 150              		@ link register save eliminated.
 151              	.LVL9:
 152              		.loc 1 70 0
 153 0000 8208     		lsrs	r2, r0, #2
 154 0002 4FF46D43 		mov	r3, #60672
 155 0006 CEF20003 		movt	r3, 57344
 156 000a 0632     		adds	r2, r2, #6
 157              		.loc 1 68 0
 158 000c 00F00300 		and	r0, r0, #3
 159              	.LVL10:
 160              		.loc 1 67 0
 161 0010 30B4     		push	{r4, r5}
 162              	.LCFI2:
 163              		.cfi_def_cfa_offset 8
 164              		.cfi_offset 4, -8
 165              		.cfi_offset 5, -4
 166              		.loc 1 68 0
 167 0012 C000     		lsls	r0, r0, #3
 168              	.LVL11:
 169              		.loc 1 70 0
 170 0014 53F82250 		ldr	r5, [r3, r2, lsl #2]
ARM GAS  /tmp/cc6ZvnxP.s 			page 4


 171              		.loc 1 71 0
 172 0018 FF24     		movs	r4, #255
 173 001a 04FA00F4 		lsl	r4, r4, r0
 174              		.loc 1 70 0
 175 001e 25EA0404 		bic	r4, r5, r4
 176              		.loc 1 71 0
 177 0022 01FA00F1 		lsl	r1, r1, r0
 178              	.LVL12:
 179 0026 0C43     		orrs	r4, r4, r1
 180              		.loc 1 70 0
 181 0028 43F82240 		str	r4, [r3, r2, lsl #2]
 182              		.loc 1 72 0
 183 002c 30BC     		pop	{r4, r5}
 184 002e 7047     		bx	lr
 185              		.cfi_endproc
 186              	.LFE9:
 187              		.size	nvicSetSystemHandlerPriority, .-nvicSetSystemHandlerPriority
 188              		.text
 189              	.Letext0:
 190              		.file 2 "/opt/gcc-arm-none-eabi-4_7-2013q1/bin/../lib/gcc/arm-none-eabi/4.7.3/../../../../arm-none
 191              		.file 3 "/home/gokul/ChibiOS_2.5.0/os/ports/common/ARMCMx/nvic.h"