ARM GAS  /tmp/ccvnBwqS.s 			page 1


   1              		.syntax unified
   2              		.cpu cortex-m4
   3              		.fpu softvfp
   4              		.eabi_attribute 20, 1
   5              		.eabi_attribute 21, 1
   6              		.eabi_attribute 23, 3
   7              		.eabi_attribute 24, 1
   8              		.eabi_attribute 25, 1
   9              		.eabi_attribute 26, 1
  10              		.eabi_attribute 30, 2
  11              		.eabi_attribute 34, 1
  12              		.eabi_attribute 18, 4
  13              		.thumb
  14              		.file	"serial_usb.c"
  15              		.text
  16              	.Ltext0:
  17              		.cfi_sections	.debug_frame
  18              		.section	.text.getflags,"ax",%progbits
  19              		.align	2
  20              		.p2align 4,,15
  21              		.thumb
  22              		.thumb_func
  23              		.type	getflags, %function
  24              	getflags:
  25              	.LFB126:
  26              		.file 1 "/home/gokul/ChibiOS_2.5.0/os/hal/src/serial_usb.c"
  27              		.loc 1 106 0
  28              		.cfi_startproc
  29              		@ args = 0, pretend = 0, frame = 0
  30              		@ frame_needed = 0, uses_anonymous_args = 0
  31              	.LVL0:
  32 0000 70B5     		push	{r4, r5, r6, lr}
  33              	.LCFI0:
  34              		.cfi_def_cfa_offset 16
  35              		.cfi_offset 4, -16
  36              		.cfi_offset 5, -12
  37              		.cfi_offset 6, -8
  38              		.cfi_offset 14, -4
  39              	.LBB2:
  40              		.loc 1 107 0
  41 0002 2023     		movs	r3, #32
  42              	.LVL1:
  43              	.LBE2:
  44              		.loc 1 106 0
  45 0004 0546     		mov	r5, r0
  46              	.LBB3:
  47              		.loc 1 107 0
  48              	@ 107 "/home/gokul/ChibiOS_2.5.0/os/hal/src/serial_usb.c" 1
  49 0006 83F31188 		msr     BASEPRI, r3
  50              	@ 0 "" 2
  51              	.LVL2:
  52              		.thumb
  53              	.LBE3:
  54 000a 0024     		movs	r4, #0
  55 000c FFF7FEFF 		bl	dbg_check_lock
  56              	.LVL3:
  57 0010 AE68     		ldr	r6, [r5, #8]
ARM GAS  /tmp/ccvnBwqS.s 			page 2


  58              	.LVL4:
  59 0012 AC60     		str	r4, [r5, #8]
  60 0014 FFF7FEFF 		bl	dbg_check_unlock
  61              	.LVL5:
  62              	.LBB4:
  63 0018 2346     		mov	r3, r4
  64              	.LVL6:
  65              	@ 107 "/home/gokul/ChibiOS_2.5.0/os/hal/src/serial_usb.c" 1
  66 001a 83F31188 		msr     BASEPRI, r3
  67              	@ 0 "" 2
  68              	.LVL7:
  69              		.thumb
  70              	.LBE4:
  71              		.loc 1 108 0
  72 001e 3046     		mov	r0, r6
  73 0020 70BD     		pop	{r4, r5, r6, pc}
  74              		.cfi_endproc
  75              	.LFE126:
  76              		.size	getflags, .-getflags
  77 0022 00BFAFF3 		.section	.text.onotify,"ax",%progbits
  77      0080AFF3 
  77      0080AFF3 
  77      0080
  78              		.align	2
  79              		.p2align 4,,15
  80              		.thumb
  81              		.thumb_func
  82              		.type	onotify, %function
  83              	onotify:
  84              	.LFB128:
  85              		.loc 1 149 0
  86              		.cfi_startproc
  87              		@ args = 0, pretend = 0, frame = 0
  88              		@ frame_needed = 0, uses_anonymous_args = 0
  89              	.LVL8:
  90 0000 70B5     		push	{r4, r5, r6, lr}
  91              	.LCFI1:
  92              		.cfi_def_cfa_offset 16
  93              		.cfi_offset 4, -16
  94              		.cfi_offset 5, -12
  95              		.cfi_offset 6, -8
  96              		.cfi_offset 14, -4
  97              		.loc 1 151 0
  98 0002 046A     		ldr	r4, [r0, #32]
  99              	.LVL9:
 100              		.loc 1 155 0
 101 0004 D4F85832 		ldr	r3, [r4, #600]
 102 0008 1868     		ldr	r0, [r3, #0]
 103              	.LVL10:
 104 000a 0278     		ldrb	r2, [r0, #0]	@ zero_extendqisi2
 105 000c 042A     		cmp	r2, #4
 106 000e 00D0     		beq	.L8
 107              	.L2:
 108 0010 70BD     		pop	{r4, r5, r6, pc}
 109              	.L8:
 110              		.loc 1 160 0
 111 0012 8589     		ldrh	r5, [r0, #12]
ARM GAS  /tmp/ccvnBwqS.s 			page 3


 112 0014 05F00201 		and	r1, r5, #2
 113 0018 8DB2     		uxth	r5, r1
 114 001a 002D     		cmp	r5, #0
 115 001c F8D1     		bne	.L2
 116              		.loc 1 161 0 discriminator 1
 117 001e 666C     		ldr	r6, [r4, #68]
 118 0020 206C     		ldr	r0, [r4, #64]
 119 0022 E36B     		ldr	r3, [r4, #60]
 120 0024 321A     		subs	r2, r6, r0
 121              	.LVL11:
 122              		.loc 1 160 0 discriminator 1
 123 0026 D61A     		subs	r6, r2, r3
 124              	.LVL12:
 125 0028 F2D0     		beq	.L2
 126              		.loc 1 162 0
 127 002a FFF7FEFF 		bl	dbg_check_unlock
 128              	.LVL13:
 129              	.LBB5:
 130 002e 2B46     		mov	r3, r5
 131              	.LVL14:
 132              	@ 162 "/home/gokul/ChibiOS_2.5.0/os/hal/src/serial_usb.c" 1
 133 0030 83F31188 		msr     BASEPRI, r3
 134              	@ 0 "" 2
 135              	.LVL15:
 136              		.thumb
 137              	.LBE5:
 138              		.loc 1 164 0
 139 0034 D4F85812 		ldr	r1, [r4, #600]
 140 0038 3346     		mov	r3, r6
 141              	.LVL16:
 142 003a 0868     		ldr	r0, [r1, #0]
 143 003c 04F13402 		add	r2, r4, #52
 144 0040 0121     		movs	r1, #1
 145 0042 FFF7FEFF 		bl	usbPrepareQueuedTransmit
 146              	.LVL17:
 147              	.LBB6:
 148              		.loc 1 168 0
 149 0046 2023     		movs	r3, #32
 150              	.LVL18:
 151              	@ 168 "/home/gokul/ChibiOS_2.5.0/os/hal/src/serial_usb.c" 1
 152 0048 83F31188 		msr     BASEPRI, r3
 153              	@ 0 "" 2
 154              	.LVL19:
 155              		.thumb
 156              	.LBE6:
 157 004c FFF7FEFF 		bl	dbg_check_lock
 158              	.LVL20:
 159              		.loc 1 169 0
 160 0050 D4F85802 		ldr	r0, [r4, #600]
 161 0054 0068     		ldr	r0, [r0, #0]
 162 0056 0121     		movs	r1, #1
 163              		.loc 1 171 0
 164 0058 BDE87040 		pop	{r4, r5, r6, lr}
 165              		.loc 1 169 0
 166 005c FFF7FEBF 		b	usbStartTransmitI
 167              	.LVL21:
 168              		.cfi_endproc
ARM GAS  /tmp/ccvnBwqS.s 			page 4


 169              	.LFE128:
 170              		.size	onotify, .-onotify
 171              		.section	.text.inotify,"ax",%progbits
 172              		.align	2
 173              		.p2align 4,,15
 174              		.thumb
 175              		.thumb_func
 176              		.type	inotify, %function
 177              	inotify:
 178              	.LFB127:
 179              		.loc 1 119 0
 180              		.cfi_startproc
 181              		@ args = 0, pretend = 0, frame = 0
 182              		@ frame_needed = 0, uses_anonymous_args = 0
 183              	.LVL22:
 184 0000 F8B5     		push	{r3, r4, r5, r6, r7, lr}
 185              	.LCFI2:
 186              		.cfi_def_cfa_offset 24
 187              		.cfi_offset 3, -24
 188              		.cfi_offset 4, -20
 189              		.cfi_offset 5, -16
 190              		.cfi_offset 6, -12
 191              		.cfi_offset 7, -8
 192              		.cfi_offset 14, -4
 193              		.loc 1 121 0
 194 0002 046A     		ldr	r4, [r0, #32]
 195              	.LVL23:
 196              		.loc 1 125 0
 197 0004 D4F85832 		ldr	r3, [r4, #600]
 198 0008 1A68     		ldr	r2, [r3, #0]
 199 000a 1078     		ldrb	r0, [r2, #0]	@ zero_extendqisi2
 200              	.LVL24:
 201 000c 0428     		cmp	r0, #4
 202 000e 00D0     		beq	.L11
 203              	.L9:
 204 0010 F8BD     		pop	{r3, r4, r5, r6, r7, pc}
 205              	.L11:
 206              		.loc 1 132 0
 207 0012 D589     		ldrh	r5, [r2, #14]
 208              		.loc 1 131 0
 209 0014 5169     		ldr	r1, [r2, #20]
 210              		.loc 1 132 0
 211 0016 05F00206 		and	r6, r5, #2
 212 001a B5B2     		uxth	r5, r6
 213              		.loc 1 131 0
 214 001c 4E8A     		ldrh	r6, [r1, #18]
 215              	.LVL25:
 216              		.loc 1 132 0
 217 001e 002D     		cmp	r5, #0
 218 0020 F6D1     		bne	.L9
 219              		.loc 1 133 0 discriminator 1
 220 0022 276A     		ldr	r7, [r4, #32]
 221 0024 E269     		ldr	r2, [r4, #28]
 222 0026 A369     		ldr	r3, [r4, #24]
 223 0028 B81A     		subs	r0, r7, r2
 224 002a C71A     		subs	r7, r0, r3
 225              	.LVL26:
ARM GAS  /tmp/ccvnBwqS.s 			page 5


 226              		.loc 1 132 0 discriminator 1
 227 002c BE42     		cmp	r6, r7
 228 002e EFD8     		bhi	.L9
 229              		.loc 1 134 0
 230 0030 FFF7FEFF 		bl	dbg_check_unlock
 231              	.LVL27:
 232              	.LBB7:
 233 0034 2B46     		mov	r3, r5
 234              	.LVL28:
 235              	@ 134 "/home/gokul/ChibiOS_2.5.0/os/hal/src/serial_usb.c" 1
 236 0036 83F31188 		msr     BASEPRI, r3
 237              	@ 0 "" 2
 238              	.LVL29:
 239              		.thumb
 240              	.LBE7:
 241              		.loc 1 137 0
 242 003a D4F85812 		ldr	r1, [r4, #600]
 243              		.loc 1 136 0
 244 003e B7FBF6F3 		udiv	r3, r7, r6
 245              	.LVL30:
 246              		.loc 1 137 0
 247 0042 06FB03F3 		mul	r3, r6, r3
 248              	.LVL31:
 249 0046 0868     		ldr	r0, [r1, #0]
 250 0048 04F11002 		add	r2, r4, #16
 251 004c 0121     		movs	r1, #1
 252 004e FFF7FEFF 		bl	usbPrepareQueuedReceive
 253              	.LVL32:
 254              	.LBB8:
 255              		.loc 1 141 0
 256 0052 2023     		movs	r3, #32
 257              	.LVL33:
 258              	@ 141 "/home/gokul/ChibiOS_2.5.0/os/hal/src/serial_usb.c" 1
 259 0054 83F31188 		msr     BASEPRI, r3
 260              	@ 0 "" 2
 261              	.LVL34:
 262              		.thumb
 263              	.LBE8:
 264 0058 FFF7FEFF 		bl	dbg_check_lock
 265              	.LVL35:
 266              		.loc 1 142 0
 267 005c D4F85822 		ldr	r2, [r4, #600]
 268 0060 1068     		ldr	r0, [r2, #0]
 269 0062 0121     		movs	r1, #1
 270              		.loc 1 144 0
 271 0064 BDE8F840 		pop	{r3, r4, r5, r6, r7, lr}
 272              		.loc 1 142 0
 273 0068 FFF7FEBF 		b	usbStartReceiveI
 274              	.LVL36:
 275              		.cfi_endproc
 276              	.LFE127:
 277              		.size	inotify, .-inotify
 278 006c AFF30080 		.section	.text.readt,"ax",%progbits
 279              		.align	2
 280              		.p2align 4,,15
 281              		.thumb
 282              		.thumb_func
ARM GAS  /tmp/ccvnBwqS.s 			page 6


 283              		.type	readt, %function
 284              	readt:
 285              	.LFB125:
 286              		.loc 1 101 0
 287              		.cfi_startproc
 288              		@ args = 0, pretend = 0, frame = 0
 289              		@ frame_needed = 0, uses_anonymous_args = 0
 290              		@ link register save eliminated.
 291              	.LVL37:
 292              		.loc 1 103 0
 293 0000 1030     		adds	r0, r0, #16
 294              	.LVL38:
 295              		.loc 1 104 0
 296              		.loc 1 103 0
 297 0002 FFF7FEBF 		b	chIQReadTimeout
 298              	.LVL39:
 299              		.cfi_endproc
 300              	.LFE125:
 301              		.size	readt, .-readt
 302 0006 00BFAFF3 		.section	.text.read,"ax",%progbits
 302      0080AFF3 
 302      0080
 303              		.align	2
 304              		.p2align 4,,15
 305              		.thumb
 306              		.thumb_func
 307              		.type	read, %function
 308              	read:
 309              	.LFB119:
 310              		.loc 1 70 0
 311              		.cfi_startproc
 312              		@ args = 0, pretend = 0, frame = 0
 313              		@ frame_needed = 0, uses_anonymous_args = 0
 314              		@ link register save eliminated.
 315              	.LVL40:
 316              		.loc 1 72 0
 317 0000 1030     		adds	r0, r0, #16
 318              	.LVL41:
 319 0002 4FF0FF33 		mov	r3, #-1
 320              		.loc 1 74 0
 321              		.loc 1 72 0
 322 0006 FFF7FEBF 		b	chIQReadTimeout
 323              	.LVL42:
 324              		.cfi_endproc
 325              	.LFE119:
 326              		.size	read, .-read
 327 000a 00BFAFF3 		.section	.text.writet,"ax",%progbits
 327      0080
 328              		.align	2
 329              		.p2align 4,,15
 330              		.thumb
 331              		.thumb_func
 332              		.type	writet, %function
 333              	writet:
 334              	.LFB124:
 335              		.loc 1 96 0
 336              		.cfi_startproc
ARM GAS  /tmp/ccvnBwqS.s 			page 7


 337              		@ args = 0, pretend = 0, frame = 0
 338              		@ frame_needed = 0, uses_anonymous_args = 0
 339              		@ link register save eliminated.
 340              	.LVL43:
 341              		.loc 1 98 0
 342 0000 3430     		adds	r0, r0, #52
 343              	.LVL44:
 344              		.loc 1 99 0
 345              		.loc 1 98 0
 346 0002 FFF7FEBF 		b	chOQWriteTimeout
 347              	.LVL45:
 348              		.cfi_endproc
 349              	.LFE124:
 350              		.size	writet, .-writet
 351 0006 00BFAFF3 		.section	.text.write,"ax",%progbits
 351      0080AFF3 
 351      0080
 352              		.align	2
 353              		.p2align 4,,15
 354              		.thumb
 355              		.thumb_func
 356              		.type	write, %function
 357              	write:
 358              	.LFB118:
 359              		.loc 1 64 0
 360              		.cfi_startproc
 361              		@ args = 0, pretend = 0, frame = 0
 362              		@ frame_needed = 0, uses_anonymous_args = 0
 363              		@ link register save eliminated.
 364              	.LVL46:
 365              		.loc 1 66 0
 366 0000 3430     		adds	r0, r0, #52
 367              	.LVL47:
 368 0002 4FF0FF33 		mov	r3, #-1
 369              		.loc 1 68 0
 370              		.loc 1 66 0
 371 0006 FFF7FEBF 		b	chOQWriteTimeout
 372              	.LVL48:
 373              		.cfi_endproc
 374              	.LFE118:
 375              		.size	write, .-write
 376 000a 00BFAFF3 		.section	.text.gett,"ax",%progbits
 376      0080
 377              		.align	2
 378              		.p2align 4,,15
 379              		.thumb
 380              		.thumb_func
 381              		.type	gett, %function
 382              	gett:
 383              	.LFB123:
 384              		.loc 1 91 0
 385              		.cfi_startproc
 386              		@ args = 0, pretend = 0, frame = 0
 387              		@ frame_needed = 0, uses_anonymous_args = 0
 388              		@ link register save eliminated.
 389              	.LVL49:
 390              		.loc 1 93 0
ARM GAS  /tmp/ccvnBwqS.s 			page 8


 391 0000 1030     		adds	r0, r0, #16
 392              	.LVL50:
 393              		.loc 1 94 0
 394              		.loc 1 93 0
 395 0002 FFF7FEBF 		b	chIQGetTimeout
 396              	.LVL51:
 397              		.cfi_endproc
 398              	.LFE123:
 399              		.size	gett, .-gett
 400 0006 00BFAFF3 		.section	.text.get,"ax",%progbits
 400      0080AFF3 
 400      0080
 401              		.align	2
 402              		.p2align 4,,15
 403              		.thumb
 404              		.thumb_func
 405              		.type	get, %function
 406              	get:
 407              	.LFB121:
 408              		.loc 1 81 0
 409              		.cfi_startproc
 410              		@ args = 0, pretend = 0, frame = 0
 411              		@ frame_needed = 0, uses_anonymous_args = 0
 412              		@ link register save eliminated.
 413              	.LVL52:
 414              		.loc 1 83 0
 415 0000 1030     		adds	r0, r0, #16
 416              	.LVL53:
 417 0002 4FF0FF31 		mov	r1, #-1
 418              		.loc 1 84 0
 419              		.loc 1 83 0
 420 0006 FFF7FEBF 		b	chIQGetTimeout
 421              	.LVL54:
 422              		.cfi_endproc
 423              	.LFE121:
 424              		.size	get, .-get
 425 000a 00BFAFF3 		.section	.text.putt,"ax",%progbits
 425      0080
 426              		.align	2
 427              		.p2align 4,,15
 428              		.thumb
 429              		.thumb_func
 430              		.type	putt, %function
 431              	putt:
 432              	.LFB122:
 433              		.loc 1 86 0
 434              		.cfi_startproc
 435              		@ args = 0, pretend = 0, frame = 0
 436              		@ frame_needed = 0, uses_anonymous_args = 0
 437              		@ link register save eliminated.
 438              	.LVL55:
 439              		.loc 1 88 0
 440 0000 3430     		adds	r0, r0, #52
 441              	.LVL56:
 442              		.loc 1 89 0
 443              		.loc 1 88 0
 444 0002 FFF7FEBF 		b	chOQPutTimeout
ARM GAS  /tmp/ccvnBwqS.s 			page 9


 445              	.LVL57:
 446              		.cfi_endproc
 447              	.LFE122:
 448              		.size	putt, .-putt
 449 0006 00BFAFF3 		.section	.text.put,"ax",%progbits
 449      0080AFF3 
 449      0080
 450              		.align	2
 451              		.p2align 4,,15
 452              		.thumb
 453              		.thumb_func
 454              		.type	put, %function
 455              	put:
 456              	.LFB120:
 457              		.loc 1 76 0
 458              		.cfi_startproc
 459              		@ args = 0, pretend = 0, frame = 0
 460              		@ frame_needed = 0, uses_anonymous_args = 0
 461              		@ link register save eliminated.
 462              	.LVL58:
 463              		.loc 1 78 0
 464 0000 3430     		adds	r0, r0, #52
 465              	.LVL59:
 466 0002 4FF0FF32 		mov	r2, #-1
 467              		.loc 1 79 0
 468              		.loc 1 78 0
 469 0006 FFF7FEBF 		b	chOQPutTimeout
 470              	.LVL60:
 471              		.cfi_endproc
 472              	.LFE120:
 473              		.size	put, .-put
 474 000a 00BFAFF3 		.section	.text.sduInit,"ax",%progbits
 474      0080
 475              		.align	2
 476              		.p2align 4,,15
 477              		.global	sduInit
 478              		.thumb
 479              		.thumb_func
 480              		.type	sduInit, %function
 481              	sduInit:
 482              	.LFB129:
 483              		.loc 1 184 0
 484              		.cfi_startproc
 485              		@ args = 0, pretend = 0, frame = 0
 486              		@ frame_needed = 0, uses_anonymous_args = 0
 487              		@ link register save eliminated.
 488 0000 7047     		bx	lr
 489              		.cfi_endproc
 490              	.LFE129:
 491              		.size	sduInit, .-sduInit
 492 0002 00BFAFF3 		.section	.text.sduObjectInit,"ax",%progbits
 492      0080AFF3 
 492      0080AFF3 
 492      0080
 493              		.align	2
 494              		.p2align 4,,15
 495              		.global	sduObjectInit
ARM GAS  /tmp/ccvnBwqS.s 			page 10


 496              		.thumb
 497              		.thumb_func
 498              		.type	sduObjectInit, %function
 499              	sduObjectInit:
 500              	.LFB130:
 501              		.loc 1 196 0
 502              		.cfi_startproc
 503              		@ args = 0, pretend = 0, frame = 0
 504              		@ frame_needed = 0, uses_anonymous_args = 0
 505              	.LVL61:
 506              		.loc 1 196 0
 507 0000 30B5     		push	{r4, r5, lr}
 508              	.LCFI3:
 509              		.cfi_def_cfa_offset 12
 510              		.cfi_offset 4, -12
 511              		.cfi_offset 5, -8
 512              		.cfi_offset 14, -4
 513              		.loc 1 198 0
 514 0002 40F20003 		movw	r3, #:lower16:.LANCHOR0
 515 0006 0546     		mov	r5, r0
 516 0008 C0F20003 		movt	r3, #:upper16:.LANCHOR0
 517              		.loc 1 196 0
 518 000c 0446     		mov	r4, r0
 519              		.loc 1 198 0
 520 000e 45F8043B 		str	r3, [r5], #4
 521              		.loc 1 196 0
 522 0012 83B0     		sub	sp, sp, #12
 523              	.LCFI4:
 524              		.cfi_def_cfa_offset 24
 525              		.loc 1 199 0
 526 0014 6560     		str	r5, [r4, #4]
 527              		.loc 1 200 0
 528 0016 0025     		movs	r5, #0
 529 0018 A560     		str	r5, [r4, #8]
 530              		.loc 1 202 0
 531 001a 40F20003 		movw	r3, #:lower16:inotify
 532              		.loc 1 201 0
 533 001e 0125     		movs	r5, #1
 534              		.loc 1 202 0
 535 0020 04F15801 		add	r1, r4, #88
 536              		.loc 1 201 0
 537 0024 2573     		strb	r5, [r4, #12]
 538              		.loc 1 202 0
 539 0026 00F11000 		add	r0, r0, #16
 540              	.LVL62:
 541 002a 4FF48072 		mov	r2, #256
 542 002e C0F20003 		movt	r3, #:upper16:inotify
 543 0032 0094     		str	r4, [sp, #0]
 544 0034 FFF7FEFF 		bl	chIQInit
 545              	.LVL63:
 546              		.loc 1 203 0
 547 0038 40F20003 		movw	r3, #:lower16:onotify
 548 003c 0094     		str	r4, [sp, #0]
 549 003e 04F13400 		add	r0, r4, #52
 550 0042 04F5AC71 		add	r1, r4, #344
 551 0046 4FF48072 		mov	r2, #256
 552 004a C0F20003 		movt	r3, #:upper16:onotify
ARM GAS  /tmp/ccvnBwqS.s 			page 11


 553 004e FFF7FEFF 		bl	chOQInit
 554              	.LVL64:
 555              		.loc 1 204 0
 556 0052 03B0     		add	sp, sp, #12
 557 0054 30BD     		pop	{r4, r5, pc}
 558              		.cfi_endproc
 559              	.LFE130:
 560              		.size	sduObjectInit, .-sduObjectInit
 561 0056 00BFAFF3 		.section	.text.sduStart,"ax",%progbits
 561      0080AFF3 
 561      0080
 562              		.align	2
 563              		.p2align 4,,15
 564              		.global	sduStart
 565              		.thumb
 566              		.thumb_func
 567              		.type	sduStart, %function
 568              	sduStart:
 569              	.LFB131:
 570              		.loc 1 214 0
 571              		.cfi_startproc
 572              		@ args = 0, pretend = 0, frame = 0
 573              		@ frame_needed = 0, uses_anonymous_args = 0
 574              	.LVL65:
 575 0000 38B5     		push	{r3, r4, r5, lr}
 576              	.LCFI5:
 577              		.cfi_def_cfa_offset 16
 578              		.cfi_offset 3, -16
 579              		.cfi_offset 4, -12
 580              		.cfi_offset 5, -8
 581              		.cfi_offset 14, -4
 582              		.loc 1 216 0
 583 0002 0446     		mov	r4, r0
 584              		.loc 1 214 0
 585 0004 0D46     		mov	r5, r1
 586              		.loc 1 216 0
 587 0006 B8B1     		cbz	r0, .L25
 588              	.LVL66:
 589              	.L23:
 590              	.LBB9:
 591              		.loc 1 218 0
 592 0008 2023     		movs	r3, #32
 593              	.LVL67:
 594              	@ 218 "/home/gokul/ChibiOS_2.5.0/os/hal/src/serial_usb.c" 1
 595 000a 83F31188 		msr     BASEPRI, r3
 596              	@ 0 "" 2
 597              	.LVL68:
 598              		.thumb
 599              	.LBE9:
 600 000e FFF7FEFF 		bl	dbg_check_lock
 601              	.LVL69:
 602              		.loc 1 219 0
 603 0012 237B     		ldrb	r3, [r4, #12]	@ zero_extendqisi2
 604 0014 581E     		subs	r0, r3, #1
 605 0016 0128     		cmp	r0, #1
 606 0018 02D9     		bls	.L24
 607              		.loc 1 219 0 is_stmt 0 discriminator 1
ARM GAS  /tmp/ccvnBwqS.s 			page 12


 608 001a 0948     		ldr	r0, .L26
 609 001c FFF7FEFF 		bl	chDbgPanic
 610              	.LVL70:
 611              	.L24:
 612              		.loc 1 223 0 is_stmt 1
 613 0020 2968     		ldr	r1, [r5, #0]
 614              		.loc 1 222 0
 615 0022 C4F85852 		str	r5, [r4, #600]
 616              		.loc 1 224 0
 617 0026 0222     		movs	r2, #2
 618              		.loc 1 223 0
 619 0028 8C60     		str	r4, [r1, #8]
 620              		.loc 1 224 0
 621 002a 2273     		strb	r2, [r4, #12]
 622              		.loc 1 225 0
 623 002c FFF7FEFF 		bl	dbg_check_unlock
 624              	.LVL71:
 625              	.LBB10:
 626 0030 0023     		movs	r3, #0
 627              	.LVL72:
 628              	@ 225 "/home/gokul/ChibiOS_2.5.0/os/hal/src/serial_usb.c" 1
 629 0032 83F31188 		msr     BASEPRI, r3
 630              	@ 0 "" 2
 631              	.LVL73:
 632              		.thumb
 633 0036 38BD     		pop	{r3, r4, r5, pc}
 634              	.LVL74:
 635              	.L25:
 636              	.LBE10:
 637              		.loc 1 216 0 discriminator 1
 638 0038 0248     		ldr	r0, .L26+4
 639              	.LVL75:
 640 003a FFF7FEFF 		bl	chDbgPanic
 641              	.LVL76:
 642 003e E3E7     		b	.L23
 643              	.L27:
 644              		.align	2
 645              	.L26:
 646 0040 10000000 		.word	.LC1
 647 0044 00000000 		.word	.LC0
 648              		.cfi_endproc
 649              	.LFE131:
 650              		.size	sduStart, .-sduStart
 651 0048 AFF30080 		.section	.text.sduStop,"ax",%progbits
 651      AFF30080 
 652              		.align	2
 653              		.p2align 4,,15
 654              		.global	sduStop
 655              		.thumb
 656              		.thumb_func
 657              		.type	sduStop, %function
 658              	sduStop:
 659              	.LFB132:
 660              		.loc 1 237 0
 661              		.cfi_startproc
 662              		@ args = 0, pretend = 0, frame = 0
 663              		@ frame_needed = 0, uses_anonymous_args = 0
ARM GAS  /tmp/ccvnBwqS.s 			page 13


 664              	.LVL77:
 665 0000 10B5     		push	{r4, lr}
 666              	.LCFI6:
 667              		.cfi_def_cfa_offset 8
 668              		.cfi_offset 4, -8
 669              		.cfi_offset 14, -4
 670              		.loc 1 239 0
 671 0002 0446     		mov	r4, r0
 672 0004 98B1     		cbz	r0, .L31
 673              	.LVL78:
 674              	.L29:
 675              	.LBB11:
 676              		.loc 1 241 0
 677 0006 2023     		movs	r3, #32
 678              	.LVL79:
 679              	@ 241 "/home/gokul/ChibiOS_2.5.0/os/hal/src/serial_usb.c" 1
 680 0008 83F31188 		msr     BASEPRI, r3
 681              	@ 0 "" 2
 682              	.LVL80:
 683              		.thumb
 684              	.LBE11:
 685 000c FFF7FEFF 		bl	dbg_check_lock
 686              	.LVL81:
 687              		.loc 1 242 0
 688 0010 237B     		ldrb	r3, [r4, #12]	@ zero_extendqisi2
 689 0012 581E     		subs	r0, r3, #1
 690 0014 0128     		cmp	r0, #1
 691 0016 02D9     		bls	.L30
 692              		.loc 1 242 0 is_stmt 0 discriminator 1
 693 0018 0748     		ldr	r0, .L32
 694 001a FFF7FEFF 		bl	chDbgPanic
 695              	.LVL82:
 696              	.L30:
 697              		.loc 1 245 0 is_stmt 1
 698 001e 0121     		movs	r1, #1
 699 0020 2173     		strb	r1, [r4, #12]
 700              		.loc 1 246 0
 701 0022 FFF7FEFF 		bl	dbg_check_unlock
 702              	.LVL83:
 703              	.LBB12:
 704 0026 0023     		movs	r3, #0
 705              	.LVL84:
 706              	@ 246 "/home/gokul/ChibiOS_2.5.0/os/hal/src/serial_usb.c" 1
 707 0028 83F31188 		msr     BASEPRI, r3
 708              	@ 0 "" 2
 709              	.LVL85:
 710              		.thumb
 711 002c 10BD     		pop	{r4, pc}
 712              	.LVL86:
 713              	.L31:
 714              	.LBE12:
 715              		.loc 1 239 0 discriminator 1
 716 002e 0348     		ldr	r0, .L32+4
 717              	.LVL87:
 718 0030 FFF7FEFF 		bl	chDbgPanic
 719              	.LVL88:
 720 0034 E7E7     		b	.L29
ARM GAS  /tmp/ccvnBwqS.s 			page 14


 721              	.L33:
 722 0036 00BF     		.align	2
 723              	.L32:
 724 0038 2C000000 		.word	.LC3
 725 003c 20000000 		.word	.LC2
 726              		.cfi_endproc
 727              	.LFE132:
 728              		.size	sduStop, .-sduStop
 729              		.section	.text.sduConfigureHookI,"ax",%progbits
 730              		.align	2
 731              		.p2align 4,,15
 732              		.global	sduConfigureHookI
 733              		.thumb
 734              		.thumb_func
 735              		.type	sduConfigureHookI, %function
 736              	sduConfigureHookI:
 737              	.LFB133:
 738              		.loc 1 256 0
 739              		.cfi_startproc
 740              		@ args = 0, pretend = 0, frame = 0
 741              		@ frame_needed = 0, uses_anonymous_args = 0
 742              	.LVL89:
 743 0000 38B5     		push	{r3, r4, r5, lr}
 744              	.LCFI7:
 745              		.cfi_def_cfa_offset 16
 746              		.cfi_offset 3, -16
 747              		.cfi_offset 4, -12
 748              		.cfi_offset 5, -8
 749              		.cfi_offset 14, -4
 750              		.loc 1 257 0
 751 0002 8468     		ldr	r4, [r0, #8]
 752              	.LVL90:
 753              		.loc 1 259 0
 754 0004 0025     		movs	r5, #0
 755              		.loc 1 260 0
 756 0006 04F11000 		add	r0, r4, #16
 757              	.LVL91:
 758              		.loc 1 259 0
 759 000a A560     		str	r5, [r4, #8]
 760              		.loc 1 260 0
 761 000c FFF7FEFF 		bl	chIQResetI
 762              	.LVL92:
 763              		.loc 1 261 0
 764 0010 04F13400 		add	r0, r4, #52
 765 0014 FFF7FEFF 		bl	chOQResetI
 766              	.LVL93:
 767              		.loc 1 262 0
 768 0018 A368     		ldr	r3, [r4, #8]
 769 001a 43F00100 		orr	r0, r3, #1
 770 001e A060     		str	r0, [r4, #8]
 771 0020 2946     		mov	r1, r5
 772 0022 201D     		adds	r0, r4, #4
 773              		.loc 1 263 0
 774 0024 BDE83840 		pop	{r3, r4, r5, lr}
 775              		.loc 1 262 0
 776 0028 FFF7FEBF 		b	chEvtBroadcastFlagsI
 777              	.LVL94:
ARM GAS  /tmp/ccvnBwqS.s 			page 15


 778              		.cfi_endproc
 779              	.LFE133:
 780              		.size	sduConfigureHookI, .-sduConfigureHookI
 781 002c AFF30080 		.section	.text.sduRequestsHook,"ax",%progbits
 782              		.align	2
 783              		.p2align 4,,15
 784              		.global	sduRequestsHook
 785              		.thumb
 786              		.thumb_func
 787              		.type	sduRequestsHook, %function
 788              	sduRequestsHook:
 789              	.LFB134:
 790              		.loc 1 280 0
 791              		.cfi_startproc
 792              		@ args = 0, pretend = 0, frame = 0
 793              		@ frame_needed = 0, uses_anonymous_args = 0
 794              		@ link register save eliminated.
 795              	.LVL95:
 796              		.loc 1 282 0
 797 0000 90F83030 		ldrb	r3, [r0, #48]	@ zero_extendqisi2
 798 0004 03F06001 		and	r1, r3, #96
 799 0008 2029     		cmp	r1, #32
 800 000a 01D0     		beq	.L43
 801              	.L42:
 802              		.loc 1 295 0
 803 000c 0020     		movs	r0, #0
 804              	.LVL96:
 805              		.loc 1 299 0
 806 000e 7047     		bx	lr
 807              	.LVL97:
 808              	.L43:
 809              		.loc 1 283 0
 810 0010 90F83120 		ldrb	r2, [r0, #49]	@ zero_extendqisi2
 811 0014 212A     		cmp	r2, #33
 812 0016 03D0     		beq	.L37
 813 0018 222A     		cmp	r2, #34
 814 001a 09D0     		beq	.L39
 815 001c 202A     		cmp	r2, #32
 816 001e F5D1     		bne	.L42
 817              	.L37:
 818              		.loc 1 288 0
 819 0020 0649     		ldr	r1, .L44
 820 0022 0722     		movs	r2, #7
 821 0024 0023     		movs	r3, #0
 822 0026 4162     		str	r1, [r0, #36]
 823 0028 8262     		str	r2, [r0, #40]
 824 002a C362     		str	r3, [r0, #44]
 825              		.loc 1 289 0
 826 002c 0120     		movs	r0, #1
 827              	.LVL98:
 828 002e 7047     		bx	lr
 829              	.LVL99:
 830              	.L39:
 831              		.loc 1 292 0
 832 0030 0023     		movs	r3, #0
 833 0032 4362     		str	r3, [r0, #36]
 834 0034 8362     		str	r3, [r0, #40]
ARM GAS  /tmp/ccvnBwqS.s 			page 16


 835 0036 C362     		str	r3, [r0, #44]
 836              		.loc 1 293 0
 837 0038 0120     		movs	r0, #1
 838              	.LVL100:
 839 003a 7047     		bx	lr
 840              	.L45:
 841              		.align	2
 842              	.L44:
 843 003c 00000000 		.word	.LANCHOR1
 844              		.cfi_endproc
 845              	.LFE134:
 846              		.size	sduRequestsHook, .-sduRequestsHook
 847              		.section	.text.sduDataTransmitted,"ax",%progbits
 848              		.align	2
 849              		.p2align 4,,15
 850              		.global	sduDataTransmitted
 851              		.thumb
 852              		.thumb_func
 853              		.type	sduDataTransmitted, %function
 854              	sduDataTransmitted:
 855              	.LFB135:
 856              		.loc 1 309 0
 857              		.cfi_startproc
 858              		@ args = 0, pretend = 0, frame = 0
 859              		@ frame_needed = 0, uses_anonymous_args = 0
 860              	.LVL101:
 861 0000 F8B5     		push	{r3, r4, r5, r6, r7, lr}
 862              	.LCFI8:
 863              		.cfi_def_cfa_offset 24
 864              		.cfi_offset 3, -24
 865              		.cfi_offset 4, -20
 866              		.cfi_offset 5, -16
 867              		.cfi_offset 6, -12
 868              		.cfi_offset 7, -8
 869              		.cfi_offset 14, -4
 870              		.loc 1 311 0
 871 0002 8468     		ldr	r4, [r0, #8]
 872              	.LVL102:
 873              		.loc 1 309 0
 874 0004 0546     		mov	r5, r0
 875 0006 0E46     		mov	r6, r1
 876              	.LBB13:
 877              		.loc 1 315 0
 878 0008 2023     		movs	r3, #32
 879              	.LVL103:
 880              	@ 315 "/home/gokul/ChibiOS_2.5.0/os/hal/src/serial_usb.c" 1
 881 000a 83F31188 		msr     BASEPRI, r3
 882              	@ 0 "" 2
 883              	.LVL104:
 884              		.thumb
 885              	.LBE13:
 886 000e FFF7FEFF 		bl	dbg_check_lock_from_isr
 887              	.LVL105:
 888              		.loc 1 316 0
 889 0012 A368     		ldr	r3, [r4, #8]
 890 0014 43F00800 		orr	r0, r3, #8
 891 0018 0021     		movs	r1, #0
ARM GAS  /tmp/ccvnBwqS.s 			page 17


 892 001a A060     		str	r0, [r4, #8]
 893 001c 201D     		adds	r0, r4, #4
 894 001e FFF7FEFF 		bl	chEvtBroadcastFlagsI
 895              	.LVL106:
 896              		.loc 1 318 0
 897 0022 616C     		ldr	r1, [r4, #68]
 898 0024 226C     		ldr	r2, [r4, #64]
 899 0026 E76B     		ldr	r7, [r4, #60]
 900 0028 8B1A     		subs	r3, r1, r2
 901              	.LVL107:
 902 002a DF1B     		subs	r7, r3, r7
 903              	.LVL108:
 904 002c 24D1     		bne	.L50
 905              		.loc 1 328 0
 906 002e 301D     		adds	r0, r6, #4
 907 0030 55F82020 		ldr	r2, [r5, r0, lsl #2]
 908 0034 5169     		ldr	r1, [r2, #20]
 909              		.loc 1 329 0
 910 0036 178A     		ldrh	r7, [r2, #16]
 911              	.LVL109:
 912              		.loc 1 328 0
 913 0038 4B68     		ldr	r3, [r1, #4]
 914              	.LVL110:
 915              		.loc 1 329 0
 916 003a 781E     		subs	r0, r7, #1
 917              		.loc 1 328 0
 918 003c 10EA0307 		ands	r7, r0, r3
 919 0040 05D0     		beq	.L51
 920              	.LVL111:
 921              	.L48:
 922              		.loc 1 342 0
 923 0042 FFF7FEFF 		bl	dbg_check_unlock_from_isr
 924              	.LVL112:
 925              	.LBB14:
 926 0046 0023     		movs	r3, #0
 927              	.LVL113:
 928              	@ 342 "/home/gokul/ChibiOS_2.5.0/os/hal/src/serial_usb.c" 1
 929 0048 83F31188 		msr     BASEPRI, r3
 930              	@ 0 "" 2
 931              	.LVL114:
 932              		.thumb
 933 004c F8BD     		pop	{r3, r4, r5, r6, r7, pc}
 934              	.LVL115:
 935              	.L51:
 936              	.LBE14:
 937              		.loc 1 334 0
 938 004e FFF7FEFF 		bl	dbg_check_unlock_from_isr
 939              	.LVL116:
 940              	.LBB15:
 941 0052 3B46     		mov	r3, r7
 942              	.LVL117:
 943              	@ 334 "/home/gokul/ChibiOS_2.5.0/os/hal/src/serial_usb.c" 1
 944 0054 83F31188 		msr     BASEPRI, r3
 945              	@ 0 "" 2
 946              	.LVL118:
 947              		.thumb
 948              	.L49:
ARM GAS  /tmp/ccvnBwqS.s 			page 18


 949              	.LBE15:
 950              		.loc 1 336 0
 951 0058 2846     		mov	r0, r5
 952 005a 3146     		mov	r1, r6
 953 005c 04F13402 		add	r2, r4, #52
 954 0060 FFF7FEFF 		bl	usbPrepareQueuedTransmit
 955              	.LVL119:
 956              	.LBB16:
 957              		.loc 1 338 0
 958 0064 2023     		movs	r3, #32
 959              	.LVL120:
 960              	@ 338 "/home/gokul/ChibiOS_2.5.0/os/hal/src/serial_usb.c" 1
 961 0066 83F31188 		msr     BASEPRI, r3
 962              	@ 0 "" 2
 963              	.LVL121:
 964              		.thumb
 965              	.LBE16:
 966 006a FFF7FEFF 		bl	dbg_check_lock_from_isr
 967              	.LVL122:
 968              		.loc 1 339 0
 969 006e 2846     		mov	r0, r5
 970 0070 3146     		mov	r1, r6
 971 0072 FFF7FEFF 		bl	usbStartTransmitI
 972              	.LVL123:
 973 0076 E4E7     		b	.L48
 974              	.LVL124:
 975              	.L50:
 976              		.loc 1 321 0
 977 0078 FFF7FEFF 		bl	dbg_check_unlock_from_isr
 978              	.LVL125:
 979              	.LBB17:
 980 007c 0023     		movs	r3, #0
 981              	.LVL126:
 982              	@ 321 "/home/gokul/ChibiOS_2.5.0/os/hal/src/serial_usb.c" 1
 983 007e 83F31188 		msr     BASEPRI, r3
 984              	@ 0 "" 2
 985              	.LVL127:
 986              		.thumb
 987              	.LBE17:
 988              		.loc 1 323 0
 989 0082 3B46     		mov	r3, r7
 990              	.LVL128:
 991 0084 E8E7     		b	.L49
 992              		.cfi_endproc
 993              	.LFE135:
 994              		.size	sduDataTransmitted, .-sduDataTransmitted
 995 0086 00BFAFF3 		.section	.text.sduDataReceived,"ax",%progbits
 995      0080AFF3 
 995      0080
 996              		.align	2
 997              		.p2align 4,,15
 998              		.global	sduDataReceived
 999              		.thumb
 1000              		.thumb_func
 1001              		.type	sduDataReceived, %function
 1002              	sduDataReceived:
 1003              	.LFB136:
ARM GAS  /tmp/ccvnBwqS.s 			page 19


 1004              		.loc 1 353 0
 1005              		.cfi_startproc
 1006              		@ args = 0, pretend = 0, frame = 0
 1007              		@ frame_needed = 0, uses_anonymous_args = 0
 1008              	.LVL129:
 1009 0000 2DE9F041 		push	{r4, r5, r6, r7, r8, lr}
 1010              	.LCFI9:
 1011              		.cfi_def_cfa_offset 24
 1012              		.cfi_offset 4, -24
 1013              		.cfi_offset 5, -20
 1014              		.cfi_offset 6, -16
 1015              		.cfi_offset 7, -12
 1016              		.cfi_offset 8, -8
 1017              		.cfi_offset 14, -4
 1018              	.LBB18:
 1019              		.loc 1 359 0
 1020 0004 2023     		movs	r3, #32
 1021              	.LVL130:
 1022              	.LBE18:
 1023              		.loc 1 355 0
 1024 0006 8468     		ldr	r4, [r0, #8]
 1025              	.LVL131:
 1026              		.loc 1 353 0
 1027 0008 0546     		mov	r5, r0
 1028 000a 8846     		mov	r8, r1
 1029              	.LBB19:
 1030              		.loc 1 359 0
 1031              	@ 359 "/home/gokul/ChibiOS_2.5.0/os/hal/src/serial_usb.c" 1
 1032 000c 83F31188 		msr     BASEPRI, r3
 1033              	@ 0 "" 2
 1034              	.LVL132:
 1035              		.thumb
 1036              	.LBE19:
 1037 0010 FFF7FEFF 		bl	dbg_check_lock_from_isr
 1038              	.LVL133:
 1039              		.loc 1 360 0
 1040 0014 A368     		ldr	r3, [r4, #8]
 1041 0016 43F00400 		orr	r0, r3, #4
 1042 001a 0021     		movs	r1, #0
 1043 001c A060     		str	r0, [r4, #8]
 1044 001e 201D     		adds	r0, r4, #4
 1045 0020 FFF7FEFF 		bl	chEvtBroadcastFlagsI
 1046              	.LVL134:
 1047              		.loc 1 365 0
 1048 0024 276A     		ldr	r7, [r4, #32]
 1049              		.loc 1 364 0
 1050 0026 6969     		ldr	r1, [r5, #20]
 1051              		.loc 1 365 0
 1052 0028 E269     		ldr	r2, [r4, #28]
 1053 002a A369     		ldr	r3, [r4, #24]
 1054              		.loc 1 364 0
 1055 002c 4E8A     		ldrh	r6, [r1, #18]
 1056              	.LVL135:
 1057              		.loc 1 365 0
 1058 002e B81A     		subs	r0, r7, r2
 1059 0030 C71A     		subs	r7, r0, r3
 1060              	.LVL136:
ARM GAS  /tmp/ccvnBwqS.s 			page 20


 1061 0032 BE42     		cmp	r6, r7
 1062 0034 17D8     		bhi	.L53
 1063              		.loc 1 368 0
 1064 0036 FFF7FEFF 		bl	dbg_check_unlock_from_isr
 1065              	.LVL137:
 1066              	.LBB20:
 1067 003a 0023     		movs	r3, #0
 1068              	.LVL138:
 1069              	@ 368 "/home/gokul/ChibiOS_2.5.0/os/hal/src/serial_usb.c" 1
 1070 003c 83F31188 		msr     BASEPRI, r3
 1071              	@ 0 "" 2
 1072              	.LVL139:
 1073              		.thumb
 1074              	.LBE20:
 1075              		.loc 1 370 0
 1076 0040 B7FBF6F3 		udiv	r3, r7, r6
 1077              	.LVL140:
 1078              		.loc 1 371 0
 1079 0044 06FB03F3 		mul	r3, r6, r3
 1080              	.LVL141:
 1081 0048 2846     		mov	r0, r5
 1082 004a 4146     		mov	r1, r8
 1083 004c 04F11002 		add	r2, r4, #16
 1084 0050 FFF7FEFF 		bl	usbPrepareQueuedReceive
 1085              	.LVL142:
 1086              	.LBB21:
 1087              		.loc 1 373 0
 1088 0054 2023     		movs	r3, #32
 1089              	.LVL143:
 1090              	@ 373 "/home/gokul/ChibiOS_2.5.0/os/hal/src/serial_usb.c" 1
 1091 0056 83F31188 		msr     BASEPRI, r3
 1092              	@ 0 "" 2
 1093              	.LVL144:
 1094              		.thumb
 1095              	.LBE21:
 1096 005a FFF7FEFF 		bl	dbg_check_lock_from_isr
 1097              	.LVL145:
 1098              		.loc 1 374 0
 1099 005e 2846     		mov	r0, r5
 1100 0060 4146     		mov	r1, r8
 1101 0062 FFF7FEFF 		bl	usbStartReceiveI
 1102              	.LVL146:
 1103              	.L53:
 1104              		.loc 1 377 0
 1105 0066 FFF7FEFF 		bl	dbg_check_unlock_from_isr
 1106              	.LVL147:
 1107              	.LBB22:
 1108 006a 0023     		movs	r3, #0
 1109              	.LVL148:
 1110              	@ 377 "/home/gokul/ChibiOS_2.5.0/os/hal/src/serial_usb.c" 1
 1111 006c 83F31188 		msr     BASEPRI, r3
 1112              	@ 0 "" 2
 1113              	.LVL149:
 1114              		.thumb
 1115 0070 BDE8F081 		pop	{r4, r5, r6, r7, r8, pc}
 1116              	.LBE22:
 1117              		.cfi_endproc
ARM GAS  /tmp/ccvnBwqS.s 			page 21


 1118              	.LFE136:
 1119              		.size	sduDataReceived, .-sduDataReceived
 1120 0074 AFF30080 		.section	.text.sduInterruptTransmitted,"ax",%progbits
 1120      AFF30080 
 1120      AFF30080 
 1121              		.align	2
 1122              		.p2align 4,,15
 1123              		.global	sduInterruptTransmitted
 1124              		.thumb
 1125              		.thumb_func
 1126              		.type	sduInterruptTransmitted, %function
 1127              	sduInterruptTransmitted:
 1128              	.LFB137:
 1129              		.loc 1 388 0
 1130              		.cfi_startproc
 1131              		@ args = 0, pretend = 0, frame = 0
 1132              		@ frame_needed = 0, uses_anonymous_args = 0
 1133              		@ link register save eliminated.
 1134              	.LVL150:
 1135 0000 7047     		bx	lr
 1136              		.cfi_endproc
 1137              	.LFE137:
 1138              		.size	sduInterruptTransmitted, .-sduInterruptTransmitted
 1139 0002 00BFAFF3 		.section	.rodata.str1.4,"aMS",%progbits,1
 1139      0080AFF3 
 1139      0080AFF3 
 1139      0080
 1140              		.align	2
 1141              	.LC0:
 1142 0000 22736475 		.ascii	"\"sduStart\"()\000"
 1142      53746172 
 1142      74222829 
 1142      00
 1143 000d 000000   		.space	3
 1144              	.LC1:
 1145 0010 73647553 		.ascii	"sduStart(), #1\000"
 1145      74617274 
 1145      28292C20 
 1145      233100
 1146 001f 00       		.space	1
 1147              	.LC2:
 1148 0020 22736453 		.ascii	"\"sdStop\"()\000"
 1148      746F7022 
 1148      282900
 1149 002b 00       		.space	1
 1150              	.LC3:
 1151 002c 73647553 		.ascii	"sduStop(), #1\000"
 1151      746F7028 
 1151      292C2023 
 1151      3100
 1152 003a 0000     		.section	.rodata.vmt,"a",%progbits
 1153              		.align	2
 1154              		.set	.LANCHOR0,. + 0
 1155              		.type	vmt, %object
 1156              		.size	vmt, 36
 1157              	vmt:
 1158 0000 00000000 		.word	write
ARM GAS  /tmp/ccvnBwqS.s 			page 22


 1159 0004 00000000 		.word	read
 1160 0008 00000000 		.word	put
 1161 000c 00000000 		.word	get
 1162 0010 00000000 		.word	putt
 1163 0014 00000000 		.word	gett
 1164 0018 00000000 		.word	writet
 1165 001c 00000000 		.word	readt
 1166 0020 00000000 		.word	getflags
 1167              		.section	.data.linecoding,"aw",%progbits
 1168              		.align	2
 1169              		.set	.LANCHOR1,. + 0
 1170              		.type	linecoding, %object
 1171              		.size	linecoding, 7
 1172              	linecoding:
 1173 0000 00       		.byte	0
 1174 0001 96       		.byte	-106
 1175 0002 00       		.byte	0
 1176 0003 00       		.byte	0
 1177 0004 00       		.byte	0
 1178 0005 00       		.byte	0
 1179 0006 08       		.byte	8
 1180 0007 00       		.text
 1181              	.Letext0:
 1182              		.file 2 "/opt/gcc-arm-none-eabi-4_7-2013q1/bin/../lib/gcc/arm-none-eabi/4.7.3/include/stddef.h"
 1183              		.file 3 "/opt/gcc-arm-none-eabi-4_7-2013q1/bin/../lib/gcc/arm-none-eabi/4.7.3/../../../../arm-none
 1184              		.file 4 "/home/gokul/ChibiOS_2.5.0/os/ports/GCC/ARMCMx/chtypes.h"
 1185              		.file 5 "/home/gokul/ChibiOS_2.5.0/os/kernel/include/chlists.h"
 1186              		.file 6 "/home/gokul/ChibiOS_2.5.0/os/kernel/include/chthreads.h"
 1187              		.file 7 "/home/gokul/ChibiOS_2.5.0/os/ports/GCC/ARMCMx/chcore_v7m.h"
 1188              		.file 8 "/home/gokul/ChibiOS_2.5.0/os/kernel/include/chmtx.h"
 1189              		.file 9 "/home/gokul/ChibiOS_2.5.0/os/kernel/include/chevents.h"
 1190              		.file 10 "/home/gokul/ChibiOS_2.5.0/os/kernel/include/chqueues.h"
 1191              		.file 11 "/home/gokul/ChibiOS_2.5.0/os/hal/include/io_channel.h"
 1192              		.file 12 "/home/gokul/ChibiOS_2.5.0/os/hal/include/usb.h"
 1193              		.file 13 "/home/gokul/ChibiOS_2.5.0/os/hal/platforms/STM32/OTGv1/usb_lld.h"
 1194              		.file 14 "/home/gokul/ChibiOS_2.5.0/os/hal/platforms/STM32/OTGv1/stm32_otg.h"
 1195              		.file 15 "/home/gokul/ChibiOS_2.5.0/os/hal/include/serial_usb.h"
 1196              		.file 16 "/home/gokul/ChibiOS_2.5.0/os/hal/include/usb_cdc.h"
 1197              		.file 17 "/home/gokul/ChibiOS_2.5.0/os/kernel/include/chdebug.h"
 1198              		.file 18 "/home/gokul/ChibiOS_2.5.0/os/ports/common/ARMCMx/CMSIS/include/core_cm4.h"