ARM GAS  /tmp/ccuondXl.s 			page 1


   1              		.syntax unified
   2              		.cpu cortex-m4
   3              		.fpu softvfp
   4              		.eabi_attribute 20, 1
   5              		.eabi_attribute 21, 1
   6              		.eabi_attribute 23, 3
   7              		.eabi_attribute 24, 1
   8              		.eabi_attribute 25, 1
   9              		.eabi_attribute 26, 1
  10              		.eabi_attribute 30, 2
  11              		.eabi_attribute 34, 1
  12              		.eabi_attribute 18, 4
  13              		.thumb
  14              		.file	"usb.c"
  15              		.text
  16              	.Ltext0:
  17              		.cfi_sections	.debug_frame
  18              		.section	.text.usbInit,"ax",%progbits
  19              		.align	2
  20              		.p2align 4,,15
  21              		.global	usbInit
  22              		.thumb
  23              		.thumb_func
  24              		.type	usbInit, %function
  25              	usbInit:
  26              	.LFB120:
  27              		.file 1 "/home/gokul/ChibiOS_2.5.0/os/hal/src/usb.c"
  28              		.loc 1 228 0
  29              		.cfi_startproc
  30              		@ args = 0, pretend = 0, frame = 0
  31              		@ frame_needed = 0, uses_anonymous_args = 0
  32              		@ link register save eliminated.
  33              		.loc 1 231 0
  34              		.loc 1 230 0
  35 0000 FFF7FEBF 		b	usb_lld_init
  36              	.LVL0:
  37              		.cfi_endproc
  38              	.LFE120:
  39              		.size	usbInit, .-usbInit
  40 0004 AFF30080 		.section	.text.usbObjectInit,"ax",%progbits
  40      AFF30080 
  40      AFF30080 
  41              		.align	2
  42              		.p2align 4,,15
  43              		.global	usbObjectInit
  44              		.thumb
  45              		.thumb_func
  46              		.type	usbObjectInit, %function
  47              	usbObjectInit:
  48              	.LFB121:
  49              		.loc 1 240 0
  50              		.cfi_startproc
  51              		@ args = 0, pretend = 0, frame = 0
  52              		@ frame_needed = 0, uses_anonymous_args = 0
  53              		@ link register save eliminated.
  54              	.LVL1:
  55              		.loc 1 243 0
ARM GAS  /tmp/ccuondXl.s 			page 2


  56 0000 0023     		movs	r3, #0
  57              		.loc 1 242 0
  58 0002 0122     		movs	r2, #1
  59 0004 0270     		strb	r2, [r0, #0]
  60              		.loc 1 243 0
  61 0006 4360     		str	r3, [r0, #4]
  62              		.loc 1 244 0
  63 0008 8360     		str	r3, [r0, #8]
  64              		.loc 1 245 0
  65 000a 8381     		strh	r3, [r0, #12]	@ movhi
  66              		.loc 1 246 0
  67 000c C381     		strh	r3, [r0, #14]	@ movhi
  68 000e 7047     		bx	lr
  69              		.cfi_endproc
  70              	.LFE121:
  71              		.size	usbObjectInit, .-usbObjectInit
  72              		.section	.text.usbStart,"ax",%progbits
  73              		.align	2
  74              		.p2align 4,,15
  75              		.global	usbStart
  76              		.thumb
  77              		.thumb_func
  78              		.type	usbStart, %function
  79              	usbStart:
  80              	.LFB122:
  81              		.loc 1 257 0
  82              		.cfi_startproc
  83              		@ args = 0, pretend = 0, frame = 0
  84              		@ frame_needed = 0, uses_anonymous_args = 0
  85              	.LVL2:
  86 0000 70B5     		push	{r4, r5, r6, lr}
  87              	.LCFI0:
  88              		.cfi_def_cfa_offset 16
  89              		.cfi_offset 4, -16
  90              		.cfi_offset 5, -12
  91              		.cfi_offset 6, -8
  92              		.cfi_offset 14, -4
  93              		.loc 1 260 0
  94 0002 0446     		mov	r4, r0
  95              		.loc 1 257 0
  96 0004 0E46     		mov	r6, r1
  97              		.loc 1 260 0
  98 0006 E8B1     		cbz	r0, .L4
  99              		.loc 1 260 0 is_stmt 0 discriminator 2
 100 0008 E1B1     		cbz	r1, .L4
 101              	.LVL3:
 102              	.L5:
 103              	.LBB2:
 104              		.loc 1 262 0 is_stmt 1
 105 000a 2023     		movs	r3, #32
 106              	.LVL4:
 107              	@ 262 "/home/gokul/ChibiOS_2.5.0/os/hal/src/usb.c" 1
 108 000c 83F31188 		msr     BASEPRI, r3
 109              	@ 0 "" 2
 110              	.LVL5:
 111              		.thumb
 112              	.LBE2:
ARM GAS  /tmp/ccuondXl.s 			page 3


 113 0010 FFF7FEFF 		bl	dbg_check_lock
 114              	.LVL6:
 115              		.loc 1 263 0
 116 0014 2378     		ldrb	r3, [r4, #0]	@ zero_extendqisi2
 117 0016 581E     		subs	r0, r3, #1
 118 0018 0128     		cmp	r0, #1
 119 001a 02D9     		bls	.L6
 120              		.loc 1 263 0 is_stmt 0 discriminator 1
 121 001c 0B48     		ldr	r0, .L11
 122 001e FFF7FEFF 		bl	chDbgPanic
 123              	.LVL7:
 124              	.L6:
 125              		.loc 1 267 0 is_stmt 1
 126 0022 0025     		movs	r5, #0
 127              		.loc 1 268 0
 128 0024 2046     		mov	r0, r4
 129              		.loc 1 265 0
 130 0026 6660     		str	r6, [r4, #4]
 131              	.LVL8:
 132              		.loc 1 267 0
 133 0028 2561     		str	r5, [r4, #16]
 134              	.LVL9:
 135 002a 6561     		str	r5, [r4, #20]
 136              	.LVL10:
 137 002c A561     		str	r5, [r4, #24]
 138              	.LVL11:
 139 002e E561     		str	r5, [r4, #28]
 140              	.LVL12:
 141              		.loc 1 268 0
 142 0030 FFF7FEFF 		bl	usb_lld_start
 143              	.LVL13:
 144              		.loc 1 269 0
 145 0034 0221     		movs	r1, #2
 146 0036 2170     		strb	r1, [r4, #0]
 147              		.loc 1 270 0
 148 0038 FFF7FEFF 		bl	dbg_check_unlock
 149              	.LVL14:
 150              	.LBB3:
 151 003c 2B46     		mov	r3, r5
 152              	.LVL15:
 153              	@ 270 "/home/gokul/ChibiOS_2.5.0/os/hal/src/usb.c" 1
 154 003e 83F31188 		msr     BASEPRI, r3
 155              	@ 0 "" 2
 156              	.LVL16:
 157              		.thumb
 158 0042 70BD     		pop	{r4, r5, r6, pc}
 159              	.LVL17:
 160              	.L4:
 161              	.LBE3:
 162              		.loc 1 260 0 discriminator 1
 163 0044 0248     		ldr	r0, .L11+4
 164              	.LVL18:
 165 0046 FFF7FEFF 		bl	chDbgPanic
 166              	.LVL19:
 167 004a DEE7     		b	.L5
 168              	.L12:
 169              		.align	2
ARM GAS  /tmp/ccuondXl.s 			page 4


 170              	.L11:
 171 004c 10000000 		.word	.LC1
 172 0050 00000000 		.word	.LC0
 173              		.cfi_endproc
 174              	.LFE122:
 175              		.size	usbStart, .-usbStart
 176 0054 AFF30080 		.section	.text.usbStop,"ax",%progbits
 176      AFF30080 
 176      AFF30080 
 177              		.align	2
 178              		.p2align 4,,15
 179              		.global	usbStop
 180              		.thumb
 181              		.thumb_func
 182              		.type	usbStop, %function
 183              	usbStop:
 184              	.LFB123:
 185              		.loc 1 280 0
 186              		.cfi_startproc
 187              		@ args = 0, pretend = 0, frame = 0
 188              		@ frame_needed = 0, uses_anonymous_args = 0
 189              	.LVL20:
 190 0000 10B5     		push	{r4, lr}
 191              	.LCFI1:
 192              		.cfi_def_cfa_offset 8
 193              		.cfi_offset 4, -8
 194              		.cfi_offset 14, -4
 195              		.loc 1 282 0
 196 0002 0446     		mov	r4, r0
 197 0004 B0B1     		cbz	r0, .L16
 198              	.LVL21:
 199              	.L14:
 200              	.LBB4:
 201              		.loc 1 284 0
 202 0006 2023     		movs	r3, #32
 203              	.LVL22:
 204              	@ 284 "/home/gokul/ChibiOS_2.5.0/os/hal/src/usb.c" 1
 205 0008 83F31188 		msr     BASEPRI, r3
 206              	@ 0 "" 2
 207              	.LVL23:
 208              		.thumb
 209              	.LBE4:
 210 000c FFF7FEFF 		bl	dbg_check_lock
 211              	.LVL24:
 212              		.loc 1 285 0
 213 0010 2378     		ldrb	r3, [r4, #0]	@ zero_extendqisi2
 214 0012 581E     		subs	r0, r3, #1
 215 0014 0128     		cmp	r0, #1
 216 0016 02D9     		bls	.L15
 217              		.loc 1 285 0 is_stmt 0 discriminator 1
 218 0018 0848     		ldr	r0, .L17
 219 001a FFF7FEFF 		bl	chDbgPanic
 220              	.LVL25:
 221              	.L15:
 222              		.loc 1 287 0 is_stmt 1
 223 001e 2046     		mov	r0, r4
 224 0020 FFF7FEFF 		bl	usb_lld_stop
ARM GAS  /tmp/ccuondXl.s 			page 5


 225              	.LVL26:
 226              		.loc 1 288 0
 227 0024 0121     		movs	r1, #1
 228 0026 2170     		strb	r1, [r4, #0]
 229              		.loc 1 289 0
 230 0028 FFF7FEFF 		bl	dbg_check_unlock
 231              	.LVL27:
 232              	.LBB5:
 233 002c 0023     		movs	r3, #0
 234              	.LVL28:
 235              	@ 289 "/home/gokul/ChibiOS_2.5.0/os/hal/src/usb.c" 1
 236 002e 83F31188 		msr     BASEPRI, r3
 237              	@ 0 "" 2
 238              	.LVL29:
 239              		.thumb
 240 0032 10BD     		pop	{r4, pc}
 241              	.LVL30:
 242              	.L16:
 243              	.LBE5:
 244              		.loc 1 282 0 discriminator 1
 245 0034 0248     		ldr	r0, .L17+4
 246              	.LVL31:
 247 0036 FFF7FEFF 		bl	chDbgPanic
 248              	.LVL32:
 249 003a E4E7     		b	.L14
 250              	.L18:
 251              		.align	2
 252              	.L17:
 253 003c 2C000000 		.word	.LC3
 254 0040 20000000 		.word	.LC2
 255              		.cfi_endproc
 256              	.LFE123:
 257              		.size	usbStop, .-usbStop
 258 0044 AFF30080 		.section	.text.usbInitEndpointI,"ax",%progbits
 258      AFF30080 
 258      AFF30080 
 259              		.align	2
 260              		.p2align 4,,15
 261              		.global	usbInitEndpointI
 262              		.thumb
 263              		.thumb_func
 264              		.type	usbInitEndpointI, %function
 265              	usbInitEndpointI:
 266              	.LFB124:
 267              		.loc 1 306 0
 268              		.cfi_startproc
 269              		@ args = 0, pretend = 0, frame = 0
 270              		@ frame_needed = 0, uses_anonymous_args = 0
 271              	.LVL33:
 272 0000 F8B5     		push	{r3, r4, r5, r6, r7, lr}
 273              	.LCFI2:
 274              		.cfi_def_cfa_offset 24
 275              		.cfi_offset 3, -24
 276              		.cfi_offset 4, -20
 277              		.cfi_offset 5, -16
 278              		.cfi_offset 6, -12
 279              		.cfi_offset 7, -8
ARM GAS  /tmp/ccuondXl.s 			page 6


 280              		.cfi_offset 14, -4
 281              		.loc 1 306 0
 282 0002 0446     		mov	r4, r0
 283 0004 0E46     		mov	r6, r1
 284 0006 1546     		mov	r5, r2
 285              		.loc 1 308 0
 286 0008 FFF7FEFF 		bl	chDbgCheckClassI
 287              	.LVL34:
 288              		.loc 1 309 0
 289 000c 0CB3     		cbz	r4, .L20
 290              		.loc 1 309 0 is_stmt 0 discriminator 2
 291 000e 05B3     		cbz	r5, .L20
 292              	.L21:
 293              		.loc 1 310 0 is_stmt 1
 294 0010 2378     		ldrb	r3, [r4, #0]	@ zero_extendqisi2
 295 0012 042B     		cmp	r3, #4
 296 0014 02D0     		beq	.L22
 297              		.loc 1 310 0 is_stmt 0 discriminator 1
 298 0016 1148     		ldr	r0, .L41
 299 0018 FFF7FEFF 		bl	chDbgPanic
 300              	.LVL35:
 301              	.L22:
 302              		.loc 1 312 0 is_stmt 1
 303 001c 371D     		adds	r7, r6, #4
 304 001e 54F82700 		ldr	r0, [r4, r7, lsl #2]
 305 0022 10B1     		cbz	r0, .L23
 306              		.loc 1 312 0 is_stmt 0 discriminator 1
 307 0024 0E48     		ldr	r0, .L41+4
 308 0026 FFF7FEFF 		bl	chDbgPanic
 309              	.LVL36:
 310              	.L23:
 311              		.loc 1 316 0 is_stmt 1
 312 002a 6869     		ldr	r0, [r5, #20]
 313 002c 18B1     		cbz	r0, .L24
 314              		.loc 1 317 0
 315 002e 0021     		movs	r1, #0
 316 0030 1022     		movs	r2, #16
 317 0032 FFF7FEFF 		bl	memset
 318              	.LVL37:
 319              	.L24:
 320              		.loc 1 318 0
 321 0036 A869     		ldr	r0, [r5, #24]
 322 0038 18B1     		cbz	r0, .L25
 323              		.loc 1 319 0
 324 003a 0021     		movs	r1, #0
 325 003c 1022     		movs	r2, #16
 326 003e FFF7FEFF 		bl	memset
 327              	.LVL38:
 328              	.L25:
 329              		.loc 1 324 0
 330 0042 2046     		mov	r0, r4
 331 0044 3146     		mov	r1, r6
 332              		.loc 1 321 0
 333 0046 44F82750 		str	r5, [r4, r7, lsl #2]
 334              		.loc 1 325 0
 335 004a BDE8F840 		pop	{r3, r4, r5, r6, r7, lr}
 336              		.loc 1 324 0
ARM GAS  /tmp/ccuondXl.s 			page 7


 337 004e FFF7FEBF 		b	usb_lld_init_endpoint
 338              	.LVL39:
 339              	.L20:
 340              		.loc 1 309 0 discriminator 1
 341 0052 0448     		ldr	r0, .L41+8
 342 0054 FFF7FEFF 		bl	chDbgPanic
 343              	.LVL40:
 344 0058 DAE7     		b	.L21
 345              	.L42:
 346 005a 00BF     		.align	2
 347              	.L41:
 348 005c 54000000 		.word	.LC5
 349 0060 70000000 		.word	.LC6
 350 0064 3C000000 		.word	.LC4
 351              		.cfi_endproc
 352              	.LFE124:
 353              		.size	usbInitEndpointI, .-usbInitEndpointI
 354 0068 AFF30080 		.section	.text.usbDisableEndpointsI,"ax",%progbits
 354      AFF30080 
 355              		.align	2
 356              		.p2align 4,,15
 357              		.global	usbDisableEndpointsI
 358              		.thumb
 359              		.thumb_func
 360              		.type	usbDisableEndpointsI, %function
 361              	usbDisableEndpointsI:
 362              	.LFB125:
 363              		.loc 1 338 0
 364              		.cfi_startproc
 365              		@ args = 0, pretend = 0, frame = 0
 366              		@ frame_needed = 0, uses_anonymous_args = 0
 367              	.LVL41:
 368 0000 10B5     		push	{r4, lr}
 369              	.LCFI3:
 370              		.cfi_def_cfa_offset 8
 371              		.cfi_offset 4, -8
 372              		.cfi_offset 14, -4
 373              		.loc 1 338 0
 374 0002 0446     		mov	r4, r0
 375              		.loc 1 341 0
 376 0004 FFF7FEFF 		bl	chDbgCheckClassI
 377              	.LVL42:
 378              		.loc 1 342 0
 379 0008 B4B1     		cbz	r4, .L49
 380              	.L44:
 381              		.loc 1 343 0
 382 000a 2378     		ldrb	r3, [r4, #0]	@ zero_extendqisi2
 383 000c 032B     		cmp	r3, #3
 384 000e 02D0     		beq	.L45
 385              		.loc 1 343 0 is_stmt 0 discriminator 1
 386 0010 0B48     		ldr	r0, .L50
 387 0012 FFF7FEFF 		bl	chDbgPanic
 388              	.LVL43:
 389              	.L45:
 390              		.loc 1 346 0 is_stmt 1
 391 0016 A189     		ldrh	r1, [r4, #12]
 392              		.loc 1 347 0
ARM GAS  /tmp/ccuondXl.s 			page 8


 393 0018 E289     		ldrh	r2, [r4, #14]
 394              		.loc 1 349 0
 395 001a 0020     		movs	r0, #0
 396              		.loc 1 346 0
 397 001c 21F00103 		bic	r3, r1, #1
 398              		.loc 1 349 0
 399 0020 6061     		str	r0, [r4, #20]
 400              		.loc 1 347 0
 401 0022 22F00101 		bic	r1, r2, #1
 402              		.loc 1 349 0
 403 0026 A061     		str	r0, [r4, #24]
 404 0028 E061     		str	r0, [r4, #28]
 405              		.loc 1 352 0
 406 002a 2046     		mov	r0, r4
 407              		.loc 1 346 0
 408 002c A381     		strh	r3, [r4, #12]	@ movhi
 409              		.loc 1 347 0
 410 002e E181     		strh	r1, [r4, #14]	@ movhi
 411              	.LVL44:
 412              		.loc 1 353 0
 413 0030 BDE81040 		pop	{r4, lr}
 414              		.loc 1 352 0
 415 0034 FFF7FEBF 		b	usb_lld_disable_endpoints
 416              	.LVL45:
 417              	.L49:
 418              		.loc 1 342 0 discriminator 1
 419 0038 0248     		ldr	r0, .L50+4
 420 003a FFF7FEFF 		bl	chDbgPanic
 421              	.LVL46:
 422 003e E4E7     		b	.L44
 423              	.L51:
 424              		.align	2
 425              	.L50:
 426 0040 A8000000 		.word	.LC8
 427 0044 8C000000 		.word	.LC7
 428              		.cfi_endproc
 429              	.LFE125:
 430              		.size	usbDisableEndpointsI, .-usbDisableEndpointsI
 431 0048 AFF30080 		.section	.text.usbPrepareReceive,"ax",%progbits
 431      AFF30080 
 432              		.align	2
 433              		.p2align 4,,15
 434              		.global	usbPrepareReceive
 435              		.thumb
 436              		.thumb_func
 437              		.type	usbPrepareReceive, %function
 438              	usbPrepareReceive:
 439              	.LFB126:
 440              		.loc 1 367 0
 441              		.cfi_startproc
 442              		@ args = 0, pretend = 0, frame = 0
 443              		@ frame_needed = 0, uses_anonymous_args = 0
 444              		@ link register save eliminated.
 445              	.LVL47:
 446 0000 30B4     		push	{r4, r5}
 447              	.LCFI4:
 448              		.cfi_def_cfa_offset 8
ARM GAS  /tmp/ccuondXl.s 			page 9


 449              		.cfi_offset 4, -8
 450              		.cfi_offset 5, -4
 451              		.loc 1 368 0
 452 0002 0C1D     		adds	r4, r1, #4
 453              		.loc 1 370 0
 454 0004 0025     		movs	r5, #0
 455              		.loc 1 368 0
 456 0006 50F82440 		ldr	r4, [r0, r4, lsl #2]
 457 000a A469     		ldr	r4, [r4, #24]
 458              	.LVL48:
 459              		.loc 1 370 0
 460 000c 2560     		str	r5, [r4, #0]
 461              		.loc 1 371 0
 462 000e E260     		str	r2, [r4, #12]
 463              		.loc 1 372 0
 464 0010 6360     		str	r3, [r4, #4]
 465              		.loc 1 373 0
 466 0012 A560     		str	r5, [r4, #8]
 467              		.loc 1 376 0
 468 0014 30BC     		pop	{r4, r5}
 469              		.loc 1 375 0
 470 0016 FFF7FEBF 		b	usb_lld_prepare_receive
 471              	.LVL49:
 472              		.cfi_endproc
 473              	.LFE126:
 474              		.size	usbPrepareReceive, .-usbPrepareReceive
 475 001a 00BFAFF3 		.section	.text.usbPrepareTransmit,"ax",%progbits
 475      0080
 476              		.align	2
 477              		.p2align 4,,15
 478              		.global	usbPrepareTransmit
 479              		.thumb
 480              		.thumb_func
 481              		.type	usbPrepareTransmit, %function
 482              	usbPrepareTransmit:
 483              	.LFB127:
 484              		.loc 1 393 0
 485              		.cfi_startproc
 486              		@ args = 0, pretend = 0, frame = 0
 487              		@ frame_needed = 0, uses_anonymous_args = 0
 488              		@ link register save eliminated.
 489              	.LVL50:
 490 0000 30B4     		push	{r4, r5}
 491              	.LCFI5:
 492              		.cfi_def_cfa_offset 8
 493              		.cfi_offset 4, -8
 494              		.cfi_offset 5, -4
 495              		.loc 1 394 0
 496 0002 0C1D     		adds	r4, r1, #4
 497              		.loc 1 396 0
 498 0004 0025     		movs	r5, #0
 499              		.loc 1 394 0
 500 0006 50F82440 		ldr	r4, [r0, r4, lsl #2]
 501 000a 6469     		ldr	r4, [r4, #20]
 502              	.LVL51:
 503              		.loc 1 396 0
 504 000c 2560     		str	r5, [r4, #0]
ARM GAS  /tmp/ccuondXl.s 			page 10


 505              		.loc 1 397 0
 506 000e E260     		str	r2, [r4, #12]
 507              		.loc 1 398 0
 508 0010 6360     		str	r3, [r4, #4]
 509              		.loc 1 399 0
 510 0012 A560     		str	r5, [r4, #8]
 511              		.loc 1 402 0
 512 0014 30BC     		pop	{r4, r5}
 513              		.loc 1 401 0
 514 0016 FFF7FEBF 		b	usb_lld_prepare_transmit
 515              	.LVL52:
 516              		.cfi_endproc
 517              	.LFE127:
 518              		.size	usbPrepareTransmit, .-usbPrepareTransmit
 519 001a 00BFAFF3 		.section	.text.usbPrepareQueuedReceive,"ax",%progbits
 519      0080
 520              		.align	2
 521              		.p2align 4,,15
 522              		.global	usbPrepareQueuedReceive
 523              		.thumb
 524              		.thumb_func
 525              		.type	usbPrepareQueuedReceive, %function
 526              	usbPrepareQueuedReceive:
 527              	.LFB128:
 528              		.loc 1 422 0
 529              		.cfi_startproc
 530              		@ args = 0, pretend = 0, frame = 0
 531              		@ frame_needed = 0, uses_anonymous_args = 0
 532              		@ link register save eliminated.
 533              	.LVL53:
 534 0000 30B4     		push	{r4, r5}
 535              	.LCFI6:
 536              		.cfi_def_cfa_offset 8
 537              		.cfi_offset 4, -8
 538              		.cfi_offset 5, -4
 539              		.loc 1 423 0
 540 0002 0C1D     		adds	r4, r1, #4
 541 0004 50F82450 		ldr	r5, [r0, r4, lsl #2]
 542 0008 AC69     		ldr	r4, [r5, #24]
 543              	.LVL54:
 544              		.loc 1 425 0
 545 000a 0125     		movs	r5, #1
 546              		.loc 1 427 0
 547 000c 6360     		str	r3, [r4, #4]
 548              		.loc 1 428 0
 549 000e 0023     		movs	r3, #0
 550              	.LVL55:
 551              		.loc 1 425 0
 552 0010 2560     		str	r5, [r4, #0]
 553              		.loc 1 426 0
 554 0012 E260     		str	r2, [r4, #12]
 555              		.loc 1 428 0
 556 0014 A360     		str	r3, [r4, #8]
 557              		.loc 1 431 0
 558 0016 30BC     		pop	{r4, r5}
 559              		.loc 1 430 0
 560 0018 FFF7FEBF 		b	usb_lld_prepare_receive
ARM GAS  /tmp/ccuondXl.s 			page 11


 561              	.LVL56:
 562              		.cfi_endproc
 563              	.LFE128:
 564              		.size	usbPrepareQueuedReceive, .-usbPrepareQueuedReceive
 565 001c AFF30080 		.section	.text.usbPrepareQueuedTransmit,"ax",%progbits
 566              		.align	2
 567              		.p2align 4,,15
 568              		.global	usbPrepareQueuedTransmit
 569              		.thumb
 570              		.thumb_func
 571              		.type	usbPrepareQueuedTransmit, %function
 572              	usbPrepareQueuedTransmit:
 573              	.LFB129:
 574              		.loc 1 448 0
 575              		.cfi_startproc
 576              		@ args = 0, pretend = 0, frame = 0
 577              		@ frame_needed = 0, uses_anonymous_args = 0
 578              		@ link register save eliminated.
 579              	.LVL57:
 580 0000 30B4     		push	{r4, r5}
 581              	.LCFI7:
 582              		.cfi_def_cfa_offset 8
 583              		.cfi_offset 4, -8
 584              		.cfi_offset 5, -4
 585              		.loc 1 449 0
 586 0002 0C1D     		adds	r4, r1, #4
 587 0004 50F82450 		ldr	r5, [r0, r4, lsl #2]
 588 0008 6C69     		ldr	r4, [r5, #20]
 589              	.LVL58:
 590              		.loc 1 451 0
 591 000a 0125     		movs	r5, #1
 592              		.loc 1 453 0
 593 000c 6360     		str	r3, [r4, #4]
 594              		.loc 1 454 0
 595 000e 0023     		movs	r3, #0
 596              	.LVL59:
 597              		.loc 1 451 0
 598 0010 2560     		str	r5, [r4, #0]
 599              		.loc 1 452 0
 600 0012 E260     		str	r2, [r4, #12]
 601              		.loc 1 454 0
 602 0014 A360     		str	r3, [r4, #8]
 603              		.loc 1 457 0
 604 0016 30BC     		pop	{r4, r5}
 605              		.loc 1 456 0
 606 0018 FFF7FEBF 		b	usb_lld_prepare_transmit
 607              	.LVL60:
 608              		.cfi_endproc
 609              	.LFE129:
 610              		.size	usbPrepareQueuedTransmit, .-usbPrepareQueuedTransmit
 611 001c AFF30080 		.section	.text.usbStartReceiveI,"ax",%progbits
 612              		.align	2
 613              		.p2align 4,,15
 614              		.global	usbStartReceiveI
 615              		.thumb
 616              		.thumb_func
 617              		.type	usbStartReceiveI, %function
ARM GAS  /tmp/ccuondXl.s 			page 12


 618              	usbStartReceiveI:
 619              	.LFB130:
 620              		.loc 1 473 0
 621              		.cfi_startproc
 622              		@ args = 0, pretend = 0, frame = 0
 623              		@ frame_needed = 0, uses_anonymous_args = 0
 624              	.LVL61:
 625 0000 70B5     		push	{r4, r5, r6, lr}
 626              	.LCFI8:
 627              		.cfi_def_cfa_offset 16
 628              		.cfi_offset 4, -16
 629              		.cfi_offset 5, -12
 630              		.cfi_offset 6, -8
 631              		.cfi_offset 14, -4
 632              		.loc 1 473 0
 633 0002 0446     		mov	r4, r0
 634 0004 0D46     		mov	r5, r1
 635              		.loc 1 475 0
 636 0006 FFF7FEFF 		bl	chDbgCheckClassI
 637              	.LVL62:
 638              		.loc 1 476 0
 639 000a 9CB1     		cbz	r4, .L60
 640              	.L57:
 641              		.loc 1 478 0
 642 000c E389     		ldrh	r3, [r4, #14]
 643 000e 43FA05F0 		asr	r0, r3, r5
 644 0012 10F00106 		ands	r6, r0, #1
 645 0016 01D0     		beq	.L61
 646              		.loc 1 479 0
 647 0018 0120     		movs	r0, #1
 648              		.loc 1 484 0
 649 001a 70BD     		pop	{r4, r5, r6, pc}
 650              	.L61:
 651              		.loc 1 481 0
 652 001c 0122     		movs	r2, #1
 653 001e 02FA05F2 		lsl	r2, r2, r5
 654 0022 42EA0301 		orr	r1, r2, r3
 655 0026 E181     		strh	r1, [r4, #14]	@ movhi
 656              		.loc 1 482 0
 657 0028 2046     		mov	r0, r4
 658 002a 2946     		mov	r1, r5
 659 002c FFF7FEFF 		bl	usb_lld_start_out
 660              	.LVL63:
 661              		.loc 1 483 0
 662 0030 3046     		mov	r0, r6
 663 0032 70BD     		pop	{r4, r5, r6, pc}
 664              	.L60:
 665              		.loc 1 476 0 discriminator 1
 666 0034 0148     		ldr	r0, .L62
 667 0036 FFF7FEFF 		bl	chDbgPanic
 668              	.LVL64:
 669 003a E7E7     		b	.L57
 670              	.L63:
 671              		.align	2
 672              	.L62:
 673 003c C4000000 		.word	.LC9
 674              		.cfi_endproc
ARM GAS  /tmp/ccuondXl.s 			page 13


 675              	.LFE130:
 676              		.size	usbStartReceiveI, .-usbStartReceiveI
 677              		.section	.text.usbStartTransmitI,"ax",%progbits
 678              		.align	2
 679              		.p2align 4,,15
 680              		.global	usbStartTransmitI
 681              		.thumb
 682              		.thumb_func
 683              		.type	usbStartTransmitI, %function
 684              	usbStartTransmitI:
 685              	.LFB131:
 686              		.loc 1 500 0
 687              		.cfi_startproc
 688              		@ args = 0, pretend = 0, frame = 0
 689              		@ frame_needed = 0, uses_anonymous_args = 0
 690              	.LVL65:
 691 0000 70B5     		push	{r4, r5, r6, lr}
 692              	.LCFI9:
 693              		.cfi_def_cfa_offset 16
 694              		.cfi_offset 4, -16
 695              		.cfi_offset 5, -12
 696              		.cfi_offset 6, -8
 697              		.cfi_offset 14, -4
 698              		.loc 1 500 0
 699 0002 0446     		mov	r4, r0
 700 0004 0D46     		mov	r5, r1
 701              		.loc 1 502 0
 702 0006 FFF7FEFF 		bl	chDbgCheckClassI
 703              	.LVL66:
 704              		.loc 1 503 0
 705 000a 9CB1     		cbz	r4, .L68
 706              	.L65:
 707              		.loc 1 505 0
 708 000c A389     		ldrh	r3, [r4, #12]
 709 000e 43FA05F0 		asr	r0, r3, r5
 710 0012 10F00106 		ands	r6, r0, #1
 711 0016 01D0     		beq	.L69
 712              		.loc 1 506 0
 713 0018 0120     		movs	r0, #1
 714              		.loc 1 511 0
 715 001a 70BD     		pop	{r4, r5, r6, pc}
 716              	.L69:
 717              		.loc 1 508 0
 718 001c 0122     		movs	r2, #1
 719 001e 02FA05F2 		lsl	r2, r2, r5
 720 0022 42EA0301 		orr	r1, r2, r3
 721 0026 A181     		strh	r1, [r4, #12]	@ movhi
 722              		.loc 1 509 0
 723 0028 2046     		mov	r0, r4
 724 002a 2946     		mov	r1, r5
 725 002c FFF7FEFF 		bl	usb_lld_start_in
 726              	.LVL67:
 727              		.loc 1 510 0
 728 0030 3046     		mov	r0, r6
 729 0032 70BD     		pop	{r4, r5, r6, pc}
 730              	.L68:
 731              		.loc 1 503 0 discriminator 1
ARM GAS  /tmp/ccuondXl.s 			page 14


 732 0034 0148     		ldr	r0, .L70
 733 0036 FFF7FEFF 		bl	chDbgPanic
 734              	.LVL68:
 735 003a E7E7     		b	.L65
 736              	.L71:
 737              		.align	2
 738              	.L70:
 739 003c DC000000 		.word	.LC10
 740              		.cfi_endproc
 741              	.LFE131:
 742              		.size	usbStartTransmitI, .-usbStartTransmitI
 743              		.section	.text.usbStallReceiveI,"ax",%progbits
 744              		.align	2
 745              		.p2align 4,,15
 746              		.global	usbStallReceiveI
 747              		.thumb
 748              		.thumb_func
 749              		.type	usbStallReceiveI, %function
 750              	usbStallReceiveI:
 751              	.LFB132:
 752              		.loc 1 525 0
 753              		.cfi_startproc
 754              		@ args = 0, pretend = 0, frame = 0
 755              		@ frame_needed = 0, uses_anonymous_args = 0
 756              	.LVL69:
 757 0000 70B5     		push	{r4, r5, r6, lr}
 758              	.LCFI10:
 759              		.cfi_def_cfa_offset 16
 760              		.cfi_offset 4, -16
 761              		.cfi_offset 5, -12
 762              		.cfi_offset 6, -8
 763              		.cfi_offset 14, -4
 764              		.loc 1 525 0
 765 0002 0446     		mov	r4, r0
 766 0004 0D46     		mov	r5, r1
 767              		.loc 1 527 0
 768 0006 FFF7FEFF 		bl	chDbgCheckClassI
 769              	.LVL70:
 770              		.loc 1 528 0
 771 000a 6CB1     		cbz	r4, .L76
 772              	.L73:
 773              		.loc 1 530 0
 774 000c E089     		ldrh	r0, [r4, #14]
 775 000e 40FA05F0 		asr	r0, r0, r5
 776 0012 10F00106 		ands	r6, r0, #1
 777 0016 01D0     		beq	.L77
 778              		.loc 1 531 0
 779 0018 0120     		movs	r0, #1
 780              		.loc 1 535 0
 781 001a 70BD     		pop	{r4, r5, r6, pc}
 782              	.L77:
 783              		.loc 1 533 0
 784 001c 2046     		mov	r0, r4
 785 001e 2946     		mov	r1, r5
 786 0020 FFF7FEFF 		bl	usb_lld_stall_out
 787              	.LVL71:
 788              		.loc 1 534 0
ARM GAS  /tmp/ccuondXl.s 			page 15


 789 0024 3046     		mov	r0, r6
 790 0026 70BD     		pop	{r4, r5, r6, pc}
 791              	.L76:
 792              		.loc 1 528 0 discriminator 1
 793 0028 0148     		ldr	r0, .L78
 794 002a FFF7FEFF 		bl	chDbgPanic
 795              	.LVL72:
 796 002e EDE7     		b	.L73
 797              	.L79:
 798              		.align	2
 799              	.L78:
 800 0030 F4000000 		.word	.LC11
 801              		.cfi_endproc
 802              	.LFE132:
 803              		.size	usbStallReceiveI, .-usbStallReceiveI
 804 0034 AFF30080 		.section	.text.usbStallTransmitI,"ax",%progbits
 804      AFF30080 
 804      AFF30080 
 805              		.align	2
 806              		.p2align 4,,15
 807              		.global	usbStallTransmitI
 808              		.thumb
 809              		.thumb_func
 810              		.type	usbStallTransmitI, %function
 811              	usbStallTransmitI:
 812              	.LFB133:
 813              		.loc 1 549 0
 814              		.cfi_startproc
 815              		@ args = 0, pretend = 0, frame = 0
 816              		@ frame_needed = 0, uses_anonymous_args = 0
 817              	.LVL73:
 818 0000 70B5     		push	{r4, r5, r6, lr}
 819              	.LCFI11:
 820              		.cfi_def_cfa_offset 16
 821              		.cfi_offset 4, -16
 822              		.cfi_offset 5, -12
 823              		.cfi_offset 6, -8
 824              		.cfi_offset 14, -4
 825              		.loc 1 549 0
 826 0002 0446     		mov	r4, r0
 827 0004 0D46     		mov	r5, r1
 828              		.loc 1 551 0
 829 0006 FFF7FEFF 		bl	chDbgCheckClassI
 830              	.LVL74:
 831              		.loc 1 552 0
 832 000a 6CB1     		cbz	r4, .L84
 833              	.L81:
 834              		.loc 1 554 0
 835 000c A089     		ldrh	r0, [r4, #12]
 836 000e 40FA05F0 		asr	r0, r0, r5
 837 0012 10F00106 		ands	r6, r0, #1
 838 0016 01D0     		beq	.L85
 839              		.loc 1 555 0
 840 0018 0120     		movs	r0, #1
 841              		.loc 1 559 0
 842 001a 70BD     		pop	{r4, r5, r6, pc}
 843              	.L85:
ARM GAS  /tmp/ccuondXl.s 			page 16


 844              		.loc 1 557 0
 845 001c 2046     		mov	r0, r4
 846 001e 2946     		mov	r1, r5
 847 0020 FFF7FEFF 		bl	usb_lld_stall_in
 848              	.LVL75:
 849              		.loc 1 558 0
 850 0024 3046     		mov	r0, r6
 851 0026 70BD     		pop	{r4, r5, r6, pc}
 852              	.L84:
 853              		.loc 1 552 0 discriminator 1
 854 0028 0148     		ldr	r0, .L86
 855 002a FFF7FEFF 		bl	chDbgPanic
 856              	.LVL76:
 857 002e EDE7     		b	.L81
 858              	.L87:
 859              		.align	2
 860              	.L86:
 861 0030 0C010000 		.word	.LC12
 862              		.cfi_endproc
 863              	.LFE133:
 864              		.size	usbStallTransmitI, .-usbStallTransmitI
 865 0034 AFF30080 		.section	.text._usb_reset,"ax",%progbits
 865      AFF30080 
 865      AFF30080 
 866              		.align	2
 867              		.p2align 4,,15
 868              		.global	_usb_reset
 869              		.thumb
 870              		.thumb_func
 871              		.type	_usb_reset, %function
 872              	_usb_reset:
 873              	.LFB134:
 874              		.loc 1 570 0
 875              		.cfi_startproc
 876              		@ args = 0, pretend = 0, frame = 0
 877              		@ frame_needed = 0, uses_anonymous_args = 0
 878              		@ link register save eliminated.
 879              	.LVL77:
 880 0000 10B4     		push	{r4}
 881              	.LCFI12:
 882              		.cfi_def_cfa_offset 4
 883              		.cfi_offset 4, -4
 884              		.loc 1 570 0
 885 0002 0346     		mov	r3, r0
 886              		.loc 1 574 0
 887 0004 0022     		movs	r2, #0
 888              		.loc 1 573 0
 889 0006 0224     		movs	r4, #2
 890 0008 0470     		strb	r4, [r0, #0]
 891              		.loc 1 574 0
 892 000a 0287     		strh	r2, [r0, #56]	@ movhi
 893              		.loc 1 575 0
 894 000c 83F83A20 		strb	r2, [r3, #58]
 895              		.loc 1 576 0
 896 0010 80F83B20 		strb	r2, [r0, #59]
 897              		.loc 1 577 0
 898 0014 8281     		strh	r2, [r0, #12]	@ movhi
ARM GAS  /tmp/ccuondXl.s 			page 17


 899              		.loc 1 578 0
 900 0016 C281     		strh	r2, [r0, #14]	@ movhi
 901              	.LVL78:
 902              		.loc 1 582 0
 903 0018 0261     		str	r2, [r0, #16]
 904              	.LVL79:
 905 001a 4261     		str	r2, [r0, #20]
 906              	.LVL80:
 907 001c 8261     		str	r2, [r0, #24]
 908              	.LVL81:
 909 001e C261     		str	r2, [r0, #28]
 910              	.LVL82:
 911              		.loc 1 585 0
 912 0020 83F82020 		strb	r2, [r3, #32]
 913              		.loc 1 589 0
 914 0024 10BC     		pop	{r4}
 915              		.loc 1 588 0
 916 0026 FFF7FEBF 		b	usb_lld_reset
 917              	.LVL83:
 918              		.cfi_endproc
 919              	.LFE134:
 920              		.size	_usb_reset, .-_usb_reset
 921 002a 00BFAFF3 		.section	.text._usb_ep0setup,"ax",%progbits
 921      0080
 922              		.align	2
 923              		.p2align 4,,15
 924              		.global	_usb_ep0setup
 925              		.thumb
 926              		.thumb_func
 927              		.type	_usb_ep0setup, %function
 928              	_usb_ep0setup:
 929              	.LFB135:
 930              		.loc 1 601 0
 931              		.cfi_startproc
 932              		@ args = 0, pretend = 0, frame = 0
 933              		@ frame_needed = 0, uses_anonymous_args = 0
 934              	.LVL84:
 935 0000 F8B5     		push	{r3, r4, r5, r6, r7, lr}
 936              	.LCFI13:
 937              		.cfi_def_cfa_offset 24
 938              		.cfi_offset 3, -24
 939              		.cfi_offset 4, -20
 940              		.cfi_offset 5, -16
 941              		.cfi_offset 6, -12
 942              		.cfi_offset 7, -8
 943              		.cfi_offset 14, -4
 944              		.loc 1 601 0
 945 0002 0446     		mov	r4, r0
 946              		.loc 1 604 0
 947 0004 0023     		movs	r3, #0
 948 0006 80F82030 		strb	r3, [r0, #32]
 949              		.loc 1 605 0
 950 000a 00F13002 		add	r2, r0, #48
 951 000e FFF7FEFF 		bl	usb_lld_read_setup
 952              	.LVL85:
 953              		.loc 1 609 0
 954 0012 6068     		ldr	r0, [r4, #4]
ARM GAS  /tmp/ccuondXl.s 			page 18


 955 0014 8168     		ldr	r1, [r0, #8]
 956 0016 0029     		cmp	r1, #0
 957 0018 2DD0     		beq	.L93
 958              		.loc 1 610 0 discriminator 1
 959 001a 2046     		mov	r0, r4
 960 001c 8847     		blx	r1
 961              	.LVL86:
 962              		.loc 1 609 0 discriminator 1
 963 001e 50B3     		cbz	r0, .L93
 964 0020 A56A     		ldr	r5, [r4, #40]
 965 0022 94F83030 		ldrb	r3, [r4, #48]	@ zero_extendqisi2
 966              	.L133:
 967              		.loc 1 629 0
 968 0026 94F83710 		ldrb	r1, [r4, #55]	@ zero_extendqisi2
 969 002a 94F83620 		ldrb	r2, [r4, #54]	@ zero_extendqisi2
 970 002e 42EA0120 		orr	r0, r2, r1, lsl #8
 971              	.LVL87:
 972              		.loc 1 631 0
 973 0032 A842     		cmp	r0, r5
 974              		.loc 1 632 0
 975 0034 3CBF     		itt	cc
 976 0036 0546     		movcc	r5, r0
 977 0038 A062     		strcc	r0, [r4, #40]
 978              		.loc 1 633 0
 979 003a 13F0800F 		tst	r3, #128
 980              		.loc 1 638 0
 981 003e 2B46     		mov	r3, r5
 982              		.loc 1 633 0
 983 0040 40F08780 		bne	.L162
 984              		.loc 1 655 0
 985 0044 002D     		cmp	r5, #0
 986 0046 6DD1     		bne	.L163
 987              		.loc 1 666 0
 988 0048 0421     		movs	r1, #4
 989 004a 84F82010 		strb	r1, [r4, #32]
 990              		.loc 1 667 0
 991 004e 2046     		mov	r0, r4
 992              	.LVL88:
 993 0050 2946     		mov	r1, r5
 994 0052 2A46     		mov	r2, r5
 995              	.LVL89:
 996 0054 FFF7FEFF 		bl	usbPrepareTransmit
 997              	.LVL90:
 998              	.LBB18:
 999              		.loc 1 668 0
 1000 0058 2023     		movs	r3, #32
 1001              	.LVL91:
 1002              	@ 668 "/home/gokul/ChibiOS_2.5.0/os/hal/src/usb.c" 1
 1003 005a 83F31188 		msr     BASEPRI, r3
 1004              	@ 0 "" 2
 1005              	.LVL92:
 1006              		.thumb
 1007              	.LBE18:
 1008 005e FFF7FEFF 		bl	dbg_check_lock_from_isr
 1009              	.LVL93:
 1010              		.loc 1 669 0
 1011 0062 2946     		mov	r1, r5
ARM GAS  /tmp/ccuondXl.s 			page 19


 1012 0064 2046     		mov	r0, r4
 1013 0066 FFF7FEFF 		bl	usbStartTransmitI
 1014              	.LVL94:
 1015              		.loc 1 670 0
 1016 006a FFF7FEFF 		bl	dbg_check_unlock_from_isr
 1017              	.LVL95:
 1018              	.LBB19:
 1019 006e 2B46     		mov	r3, r5
 1020              	.LVL96:
 1021              	@ 670 "/home/gokul/ChibiOS_2.5.0/os/hal/src/usb.c" 1
 1022 0070 83F31188 		msr     BASEPRI, r3
 1023              	@ 0 "" 2
 1024              	.LVL97:
 1025              		.thumb
 1026 0074 F8BD     		pop	{r3, r4, r5, r6, r7, pc}
 1027              	.LVL98:
 1028              	.L93:
 1029              	.LBE19:
 1030              		.loc 1 613 0
 1031 0076 94F83030 		ldrb	r3, [r4, #48]	@ zero_extendqisi2
 1032 007a 13F06007 		ands	r7, r3, #96
 1033 007e 11D0     		beq	.L164
 1034              	.L91:
 1035              		.loc 1 618 0
 1036 0080 0021     		movs	r1, #0
 1037 0082 2046     		mov	r0, r4
 1038 0084 FFF7FEFF 		bl	usb_lld_stall_in
 1039              	.LVL99:
 1040              		.loc 1 619 0
 1041 0088 2046     		mov	r0, r4
 1042 008a 0021     		movs	r1, #0
 1043 008c FFF7FEFF 		bl	usb_lld_stall_out
 1044              	.LVL100:
 1045              		.loc 1 620 0
 1046 0090 6368     		ldr	r3, [r4, #4]
 1047 0092 1A68     		ldr	r2, [r3, #0]
 1048 0094 12B1     		cbz	r2, .L127
 1049              		.loc 1 620 0 is_stmt 0 discriminator 1
 1050 0096 2046     		mov	r0, r4
 1051 0098 0521     		movs	r1, #5
 1052 009a 9047     		blx	r2
 1053              	.LVL101:
 1054              	.L127:
 1055              		.loc 1 621 0 is_stmt 1
 1056 009c 0520     		movs	r0, #5
 1057 009e 84F82000 		strb	r0, [r4, #32]
 1058              		.loc 1 622 0
 1059 00a2 F8BD     		pop	{r3, r4, r5, r6, r7, pc}
 1060              	.L164:
 1061              	.LVL102:
 1062              	.LBB20:
 1063              	.LBB21:
 1064              		.loc 1 88 0
 1065 00a4 94F83160 		ldrb	r6, [r4, #49]	@ zero_extendqisi2
 1066              		.loc 1 86 0
 1067 00a8 03F07F02 		and	r2, r3, #127
 1068              		.loc 1 87 0
ARM GAS  /tmp/ccuondXl.s 			page 20


 1069 00ac 42EA0626 		orr	r6, r2, r6, lsl #8
 1070              		.loc 1 86 0
 1071 00b0 B6F5407F 		cmp	r6, #768
 1072 00b4 00F00381 		beq	.L101
 1073 00b8 17DD     		ble	.L165
 1074 00ba B6F5C06F 		cmp	r6, #1536
 1075 00be 00F09580 		beq	.L104
 1076 00c2 75DD     		ble	.L166
 1077 00c4 B6F5106F 		cmp	r6, #2304
 1078 00c8 00F0BE80 		beq	.L106
 1079 00cc 40F60242 		movw	r2, #3074
 1080 00d0 9642     		cmp	r6, r2
 1081 00d2 00F08480 		beq	.L97
 1082 00d6 B6F5006F 		cmp	r6, #2048
 1083 00da D1D1     		bne	.L91
 1084              		.loc 1 135 0
 1085 00dc 0125     		movs	r5, #1
 1086 00de 04F13B00 		add	r0, r4, #59
 1087 00e2 6062     		str	r0, [r4, #36]
 1088 00e4 A562     		str	r5, [r4, #40]
 1089 00e6 E762     		str	r7, [r4, #44]
 1090 00e8 9DE7     		b	.L133
 1091              	.L165:
 1092              		.loc 1 86 0
 1093 00ea 022E     		cmp	r6, #2
 1094 00ec 00F0BE80 		beq	.L98
 1095 00f0 70DD     		ble	.L167
 1096 00f2 B6F5807F 		cmp	r6, #256
 1097 00f6 00F09280 		beq	.L99
 1098 00fa B6F5817F 		cmp	r6, #258
 1099 00fe BFD1     		bne	.L91
 1100              		.loc 1 181 0
 1101 0100 94F83210 		ldrb	r1, [r4, #50]	@ zero_extendqisi2
 1102 0104 0029     		cmp	r1, #0
 1103 0106 BBD1     		bne	.L91
 1104              		.loc 1 184 0
 1105 0108 94F83450 		ldrb	r5, [r4, #52]	@ zero_extendqisi2
 1106 010c 15F00F01 		ands	r1, r5, #15
 1107 0110 5BD0     		beq	.L125
 1108              		.loc 1 185 0
 1109 0112 2A06     		lsls	r2, r5, #24
 1110              		.loc 1 186 0
 1111 0114 2046     		mov	r0, r4
 1112              		.loc 1 185 0
 1113 0116 00F10181 		bmi	.L168
 1114              	.LVL103:
 1115              		.loc 1 188 0
 1116 011a FFF7FEFF 		bl	usb_lld_clear_out
 1117              	.LVL104:
 1118 011e 94F83030 		ldrb	r3, [r4, #48]	@ zero_extendqisi2
 1119 0122 52E0     		b	.L125
 1120              	.LVL105:
 1121              	.L163:
 1122              	.LBE21:
 1123              	.LBE20:
 1124              		.loc 1 657 0
 1125 0124 0322     		movs	r2, #3
ARM GAS  /tmp/ccuondXl.s 			page 21


 1126 0126 84F82020 		strb	r2, [r4, #32]
 1127              		.loc 1 658 0
 1128 012a 2046     		mov	r0, r4
 1129              	.LVL106:
 1130 012c 0021     		movs	r1, #0
 1131              	.LVL107:
 1132 012e 626A     		ldr	r2, [r4, #36]
 1133 0130 FFF7FEFF 		bl	usbPrepareReceive
 1134              	.LVL108:
 1135              	.LBB25:
 1136              		.loc 1 659 0
 1137 0134 2023     		movs	r3, #32
 1138              	.LVL109:
 1139              	@ 659 "/home/gokul/ChibiOS_2.5.0/os/hal/src/usb.c" 1
 1140 0136 83F31188 		msr     BASEPRI, r3
 1141              	@ 0 "" 2
 1142              	.LVL110:
 1143              		.thumb
 1144              	.LBE25:
 1145 013a FFF7FEFF 		bl	dbg_check_lock_from_isr
 1146              	.LVL111:
 1147              		.loc 1 660 0
 1148 013e 0021     		movs	r1, #0
 1149 0140 2046     		mov	r0, r4
 1150 0142 FFF7FEFF 		bl	usbStartReceiveI
 1151              	.LVL112:
 1152              		.loc 1 661 0
 1153 0146 FFF7FEFF 		bl	dbg_check_unlock_from_isr
 1154              	.LVL113:
 1155              	.LBB26:
 1156 014a 0023     		movs	r3, #0
 1157              	.LVL114:
 1158              	@ 661 "/home/gokul/ChibiOS_2.5.0/os/hal/src/usb.c" 1
 1159 014c 83F31188 		msr     BASEPRI, r3
 1160              	@ 0 "" 2
 1161              	.LVL115:
 1162              		.thumb
 1163 0150 F8BD     		pop	{r3, r4, r5, r6, r7, pc}
 1164              	.LVL116:
 1165              	.L162:
 1166              	.LBE26:
 1167              		.loc 1 635 0
 1168 0152 B5B1     		cbz	r5, .L131
 1169              		.loc 1 637 0
 1170 0154 0121     		movs	r1, #1
 1171 0156 84F82010 		strb	r1, [r4, #32]
 1172              		.loc 1 638 0
 1173 015a 2046     		mov	r0, r4
 1174              	.LVL117:
 1175 015c 0021     		movs	r1, #0
 1176 015e 626A     		ldr	r2, [r4, #36]
 1177              	.LVL118:
 1178 0160 FFF7FEFF 		bl	usbPrepareTransmit
 1179              	.LVL119:
 1180              	.LBB27:
 1181              		.loc 1 639 0
 1182 0164 2023     		movs	r3, #32
ARM GAS  /tmp/ccuondXl.s 			page 22


 1183              	.LVL120:
 1184              	@ 639 "/home/gokul/ChibiOS_2.5.0/os/hal/src/usb.c" 1
 1185 0166 83F31188 		msr     BASEPRI, r3
 1186              	@ 0 "" 2
 1187              	.LVL121:
 1188              		.thumb
 1189              	.LBE27:
 1190 016a FFF7FEFF 		bl	dbg_check_lock_from_isr
 1191              	.LVL122:
 1192              		.loc 1 640 0
 1193 016e 0021     		movs	r1, #0
 1194 0170 2046     		mov	r0, r4
 1195 0172 FFF7FEFF 		bl	usbStartTransmitI
 1196              	.LVL123:
 1197              		.loc 1 641 0
 1198 0176 FFF7FEFF 		bl	dbg_check_unlock_from_isr
 1199              	.LVL124:
 1200              	.LBB28:
 1201 017a 0023     		movs	r3, #0
 1202              	.LVL125:
 1203              	@ 641 "/home/gokul/ChibiOS_2.5.0/os/hal/src/usb.c" 1
 1204 017c 83F31188 		msr     BASEPRI, r3
 1205              	@ 0 "" 2
 1206              	.LVL126:
 1207              		.thumb
 1208 0180 F8BD     		pop	{r3, r4, r5, r6, r7, pc}
 1209              	.LVL127:
 1210              	.L131:
 1211              	.LBE28:
 1212              		.loc 1 646 0
 1213 0182 0220     		movs	r0, #2
 1214              	.LVL128:
 1215 0184 84F82000 		strb	r0, [r4, #32]
 1216              		.loc 1 647 0
 1217 0188 2946     		mov	r1, r5
 1218              	.LVL129:
 1219 018a 2046     		mov	r0, r4
 1220 018c 2A46     		mov	r2, r5
 1221              	.LVL130:
 1222 018e FFF7FEFF 		bl	usbPrepareReceive
 1223              	.LVL131:
 1224              	.LBB29:
 1225              		.loc 1 648 0
 1226 0192 2023     		movs	r3, #32
 1227              	.LVL132:
 1228              	@ 648 "/home/gokul/ChibiOS_2.5.0/os/hal/src/usb.c" 1
 1229 0194 83F31188 		msr     BASEPRI, r3
 1230              	@ 0 "" 2
 1231              	.LVL133:
 1232              		.thumb
 1233              	.LBE29:
 1234 0198 FFF7FEFF 		bl	dbg_check_lock_from_isr
 1235              	.LVL134:
 1236              		.loc 1 649 0
 1237 019c 2946     		mov	r1, r5
 1238 019e 2046     		mov	r0, r4
 1239 01a0 FFF7FEFF 		bl	usbStartReceiveI
ARM GAS  /tmp/ccuondXl.s 			page 23


 1240              	.LVL135:
 1241              		.loc 1 650 0
 1242 01a4 FFF7FEFF 		bl	dbg_check_unlock_from_isr
 1243              	.LVL136:
 1244              	.LBB30:
 1245 01a8 2B46     		mov	r3, r5
 1246              	.LVL137:
 1247              	@ 650 "/home/gokul/ChibiOS_2.5.0/os/hal/src/usb.c" 1
 1248 01aa 83F31188 		msr     BASEPRI, r3
 1249              	@ 0 "" 2
 1250              	.LVL138:
 1251              		.thumb
 1252 01ae F8BD     		pop	{r3, r4, r5, r6, r7, pc}
 1253              	.LVL139:
 1254              	.L166:
 1255              	.LBE30:
 1256              	.LBB31:
 1257              	.LBB24:
 1258              		.loc 1 86 0
 1259 01b0 40F20230 		movw	r0, #770
 1260 01b4 8642     		cmp	r6, r0
 1261 01b6 70D0     		beq	.L102
 1262 01b8 B6F5A06F 		cmp	r6, #1280
 1263 01bc 7FF460AF 		bne	.L91
 1264              		.loc 1 116 0
 1265 01c0 218E     		ldrh	r1, [r4, #48]
 1266 01c2 B1F5A06F 		cmp	r1, #1280
 1267 01c6 00F09780 		beq	.L169
 1268              	.L125:
 1269              		.loc 1 203 0
 1270 01ca 0025     		movs	r5, #0
 1271 01cc 6562     		str	r5, [r4, #36]
 1272 01ce A562     		str	r5, [r4, #40]
 1273 01d0 E562     		str	r5, [r4, #44]
 1274 01d2 28E7     		b	.L133
 1275              	.L167:
 1276              		.loc 1 86 0
 1277 01d4 002E     		cmp	r6, #0
 1278 01d6 30D0     		beq	.L96
 1279 01d8 012E     		cmp	r6, #1
 1280 01da 7FF451AF 		bne	.L91
 1281              	.L97:
 1282              		.loc 1 151 0
 1283 01de 5449     		ldr	r1, .L172
 1284 01e0 0225     		movs	r5, #2
 1285 01e2 0022     		movs	r2, #0
 1286 01e4 6162     		str	r1, [r4, #36]
 1287 01e6 A562     		str	r5, [r4, #40]
 1288 01e8 E262     		str	r2, [r4, #44]
 1289 01ea 1CE7     		b	.L133
 1290              	.L104:
 1291              		.loc 1 126 0
 1292 01ec 6068     		ldr	r0, [r4, #4]
 1293              		.loc 1 128 0
 1294 01ee 94F83560 		ldrb	r6, [r4, #53]	@ zero_extendqisi2
 1295              		.loc 1 126 0
 1296 01f2 94F83430 		ldrb	r3, [r4, #52]	@ zero_extendqisi2
ARM GAS  /tmp/ccuondXl.s 			page 24


 1297 01f6 4568     		ldr	r5, [r0, #4]
 1298 01f8 94F83310 		ldrb	r1, [r4, #51]	@ zero_extendqisi2
 1299 01fc 94F83220 		ldrb	r2, [r4, #50]	@ zero_extendqisi2
 1300 0200 2046     		mov	r0, r4
 1301 0202 43EA0623 		orr	r3, r3, r6, lsl #8
 1302 0206 A847     		blx	r5
 1303              	.LVL140:
 1304              		.loc 1 129 0
 1305 0208 0028     		cmp	r0, #0
 1306 020a 3FF439AF 		beq	.L91
 1307              		.loc 1 131 0
 1308 020e 4168     		ldr	r1, [r0, #4]
 1309 0210 0568     		ldr	r5, [r0, #0]
 1310 0212 94F83030 		ldrb	r3, [r4, #48]	@ zero_extendqisi2
 1311 0216 6162     		str	r1, [r4, #36]
 1312 0218 A562     		str	r5, [r4, #40]
 1313 021a E762     		str	r7, [r4, #44]
 1314 021c 03E7     		b	.L133
 1315              	.LVL141:
 1316              	.L99:
 1317              		.loc 1 96 0
 1318 021e 94F83220 		ldrb	r2, [r4, #50]	@ zero_extendqisi2
 1319 0222 012A     		cmp	r2, #1
 1320 0224 7FF42CAF 		bne	.L91
 1321              		.loc 1 97 0
 1322 0228 208F     		ldrh	r0, [r4, #56]
 1323              		.loc 1 98 0
 1324 022a 6762     		str	r7, [r4, #36]
 1325              		.loc 1 97 0
 1326 022c 20F00201 		bic	r1, r0, #2
 1327 0230 2187     		strh	r1, [r4, #56]	@ movhi
 1328              		.loc 1 98 0
 1329 0232 A762     		str	r7, [r4, #40]
 1330 0234 E762     		str	r7, [r4, #44]
 1331 0236 3D46     		mov	r5, r7
 1332 0238 F5E6     		b	.L133
 1333              	.L96:
 1334              		.loc 1 91 0
 1335 023a 0225     		movs	r5, #2
 1336 023c 04F13800 		add	r0, r4, #56
 1337 0240 6062     		str	r0, [r4, #36]
 1338 0242 A562     		str	r5, [r4, #40]
 1339 0244 E662     		str	r6, [r4, #44]
 1340 0246 EEE6     		b	.L133
 1341              	.L106:
 1342              		.loc 1 139 0
 1343 0248 94F83250 		ldrb	r5, [r4, #50]	@ zero_extendqisi2
 1344 024c 84F83B50 		strb	r5, [r4, #59]
 1345              		.loc 1 140 0
 1346 0250 002D     		cmp	r5, #0
 1347 0252 42D1     		bne	.L115
 1348              		.loc 1 141 0
 1349 0254 0321     		movs	r1, #3
 1350 0256 2170     		strb	r1, [r4, #0]
 1351              	.L116:
 1352              		.loc 1 144 0
 1353 0258 6268     		ldr	r2, [r4, #4]
ARM GAS  /tmp/ccuondXl.s 			page 25


 1354 025a 1568     		ldr	r5, [r2, #0]
 1355 025c 002D     		cmp	r5, #0
 1356 025e B4D0     		beq	.L125
 1357 0260 2046     		mov	r0, r4
 1358 0262 0221     		movs	r1, #2
 1359 0264 A847     		blx	r5
 1360              	.LVL142:
 1361 0266 94F83030 		ldrb	r3, [r4, #48]	@ zero_extendqisi2
 1362 026a AEE7     		b	.L125
 1363              	.L98:
 1364              		.loc 1 155 0
 1365 026c 94F83430 		ldrb	r3, [r4, #52]	@ zero_extendqisi2
 1366 0270 13F0800F 		tst	r3, #128
 1367              		.loc 1 156 0
 1368 0274 2046     		mov	r0, r4
 1369 0276 03F00F01 		and	r1, r3, #15
 1370              		.loc 1 155 0
 1371 027a 31D1     		bne	.L170
 1372              	.LVL143:
 1373              		.loc 1 168 0
 1374 027c FFF7FEFF 		bl	usb_lld_get_status_out
 1375              	.LVL144:
 1376 0280 0128     		cmp	r0, #1
 1377 0282 31D0     		beq	.L121
 1378              	.L161:
 1379 0284 0228     		cmp	r0, #2
 1380 0286 7FF4FBAE 		bne	.L91
 1381              		.loc 1 173 0
 1382 028a 2A4D     		ldr	r5, .L172+4
 1383 028c A062     		str	r0, [r4, #40]
 1384 028e 6562     		str	r5, [r4, #36]
 1385 0290 E762     		str	r7, [r4, #44]
 1386 0292 94F83030 		ldrb	r3, [r4, #48]	@ zero_extendqisi2
 1387 0296 0546     		mov	r5, r0
 1388 0298 C5E6     		b	.L133
 1389              	.L102:
 1390              		.loc 1 194 0
 1391 029a 94F83210 		ldrb	r1, [r4, #50]	@ zero_extendqisi2
 1392 029e 0029     		cmp	r1, #0
 1393 02a0 7FF4EEAE 		bne	.L91
 1394              		.loc 1 197 0
 1395 02a4 94F83450 		ldrb	r5, [r4, #52]	@ zero_extendqisi2
 1396 02a8 15F00F01 		ands	r1, r5, #15
 1397 02ac 8DD0     		beq	.L125
 1398              		.loc 1 198 0
 1399 02ae 2B06     		lsls	r3, r5, #24
 1400              		.loc 1 199 0
 1401 02b0 2046     		mov	r0, r4
 1402              		.loc 1 198 0
 1403 02b2 38D4     		bmi	.L171
 1404              	.LVL145:
 1405              		.loc 1 201 0
 1406 02b4 FFF7FEFF 		bl	usb_lld_stall_out
 1407              	.LVL146:
 1408 02b8 94F83030 		ldrb	r3, [r4, #48]	@ zero_extendqisi2
 1409 02bc 85E7     		b	.L125
 1410              	.L101:
ARM GAS  /tmp/ccuondXl.s 			page 26


 1411              		.loc 1 105 0
 1412 02be 94F83220 		ldrb	r2, [r4, #50]	@ zero_extendqisi2
 1413 02c2 012A     		cmp	r2, #1
 1414 02c4 7FF4DCAE 		bne	.L91
 1415              		.loc 1 106 0
 1416 02c8 258F     		ldrh	r5, [r4, #56]
 1417              		.loc 1 107 0
 1418 02ca 6762     		str	r7, [r4, #36]
 1419              		.loc 1 106 0
 1420 02cc 45F00200 		orr	r0, r5, #2
 1421 02d0 2087     		strh	r0, [r4, #56]	@ movhi
 1422              		.loc 1 107 0
 1423 02d2 A762     		str	r7, [r4, #40]
 1424 02d4 E762     		str	r7, [r4, #44]
 1425 02d6 3D46     		mov	r5, r7
 1426 02d8 A5E6     		b	.L133
 1427              	.L115:
 1428              		.loc 1 143 0
 1429 02da 0420     		movs	r0, #4
 1430 02dc 2070     		strb	r0, [r4, #0]
 1431 02de BBE7     		b	.L116
 1432              	.LVL147:
 1433              	.L170:
 1434              		.loc 1 156 0
 1435 02e0 FFF7FEFF 		bl	usb_lld_get_status_in
 1436              	.LVL148:
 1437 02e4 0128     		cmp	r0, #1
 1438 02e6 CDD1     		bne	.L161
 1439              	.L121:
 1440              		.loc 1 170 0
 1441 02e8 134A     		ldr	r2, .L172+8
 1442 02ea A662     		str	r6, [r4, #40]
 1443 02ec 6262     		str	r2, [r4, #36]
 1444 02ee E762     		str	r7, [r4, #44]
 1445 02f0 94F83030 		ldrb	r3, [r4, #48]	@ zero_extendqisi2
 1446 02f4 3546     		mov	r5, r6
 1447 02f6 96E6     		b	.L133
 1448              	.L169:
 1449              	.LVL149:
 1450              	.LBB22:
 1451              	.LBB23:
 1452              		.loc 1 64 0
 1453 02f8 94F83230 		ldrb	r3, [r4, #50]	@ zero_extendqisi2
 1454              		.loc 1 65 0
 1455 02fc 2046     		mov	r0, r4
 1456              		.loc 1 64 0
 1457 02fe 84F83A30 		strb	r3, [r4, #58]
 1458              		.loc 1 65 0
 1459 0302 FFF7FEFF 		bl	usb_lld_set_address
 1460              	.LVL150:
 1461              		.loc 1 66 0
 1462 0306 6568     		ldr	r5, [r4, #4]
 1463 0308 2A68     		ldr	r2, [r5, #0]
 1464 030a 12B1     		cbz	r2, .L114
 1465 030c 2046     		mov	r0, r4
 1466 030e 0121     		movs	r1, #1
 1467 0310 9047     		blx	r2
ARM GAS  /tmp/ccuondXl.s 			page 27


 1468              	.LVL151:
 1469              	.L114:
 1470              		.loc 1 67 0
 1471 0312 0320     		movs	r0, #3
 1472 0314 94F83030 		ldrb	r3, [r4, #48]	@ zero_extendqisi2
 1473 0318 2070     		strb	r0, [r4, #0]
 1474 031a 56E7     		b	.L125
 1475              	.LVL152:
 1476              	.L168:
 1477              	.LBE23:
 1478              	.LBE22:
 1479              		.loc 1 186 0
 1480 031c FFF7FEFF 		bl	usb_lld_clear_in
 1481              	.LVL153:
 1482 0320 94F83030 		ldrb	r3, [r4, #48]	@ zero_extendqisi2
 1483 0324 51E7     		b	.L125
 1484              	.LVL154:
 1485              	.L171:
 1486              		.loc 1 199 0
 1487 0326 FFF7FEFF 		bl	usb_lld_stall_in
 1488              	.LVL155:
 1489 032a 94F83030 		ldrb	r3, [r4, #48]	@ zero_extendqisi2
 1490 032e 4CE7     		b	.L125
 1491              	.L173:
 1492              		.align	2
 1493              	.L172:
 1494 0330 00000000 		.word	.LANCHOR0
 1495 0334 00000000 		.word	.LANCHOR2
 1496 0338 00000000 		.word	.LANCHOR1
 1497              	.LBE24:
 1498              	.LBE31:
 1499              		.cfi_endproc
 1500              	.LFE135:
 1501              		.size	_usb_ep0setup, .-_usb_ep0setup
 1502 033c AFF30080 		.section	.text._usb_ep0in,"ax",%progbits
 1503              		.align	2
 1504              		.p2align 4,,15
 1505              		.global	_usb_ep0in
 1506              		.thumb
 1507              		.thumb_func
 1508              		.type	_usb_ep0in, %function
 1509              	_usb_ep0in:
 1510              	.LFB136:
 1511              		.loc 1 685 0
 1512              		.cfi_startproc
 1513              		@ args = 0, pretend = 0, frame = 0
 1514              		@ frame_needed = 0, uses_anonymous_args = 0
 1515              	.LVL156:
 1516 0000 38B5     		push	{r3, r4, r5, lr}
 1517              	.LCFI14:
 1518              		.cfi_def_cfa_offset 16
 1519              		.cfi_offset 3, -16
 1520              		.cfi_offset 4, -12
 1521              		.cfi_offset 5, -8
 1522              		.cfi_offset 14, -4
 1523              		.loc 1 689 0
 1524 0002 90F82030 		ldrb	r3, [r0, #32]	@ zero_extendqisi2
ARM GAS  /tmp/ccuondXl.s 			page 28


 1525 0006 012B     		cmp	r3, #1
 1526              		.loc 1 685 0
 1527 0008 0446     		mov	r4, r0
 1528              		.loc 1 689 0
 1529 000a 19D0     		beq	.L176
 1530 000c 042B     		cmp	r3, #4
 1531 000e 10D0     		beq	.L189
 1532              		.loc 1 723 0
 1533 0010 0021     		movs	r1, #0
 1534              	.LVL157:
 1535 0012 FFF7FEFF 		bl	usb_lld_stall_in
 1536              	.LVL158:
 1537              		.loc 1 724 0
 1538 0016 2046     		mov	r0, r4
 1539 0018 0021     		movs	r1, #0
 1540 001a FFF7FEFF 		bl	usb_lld_stall_out
 1541              	.LVL159:
 1542              		.loc 1 725 0
 1543 001e 6068     		ldr	r0, [r4, #4]
 1544 0020 0268     		ldr	r2, [r0, #0]
 1545 0022 12B1     		cbz	r2, .L181
 1546              		.loc 1 725 0 is_stmt 0 discriminator 1
 1547 0024 2046     		mov	r0, r4
 1548 0026 0521     		movs	r1, #5
 1549 0028 9047     		blx	r2
 1550              	.LVL160:
 1551              	.L181:
 1552              		.loc 1 726 0 is_stmt 1
 1553 002a 0521     		movs	r1, #5
 1554 002c 84F82010 		strb	r1, [r4, #32]
 1555 0030 38BD     		pop	{r3, r4, r5, pc}
 1556              	.LVL161:
 1557              	.L189:
 1558              		.loc 1 713 0
 1559 0032 C36A     		ldr	r3, [r0, #44]
 1560 0034 03B1     		cbz	r3, .L180
 1561              		.loc 1 714 0
 1562 0036 9847     		blx	r3
 1563              	.LVL162:
 1564              	.L180:
 1565              		.loc 1 715 0
 1566 0038 0020     		movs	r0, #0
 1567 003a 84F82000 		strb	r0, [r4, #32]
 1568              		.loc 1 716 0
 1569 003e 38BD     		pop	{r3, r4, r5, pc}
 1570              	.LVL163:
 1571              	.L176:
 1572              		.loc 1 691 0
 1573 0040 90F83720 		ldrb	r2, [r0, #55]	@ zero_extendqisi2
 1574 0044 90F83610 		ldrb	r1, [r0, #54]	@ zero_extendqisi2
 1575              	.LVL164:
 1576              		.loc 1 695 0
 1577 0048 856A     		ldr	r5, [r0, #40]
 1578              		.loc 1 691 0
 1579 004a 41EA0223 		orr	r3, r1, r2, lsl #8
 1580              	.LVL165:
 1581              		.loc 1 695 0
ARM GAS  /tmp/ccuondXl.s 			page 29


 1582 004e AB42     		cmp	r3, r5
 1583 0050 06D9     		bls	.L178
 1584              		.loc 1 696 0 discriminator 1
 1585 0052 0269     		ldr	r2, [r0, #16]
 1586 0054 118A     		ldrh	r1, [r2, #16]
 1587 0056 B5FBF1F3 		udiv	r3, r5, r1
 1588              	.LVL166:
 1589 005a 01FB1355 		mls	r5, r1, r3, r5
 1590              		.loc 1 695 0 discriminator 1
 1591 005e BDB1     		cbz	r5, .L190
 1592              	.L178:
 1593              		.loc 1 706 0
 1594 0060 0021     		movs	r1, #0
 1595              		.loc 1 705 0
 1596 0062 0220     		movs	r0, #2
 1597              	.LVL167:
 1598              		.loc 1 706 0
 1599 0064 0B46     		mov	r3, r1
 1600              		.loc 1 705 0
 1601 0066 84F82000 		strb	r0, [r4, #32]
 1602              		.loc 1 706 0
 1603 006a 0A46     		mov	r2, r1
 1604 006c 2046     		mov	r0, r4
 1605 006e FFF7FEFF 		bl	usbPrepareReceive
 1606              	.LVL168:
 1607              	.LBB32:
 1608              		.loc 1 707 0
 1609 0072 2023     		movs	r3, #32
 1610              	.LVL169:
 1611              	@ 707 "/home/gokul/ChibiOS_2.5.0/os/hal/src/usb.c" 1
 1612 0074 83F31188 		msr     BASEPRI, r3
 1613              	@ 0 "" 2
 1614              	.LVL170:
 1615              		.thumb
 1616              	.LBE32:
 1617 0078 FFF7FEFF 		bl	dbg_check_lock_from_isr
 1618              	.LVL171:
 1619              		.loc 1 708 0
 1620 007c 0021     		movs	r1, #0
 1621 007e 2046     		mov	r0, r4
 1622 0080 FFF7FEFF 		bl	usbStartReceiveI
 1623              	.LVL172:
 1624              		.loc 1 709 0
 1625 0084 FFF7FEFF 		bl	dbg_check_unlock_from_isr
 1626              	.LVL173:
 1627              	.LBB33:
 1628 0088 0023     		movs	r3, #0
 1629              	.LVL174:
 1630              	@ 709 "/home/gokul/ChibiOS_2.5.0/os/hal/src/usb.c" 1
 1631 008a 83F31188 		msr     BASEPRI, r3
 1632              	@ 0 "" 2
 1633              	.LVL175:
 1634              		.thumb
 1635              	.LBE33:
 1636              		.loc 1 710 0
 1637 008e 38BD     		pop	{r3, r4, r5, pc}
 1638              	.LVL176:
ARM GAS  /tmp/ccuondXl.s 			page 30


 1639              	.L190:
 1640              		.loc 1 697 0
 1641 0090 2B46     		mov	r3, r5
 1642 0092 2946     		mov	r1, r5
 1643 0094 2A46     		mov	r2, r5
 1644 0096 FFF7FEFF 		bl	usbPrepareTransmit
 1645              	.LVL177:
 1646              	.LBB34:
 1647              		.loc 1 698 0
 1648 009a 2023     		movs	r3, #32
 1649              	.LVL178:
 1650              	@ 698 "/home/gokul/ChibiOS_2.5.0/os/hal/src/usb.c" 1
 1651 009c 83F31188 		msr     BASEPRI, r3
 1652              	@ 0 "" 2
 1653              	.LVL179:
 1654              		.thumb
 1655              	.LBE34:
 1656 00a0 FFF7FEFF 		bl	dbg_check_lock_from_isr
 1657              	.LVL180:
 1658              		.loc 1 699 0
 1659 00a4 2946     		mov	r1, r5
 1660 00a6 2046     		mov	r0, r4
 1661 00a8 FFF7FEFF 		bl	usbStartTransmitI
 1662              	.LVL181:
 1663              		.loc 1 700 0
 1664 00ac FFF7FEFF 		bl	dbg_check_unlock_from_isr
 1665              	.LVL182:
 1666              	.LBB35:
 1667 00b0 2B46     		mov	r3, r5
 1668              	.LVL183:
 1669              	@ 700 "/home/gokul/ChibiOS_2.5.0/os/hal/src/usb.c" 1
 1670 00b2 83F31188 		msr     BASEPRI, r3
 1671              	@ 0 "" 2
 1672              	.LVL184:
 1673              		.thumb
 1674              	.LBE35:
 1675              		.loc 1 701 0
 1676 00b6 38BD     		pop	{r3, r4, r5, pc}
 1677              		.cfi_endproc
 1678              	.LFE136:
 1679              		.size	_usb_ep0in, .-_usb_ep0in
 1680 00b8 AFF30080 		.section	.text._usb_ep0out,"ax",%progbits
 1680      AFF30080 
 1681              		.align	2
 1682              		.p2align 4,,15
 1683              		.global	_usb_ep0out
 1684              		.thumb
 1685              		.thumb_func
 1686              		.type	_usb_ep0out, %function
 1687              	_usb_ep0out:
 1688              	.LFB137:
 1689              		.loc 1 739 0
 1690              		.cfi_startproc
 1691              		@ args = 0, pretend = 0, frame = 0
 1692              		@ frame_needed = 0, uses_anonymous_args = 0
 1693              	.LVL185:
 1694              		.loc 1 742 0
ARM GAS  /tmp/ccuondXl.s 			page 31


 1695 0000 90F82030 		ldrb	r3, [r0, #32]	@ zero_extendqisi2
 1696 0004 022B     		cmp	r3, #2
 1697              		.loc 1 739 0
 1698 0006 10B5     		push	{r4, lr}
 1699              	.LCFI15:
 1700              		.cfi_def_cfa_offset 8
 1701              		.cfi_offset 4, -8
 1702              		.cfi_offset 14, -4
 1703              		.loc 1 739 0
 1704 0008 0446     		mov	r4, r0
 1705              		.loc 1 742 0
 1706 000a 2AD0     		beq	.L193
 1707 000c 032B     		cmp	r3, #3
 1708 000e 11D0     		beq	.L204
 1709              	.LVL186:
 1710              	.L192:
 1711              		.loc 1 766 0
 1712 0010 0021     		movs	r1, #0
 1713 0012 2046     		mov	r0, r4
 1714              	.LVL187:
 1715 0014 FFF7FEFF 		bl	usb_lld_stall_in
 1716              	.LVL188:
 1717              		.loc 1 767 0
 1718 0018 2046     		mov	r0, r4
 1719 001a 0021     		movs	r1, #0
 1720 001c FFF7FEFF 		bl	usb_lld_stall_out
 1721              	.LVL189:
 1722              		.loc 1 768 0
 1723 0020 6368     		ldr	r3, [r4, #4]
 1724 0022 1A68     		ldr	r2, [r3, #0]
 1725 0024 12B1     		cbz	r2, .L197
 1726              		.loc 1 768 0 is_stmt 0 discriminator 1
 1727 0026 2046     		mov	r0, r4
 1728 0028 0521     		movs	r1, #5
 1729 002a 9047     		blx	r2
 1730              	.LVL190:
 1731              	.L197:
 1732              		.loc 1 769 0 is_stmt 1
 1733 002c 0521     		movs	r1, #5
 1734 002e 84F82010 		strb	r1, [r4, #32]
 1735 0032 10BD     		pop	{r4, pc}
 1736              	.LVL191:
 1737              	.L204:
 1738              		.loc 1 746 0
 1739 0034 0021     		movs	r1, #0
 1740              	.LVL192:
 1741              		.loc 1 745 0
 1742 0036 0422     		movs	r2, #4
 1743              		.loc 1 746 0
 1744 0038 0B46     		mov	r3, r1
 1745              		.loc 1 745 0
 1746 003a 80F82020 		strb	r2, [r0, #32]
 1747              		.loc 1 746 0
 1748 003e 0A46     		mov	r2, r1
 1749 0040 FFF7FEFF 		bl	usbPrepareTransmit
 1750              	.LVL193:
 1751              	.LBB36:
ARM GAS  /tmp/ccuondXl.s 			page 32


 1752              		.loc 1 747 0
 1753 0044 2023     		movs	r3, #32
 1754              	.LVL194:
 1755              	@ 747 "/home/gokul/ChibiOS_2.5.0/os/hal/src/usb.c" 1
 1756 0046 83F31188 		msr     BASEPRI, r3
 1757              	@ 0 "" 2
 1758              	.LVL195:
 1759              		.thumb
 1760              	.LBE36:
 1761 004a FFF7FEFF 		bl	dbg_check_lock_from_isr
 1762              	.LVL196:
 1763              		.loc 1 748 0
 1764 004e 0021     		movs	r1, #0
 1765 0050 2046     		mov	r0, r4
 1766 0052 FFF7FEFF 		bl	usbStartTransmitI
 1767              	.LVL197:
 1768              		.loc 1 749 0
 1769 0056 FFF7FEFF 		bl	dbg_check_unlock_from_isr
 1770              	.LVL198:
 1771              	.LBB37:
 1772 005a 0023     		movs	r3, #0
 1773              	.LVL199:
 1774              	@ 749 "/home/gokul/ChibiOS_2.5.0/os/hal/src/usb.c" 1
 1775 005c 83F31188 		msr     BASEPRI, r3
 1776              	@ 0 "" 2
 1777              	.LVL200:
 1778              		.thumb
 1779              	.LBE37:
 1780              		.loc 1 750 0
 1781 0060 10BD     		pop	{r4, pc}
 1782              	.LVL201:
 1783              	.L193:
 1784              		.loc 1 754 0
 1785 0062 0169     		ldr	r1, [r0, #16]
 1786              	.LVL202:
 1787 0064 8B69     		ldr	r3, [r1, #24]
 1788 0066 9A68     		ldr	r2, [r3, #8]
 1789 0068 002A     		cmp	r2, #0
 1790 006a D1D1     		bne	.L192
 1791              		.loc 1 756 0
 1792 006c C16A     		ldr	r1, [r0, #44]
 1793 006e 01B1     		cbz	r1, .L196
 1794              		.loc 1 757 0
 1795 0070 8847     		blx	r1
 1796              	.LVL203:
 1797              	.L196:
 1798              		.loc 1 758 0
 1799 0072 0020     		movs	r0, #0
 1800 0074 84F82000 		strb	r0, [r4, #32]
 1801              		.loc 1 759 0
 1802 0078 10BD     		pop	{r4, pc}
 1803              		.cfi_endproc
 1804              	.LFE137:
 1805              		.size	_usb_ep0out, .-_usb_ep0out
 1806 007a 00BFAFF3 		.section	.rodata.zero_status,"a",%progbits
 1806      0080
 1807              		.align	2
ARM GAS  /tmp/ccuondXl.s 			page 33


 1808              		.set	.LANCHOR0,. + 0
 1809              		.type	zero_status, %object
 1810              		.size	zero_status, 2
 1811              	zero_status:
 1812 0000 0000     		.space	2
 1813 0002 0000     		.section	.rodata.active_status,"a",%progbits
 1814              		.align	2
 1815              		.set	.LANCHOR2,. + 0
 1816              		.type	active_status, %object
 1817              		.size	active_status, 2
 1818              	active_status:
 1819 0000 0000     		.space	2
 1820 0002 0000     		.section	.rodata.str1.4,"aMS",%progbits,1
 1821              		.align	2
 1822              	.LC0:
 1823 0000 22757362 		.ascii	"\"usbStart\"()\000"
 1823      53746172 
 1823      74222829 
 1823      00
 1824 000d 000000   		.space	3
 1825              	.LC1:
 1826 0010 75736253 		.ascii	"usbStart(), #1\000"
 1826      74617274 
 1826      28292C20 
 1826      233100
 1827 001f 00       		.space	1
 1828              	.LC2:
 1829 0020 22757362 		.ascii	"\"usbStop\"()\000"
 1829      53746F70 
 1829      22282900 
 1830              	.LC3:
 1831 002c 75736253 		.ascii	"usbStop(), #1\000"
 1831      746F7028 
 1831      292C2023 
 1831      3100
 1832 003a 0000     		.space	2
 1833              	.LC4:
 1834 003c 22757362 		.ascii	"\"usbInitEndpointI\"()\000"
 1834      496E6974 
 1834      456E6470 
 1834      6F696E74 
 1834      49222829 
 1835 0051 000000   		.space	3
 1836              	.LC5:
 1837 0054 75736245 		.ascii	"usbEnableEndpointI(), #1\000"
 1837      6E61626C 
 1837      65456E64 
 1837      706F696E 
 1837      74492829 
 1838 006d 000000   		.space	3
 1839              	.LC6:
 1840 0070 75736245 		.ascii	"usbEnableEndpointI(), #2\000"
 1840      6E61626C 
 1840      65456E64 
 1840      706F696E 
 1840      74492829 
 1841 0089 000000   		.space	3
ARM GAS  /tmp/ccuondXl.s 			page 34


 1842              	.LC7:
 1843 008c 22757362 		.ascii	"\"usbDisableEndpointsI\"()\000"
 1843      44697361 
 1843      626C6545 
 1843      6E64706F 
 1843      696E7473 
 1844 00a5 000000   		.space	3
 1845              	.LC8:
 1846 00a8 75736244 		.ascii	"usbDisableEndpointsI(), #1\000"
 1846      69736162 
 1846      6C65456E 
 1846      64706F69 
 1846      6E747349 
 1847 00c3 00       		.space	1
 1848              	.LC9:
 1849 00c4 22757362 		.ascii	"\"usbStartReceiveI\"()\000"
 1849      53746172 
 1849      74526563 
 1849      65697665 
 1849      49222829 
 1850 00d9 000000   		.space	3
 1851              	.LC10:
 1852 00dc 22757362 		.ascii	"\"usbStartTransmitI\"()\000"
 1852      53746172 
 1852      74547261 
 1852      6E736D69 
 1852      74492228 
 1853 00f2 0000     		.space	2
 1854              	.LC11:
 1855 00f4 22757362 		.ascii	"\"usbStallReceiveI\"()\000"
 1855      5374616C 
 1855      6C526563 
 1855      65697665 
 1855      49222829 
 1856 0109 000000   		.space	3
 1857              	.LC12:
 1858 010c 22757362 		.ascii	"\"usbStallTransmitI\"()\000"
 1858      5374616C 
 1858      6C547261 
 1858      6E736D69 
 1858      74492228 
 1859 0122 0000     		.section	.rodata.halted_status,"a",%progbits
 1860              		.align	2
 1861              		.set	.LANCHOR1,. + 0
 1862              		.type	halted_status, %object
 1863              		.size	halted_status, 2
 1864              	halted_status:
 1865 0000 01       		.byte	1
 1866 0001 00       		.byte	0
 1867 0002 0000     		.text
 1868              	.Letext0:
 1869              		.file 2 "/opt/gcc-arm-none-eabi-4_7-2013q1/bin/../lib/gcc/arm-none-eabi/4.7.3/include/stddef.h"
 1870              		.file 3 "/opt/gcc-arm-none-eabi-4_7-2013q1/bin/../lib/gcc/arm-none-eabi/4.7.3/../../../../arm-none
 1871              		.file 4 "/home/gokul/ChibiOS_2.5.0/os/ports/GCC/ARMCMx/chtypes.h"
 1872              		.file 5 "/home/gokul/ChibiOS_2.5.0/os/kernel/include/chlists.h"
 1873              		.file 6 "/home/gokul/ChibiOS_2.5.0/os/kernel/include/chthreads.h"
 1874              		.file 7 "/home/gokul/ChibiOS_2.5.0/os/ports/GCC/ARMCMx/chcore_v7m.h"
ARM GAS  /tmp/ccuondXl.s 			page 35


 1875              		.file 8 "/home/gokul/ChibiOS_2.5.0/os/kernel/include/chmtx.h"
 1876              		.file 9 "/home/gokul/ChibiOS_2.5.0/os/kernel/include/chqueues.h"
 1877              		.file 10 "/home/gokul/ChibiOS_2.5.0/os/hal/include/usb.h"
 1878              		.file 11 "/home/gokul/ChibiOS_2.5.0/os/hal/platforms/STM32/OTGv1/usb_lld.h"
 1879              		.file 12 "/home/gokul/ChibiOS_2.5.0/os/hal/platforms/STM32/OTGv1/stm32_otg.h"
 1880              		.file 13 "/home/gokul/ChibiOS_2.5.0/os/kernel/include/chdebug.h"
 1881              		.file 14 "/home/gokul/ChibiOS_2.5.0/os/ports/common/ARMCMx/CMSIS/include/core_cm4.h"