ARM GAS  /tmp/cc2OoWGB.s 			page 1


   1              		.syntax unified
   2              		.cpu cortex-m4
   3              		.fpu softvfp
   4              		.eabi_attribute 20, 1
   5              		.eabi_attribute 21, 1
   6              		.eabi_attribute 23, 3
   7              		.eabi_attribute 24, 1
   8              		.eabi_attribute 25, 1
   9              		.eabi_attribute 26, 1
  10              		.eabi_attribute 30, 2
  11              		.eabi_attribute 34, 1
  12              		.eabi_attribute 18, 4
  13              		.thumb
  14              		.file	"adc.c"
  15              		.text
  16              	.Ltext0:
  17              		.cfi_sections	.debug_frame
  18              		.section	.text.adcInit,"ax",%progbits
  19              		.align	2
  20              		.p2align 4,,15
  21              		.global	adcInit
  22              		.thumb
  23              		.thumb_func
  24              		.type	adcInit, %function
  25              	adcInit:
  26              	.LFB118:
  27              		.file 1 "/home/gokul/ChibiOS_2.5.0/os/hal/src/adc.c"
  28              		.loc 1 61 0
  29              		.cfi_startproc
  30              		@ args = 0, pretend = 0, frame = 0
  31              		@ frame_needed = 0, uses_anonymous_args = 0
  32              		@ link register save eliminated.
  33              		.loc 1 64 0
  34              		.loc 1 63 0
  35 0000 FFF7FEBF 		b	adc_lld_init
  36              	.LVL0:
  37              		.cfi_endproc
  38              	.LFE118:
  39              		.size	adcInit, .-adcInit
  40 0004 AFF30080 		.section	.text.adcObjectInit,"ax",%progbits
  40      AFF30080 
  40      AFF30080 
  41              		.align	2
  42              		.p2align 4,,15
  43              		.global	adcObjectInit
  44              		.thumb
  45              		.thumb_func
  46              		.type	adcObjectInit, %function
  47              	adcObjectInit:
  48              	.LFB119:
  49              		.loc 1 73 0
  50              		.cfi_startproc
  51              		@ args = 0, pretend = 0, frame = 0
  52              		@ frame_needed = 0, uses_anonymous_args = 0
  53              		@ link register save eliminated.
  54              	.LVL1:
  55              		.loc 1 76 0
ARM GAS  /tmp/cc2OoWGB.s 			page 2


  56 0000 0023     		movs	r3, #0
  57              		.loc 1 75 0
  58 0002 0122     		movs	r2, #1
  59 0004 0270     		strb	r2, [r0, #0]
  60              		.loc 1 76 0
  61 0006 4360     		str	r3, [r0, #4]
  62              		.loc 1 77 0
  63 0008 8360     		str	r3, [r0, #8]
  64              		.loc 1 78 0
  65 000a C360     		str	r3, [r0, #12]
  66              		.loc 1 79 0
  67 000c 0361     		str	r3, [r0, #16]
  68              		.loc 1 81 0
  69 000e 4361     		str	r3, [r0, #20]
  70              		.loc 1 85 0
  71 0010 1830     		adds	r0, r0, #24
  72              	.LVL2:
  73              		.loc 1 93 0
  74              		.loc 1 85 0
  75 0012 FFF7FEBF 		b	chMtxInit
  76              	.LVL3:
  77              		.cfi_endproc
  78              	.LFE119:
  79              		.size	adcObjectInit, .-adcObjectInit
  80 0016 00BFAFF3 		.section	.text.adcStart,"ax",%progbits
  80      0080AFF3 
  80      0080
  81              		.align	2
  82              		.p2align 4,,15
  83              		.global	adcStart
  84              		.thumb
  85              		.thumb_func
  86              		.type	adcStart, %function
  87              	adcStart:
  88              	.LFB120:
  89              		.loc 1 104 0
  90              		.cfi_startproc
  91              		@ args = 0, pretend = 0, frame = 0
  92              		@ frame_needed = 0, uses_anonymous_args = 0
  93              	.LVL4:
  94 0000 38B5     		push	{r3, r4, r5, lr}
  95              	.LCFI0:
  96              		.cfi_def_cfa_offset 16
  97              		.cfi_offset 3, -16
  98              		.cfi_offset 4, -12
  99              		.cfi_offset 5, -8
 100              		.cfi_offset 14, -4
 101              		.loc 1 106 0
 102 0002 0446     		mov	r4, r0
 103              		.loc 1 104 0
 104 0004 0D46     		mov	r5, r1
 105              		.loc 1 106 0
 106 0006 B8B1     		cbz	r0, .L7
 107              	.LVL5:
 108              	.L4:
 109              	.LBB2:
 110              		.loc 1 108 0
ARM GAS  /tmp/cc2OoWGB.s 			page 3


 111 0008 2023     		movs	r3, #32
 112              	.LVL6:
 113              	@ 108 "/home/gokul/ChibiOS_2.5.0/os/hal/src/adc.c" 1
 114 000a 83F31188 		msr     BASEPRI, r3
 115              	@ 0 "" 2
 116              	.LVL7:
 117              		.thumb
 118              	.LBE2:
 119 000e FFF7FEFF 		bl	dbg_check_lock
 120              	.LVL8:
 121              		.loc 1 109 0
 122 0012 2378     		ldrb	r3, [r4, #0]	@ zero_extendqisi2
 123 0014 581E     		subs	r0, r3, #1
 124 0016 0128     		cmp	r0, #1
 125 0018 02D9     		bls	.L5
 126              		.loc 1 109 0 is_stmt 0 discriminator 1
 127 001a 0948     		ldr	r0, .L8
 128 001c FFF7FEFF 		bl	chDbgPanic
 129              	.LVL9:
 130              	.L5:
 131              		.loc 1 112 0 is_stmt 1
 132 0020 2046     		mov	r0, r4
 133              		.loc 1 111 0
 134 0022 6560     		str	r5, [r4, #4]
 135              		.loc 1 112 0
 136 0024 FFF7FEFF 		bl	adc_lld_start
 137              	.LVL10:
 138              		.loc 1 113 0
 139 0028 0221     		movs	r1, #2
 140 002a 2170     		strb	r1, [r4, #0]
 141              		.loc 1 114 0
 142 002c FFF7FEFF 		bl	dbg_check_unlock
 143              	.LVL11:
 144              	.LBB3:
 145 0030 0023     		movs	r3, #0
 146              	.LVL12:
 147              	@ 114 "/home/gokul/ChibiOS_2.5.0/os/hal/src/adc.c" 1
 148 0032 83F31188 		msr     BASEPRI, r3
 149              	@ 0 "" 2
 150              	.LVL13:
 151              		.thumb
 152 0036 38BD     		pop	{r3, r4, r5, pc}
 153              	.LVL14:
 154              	.L7:
 155              	.LBE3:
 156              		.loc 1 106 0 discriminator 1
 157 0038 0248     		ldr	r0, .L8+4
 158              	.LVL15:
 159 003a FFF7FEFF 		bl	chDbgPanic
 160              	.LVL16:
 161 003e E3E7     		b	.L4
 162              	.L9:
 163              		.align	2
 164              	.L8:
 165 0040 10000000 		.word	.LC1
 166 0044 00000000 		.word	.LC0
 167              		.cfi_endproc
ARM GAS  /tmp/cc2OoWGB.s 			page 4


 168              	.LFE120:
 169              		.size	adcStart, .-adcStart
 170 0048 AFF30080 		.section	.text.adcStop,"ax",%progbits
 170      AFF30080 
 171              		.align	2
 172              		.p2align 4,,15
 173              		.global	adcStop
 174              		.thumb
 175              		.thumb_func
 176              		.type	adcStop, %function
 177              	adcStop:
 178              	.LFB121:
 179              		.loc 1 124 0
 180              		.cfi_startproc
 181              		@ args = 0, pretend = 0, frame = 0
 182              		@ frame_needed = 0, uses_anonymous_args = 0
 183              	.LVL17:
 184 0000 10B5     		push	{r4, lr}
 185              	.LCFI1:
 186              		.cfi_def_cfa_offset 8
 187              		.cfi_offset 4, -8
 188              		.cfi_offset 14, -4
 189              		.loc 1 126 0
 190 0002 0446     		mov	r4, r0
 191 0004 B0B1     		cbz	r0, .L13
 192              	.LVL18:
 193              	.L11:
 194              	.LBB4:
 195              		.loc 1 128 0
 196 0006 2023     		movs	r3, #32
 197              	.LVL19:
 198              	@ 128 "/home/gokul/ChibiOS_2.5.0/os/hal/src/adc.c" 1
 199 0008 83F31188 		msr     BASEPRI, r3
 200              	@ 0 "" 2
 201              	.LVL20:
 202              		.thumb
 203              	.LBE4:
 204 000c FFF7FEFF 		bl	dbg_check_lock
 205              	.LVL21:
 206              		.loc 1 129 0
 207 0010 2378     		ldrb	r3, [r4, #0]	@ zero_extendqisi2
 208 0012 581E     		subs	r0, r3, #1
 209 0014 0128     		cmp	r0, #1
 210 0016 02D9     		bls	.L12
 211              		.loc 1 129 0 is_stmt 0 discriminator 1
 212 0018 0848     		ldr	r0, .L14
 213 001a FFF7FEFF 		bl	chDbgPanic
 214              	.LVL22:
 215              	.L12:
 216              		.loc 1 131 0 is_stmt 1
 217 001e 2046     		mov	r0, r4
 218 0020 FFF7FEFF 		bl	adc_lld_stop
 219              	.LVL23:
 220              		.loc 1 132 0
 221 0024 0121     		movs	r1, #1
 222 0026 2170     		strb	r1, [r4, #0]
 223              		.loc 1 133 0
ARM GAS  /tmp/cc2OoWGB.s 			page 5


 224 0028 FFF7FEFF 		bl	dbg_check_unlock
 225              	.LVL24:
 226              	.LBB5:
 227 002c 0023     		movs	r3, #0
 228              	.LVL25:
 229              	@ 133 "/home/gokul/ChibiOS_2.5.0/os/hal/src/adc.c" 1
 230 002e 83F31188 		msr     BASEPRI, r3
 231              	@ 0 "" 2
 232              	.LVL26:
 233              		.thumb
 234 0032 10BD     		pop	{r4, pc}
 235              	.LVL27:
 236              	.L13:
 237              	.LBE5:
 238              		.loc 1 126 0 discriminator 1
 239 0034 0248     		ldr	r0, .L14+4
 240              	.LVL28:
 241 0036 FFF7FEFF 		bl	chDbgPanic
 242              	.LVL29:
 243 003a E4E7     		b	.L11
 244              	.L15:
 245              		.align	2
 246              	.L14:
 247 003c 2C000000 		.word	.LC3
 248 0040 20000000 		.word	.LC2
 249              		.cfi_endproc
 250              	.LFE121:
 251              		.size	adcStop, .-adcStop
 252 0044 AFF30080 		.section	.text.adcStartConversionI,"ax",%progbits
 252      AFF30080 
 252      AFF30080 
 253              		.align	2
 254              		.p2align 4,,15
 255              		.global	adcStartConversionI
 256              		.thumb
 257              		.thumb_func
 258              		.type	adcStartConversionI, %function
 259              	adcStartConversionI:
 260              	.LFB123:
 261              		.loc 1 183 0
 262              		.cfi_startproc
 263              		@ args = 0, pretend = 0, frame = 0
 264              		@ frame_needed = 0, uses_anonymous_args = 0
 265              	.LVL30:
 266 0000 F8B5     		push	{r3, r4, r5, r6, r7, lr}
 267              	.LCFI2:
 268              		.cfi_def_cfa_offset 24
 269              		.cfi_offset 3, -24
 270              		.cfi_offset 4, -20
 271              		.cfi_offset 5, -16
 272              		.cfi_offset 6, -12
 273              		.cfi_offset 7, -8
 274              		.cfi_offset 14, -4
 275              		.loc 1 183 0
 276 0002 0446     		mov	r4, r0
 277 0004 0E46     		mov	r6, r1
 278 0006 1746     		mov	r7, r2
ARM GAS  /tmp/cc2OoWGB.s 			page 6


 279 0008 1D46     		mov	r5, r3
 280              		.loc 1 185 0
 281 000a FFF7FEFF 		bl	chDbgCheckClassI
 282              	.LVL31:
 283              		.loc 1 186 0
 284 000e CCB1     		cbz	r4, .L17
 285              		.loc 1 186 0 is_stmt 0 discriminator 2
 286 0010 C6B1     		cbz	r6, .L17
 287              		.loc 1 186 0 discriminator 3
 288 0012 BFB1     		cbz	r7, .L17
 289              		.loc 1 186 0 discriminator 4
 290 0014 012D     		cmp	r5, #1
 291 0016 01D0     		beq	.L18
 292              		.loc 1 186 0 discriminator 5
 293 0018 EB07     		lsls	r3, r5, #31
 294 001a 13D4     		bmi	.L17
 295              	.L18:
 296              		.loc 1 189 0 is_stmt 1
 297 001c 2078     		ldrb	r0, [r4, #0]	@ zero_extendqisi2
 298 001e 0228     		cmp	r0, #2
 299 0020 06D0     		beq	.L19
 300              		.loc 1 189 0 is_stmt 0 discriminator 1
 301 0022 0428     		cmp	r0, #4
 302 0024 04D0     		beq	.L19
 303              		.loc 1 189 0 discriminator 2
 304 0026 0528     		cmp	r0, #5
 305 0028 02D0     		beq	.L19
 306              		.loc 1 189 0 discriminator 3
 307 002a 0848     		ldr	r0, .L44
 308 002c FFF7FEFF 		bl	chDbgPanic
 309              	.LVL32:
 310              	.L19:
 311              		.loc 1 197 0 is_stmt 1
 312 0030 0323     		movs	r3, #3
 313              		.loc 1 198 0
 314 0032 2046     		mov	r0, r4
 315              		.loc 1 194 0
 316 0034 A760     		str	r7, [r4, #8]
 317              		.loc 1 195 0
 318 0036 E560     		str	r5, [r4, #12]
 319              		.loc 1 196 0
 320 0038 2661     		str	r6, [r4, #16]
 321              		.loc 1 197 0
 322 003a 2370     		strb	r3, [r4, #0]
 323              		.loc 1 199 0
 324 003c BDE8F840 		pop	{r3, r4, r5, r6, r7, lr}
 325              		.loc 1 198 0
 326 0040 FFF7FEBF 		b	adc_lld_start_conversion
 327              	.LVL33:
 328              	.L17:
 329              		.loc 1 186 0 discriminator 1
 330 0044 0248     		ldr	r0, .L44+4
 331 0046 FFF7FEFF 		bl	chDbgPanic
 332              	.LVL34:
 333 004a E7E7     		b	.L18
 334              	.L45:
 335              		.align	2
ARM GAS  /tmp/cc2OoWGB.s 			page 7


 336              	.L44:
 337 004c 54000000 		.word	.LC5
 338 0050 3C000000 		.word	.LC4
 339              		.cfi_endproc
 340              	.LFE123:
 341              		.size	adcStartConversionI, .-adcStartConversionI
 342 0054 AFF30080 		.section	.text.adcStartConversion,"ax",%progbits
 342      AFF30080 
 342      AFF30080 
 343              		.align	2
 344              		.p2align 4,,15
 345              		.global	adcStartConversion
 346              		.thumb
 347              		.thumb_func
 348              		.type	adcStartConversion, %function
 349              	adcStartConversion:
 350              	.LFB122:
 351              		.loc 1 155 0
 352              		.cfi_startproc
 353              		@ args = 0, pretend = 0, frame = 0
 354              		@ frame_needed = 0, uses_anonymous_args = 0
 355              	.LVL35:
 356 0000 F8B5     		push	{r3, r4, r5, r6, r7, lr}
 357              	.LCFI3:
 358              		.cfi_def_cfa_offset 24
 359              		.cfi_offset 3, -24
 360              		.cfi_offset 4, -20
 361              		.cfi_offset 5, -16
 362              		.cfi_offset 6, -12
 363              		.cfi_offset 7, -8
 364              		.cfi_offset 14, -4
 365              		.loc 1 155 0
 366 0002 1C46     		mov	r4, r3
 367 0004 0746     		mov	r7, r0
 368 0006 0E46     		mov	r6, r1
 369 0008 1546     		mov	r5, r2
 370              	.LBB6:
 371              		.loc 1 157 0
 372 000a 2023     		movs	r3, #32
 373              	.LVL36:
 374              	@ 157 "/home/gokul/ChibiOS_2.5.0/os/hal/src/adc.c" 1
 375 000c 83F31188 		msr     BASEPRI, r3
 376              	@ 0 "" 2
 377              	.LVL37:
 378              		.thumb
 379              	.LBE6:
 380 0010 FFF7FEFF 		bl	dbg_check_lock
 381              	.LVL38:
 382              		.loc 1 158 0
 383 0014 2346     		mov	r3, r4
 384 0016 3846     		mov	r0, r7
 385 0018 3146     		mov	r1, r6
 386 001a 2A46     		mov	r2, r5
 387 001c FFF7FEFF 		bl	adcStartConversionI
 388              	.LVL39:
 389              		.loc 1 159 0
 390 0020 FFF7FEFF 		bl	dbg_check_unlock
ARM GAS  /tmp/cc2OoWGB.s 			page 8


 391              	.LVL40:
 392              	.LBB7:
 393 0024 0023     		movs	r3, #0
 394              	.LVL41:
 395              	@ 159 "/home/gokul/ChibiOS_2.5.0/os/hal/src/adc.c" 1
 396 0026 83F31188 		msr     BASEPRI, r3
 397              	@ 0 "" 2
 398              	.LVL42:
 399              		.thumb
 400 002a F8BD     		pop	{r3, r4, r5, r6, r7, pc}
 401              	.LBE7:
 402              		.cfi_endproc
 403              	.LFE122:
 404              		.size	adcStartConversion, .-adcStartConversion
 405 002c AFF30080 		.section	.text.adcStopConversion,"ax",%progbits
 406              		.align	2
 407              		.p2align 4,,15
 408              		.global	adcStopConversion
 409              		.thumb
 410              		.thumb_func
 411              		.type	adcStopConversion, %function
 412              	adcStopConversion:
 413              	.LFB124:
 414              		.loc 1 211 0
 415              		.cfi_startproc
 416              		@ args = 0, pretend = 0, frame = 0
 417              		@ frame_needed = 0, uses_anonymous_args = 0
 418              	.LVL43:
 419 0000 10B5     		push	{r4, lr}
 420              	.LCFI4:
 421              		.cfi_def_cfa_offset 8
 422              		.cfi_offset 4, -8
 423              		.cfi_offset 14, -4
 424              		.loc 1 213 0
 425 0002 0446     		mov	r4, r0
 426 0004 10B3     		cbz	r0, .L57
 427              	.LVL44:
 428              	.L48:
 429              	.LBB8:
 430              		.loc 1 215 0
 431 0006 2023     		movs	r3, #32
 432              	.LVL45:
 433              	@ 215 "/home/gokul/ChibiOS_2.5.0/os/hal/src/adc.c" 1
 434 0008 83F31188 		msr     BASEPRI, r3
 435              	@ 0 "" 2
 436              	.LVL46:
 437              		.thumb
 438              	.LBE8:
 439 000c FFF7FEFF 		bl	dbg_check_lock
 440              	.LVL47:
 441              		.loc 1 216 0
 442 0010 2378     		ldrb	r3, [r4, #0]	@ zero_extendqisi2
 443 0012 9A1E     		subs	r2, r3, #2
 444 0014 012A     		cmp	r2, #1
 445 0016 03D9     		bls	.L49
 446              		.loc 1 216 0 is_stmt 0 discriminator 1
 447 0018 0E48     		ldr	r0, .L58
ARM GAS  /tmp/cc2OoWGB.s 			page 9


 448 001a FFF7FEFF 		bl	chDbgPanic
 449              	.LVL48:
 450 001e 2378     		ldrb	r3, [r4, #0]	@ zero_extendqisi2
 451              	.L49:
 452              		.loc 1 219 0 is_stmt 1
 453 0020 022B     		cmp	r3, #2
 454 0022 0DD0     		beq	.L51
 455              		.loc 1 220 0
 456 0024 2046     		mov	r0, r4
 457 0026 FFF7FEFF 		bl	adc_lld_stop_conversion
 458              	.LVL49:
 459              		.loc 1 223 0
 460 002a 6069     		ldr	r0, [r4, #20]
 461              		.loc 1 221 0
 462 002c 0021     		movs	r1, #0
 463              		.loc 1 222 0
 464 002e 0222     		movs	r2, #2
 465              		.loc 1 221 0
 466 0030 2161     		str	r1, [r4, #16]
 467              		.loc 1 222 0
 468 0032 2270     		strb	r2, [r4, #0]
 469              		.loc 1 223 0
 470 0034 20B1     		cbz	r0, .L51
 471              	.LVL50:
 472              	.LBB9:
 473              		.loc 1 223 0 is_stmt 0 discriminator 1
 474 0036 6161     		str	r1, [r4, #20]
 475 0038 6FF00101 		mvn	r1, #1
 476 003c FFF7FEFF 		bl	chSchWakeupS
 477              	.LVL51:
 478              	.L51:
 479              	.LBE9:
 480              		.loc 1 225 0 is_stmt 1
 481 0040 FFF7FEFF 		bl	dbg_check_unlock
 482              	.LVL52:
 483              	.LBB10:
 484 0044 0023     		movs	r3, #0
 485              	.LVL53:
 486              	@ 225 "/home/gokul/ChibiOS_2.5.0/os/hal/src/adc.c" 1
 487 0046 83F31188 		msr     BASEPRI, r3
 488              	@ 0 "" 2
 489              	.LVL54:
 490              		.thumb
 491 004a 10BD     		pop	{r4, pc}
 492              	.LVL55:
 493              	.L57:
 494              	.LBE10:
 495              		.loc 1 213 0 discriminator 1
 496 004c 0248     		ldr	r0, .L58+4
 497              	.LVL56:
 498 004e FFF7FEFF 		bl	chDbgPanic
 499              	.LVL57:
 500 0052 D8E7     		b	.L48
 501              	.L59:
 502              		.align	2
 503              	.L58:
 504 0054 88000000 		.word	.LC7
ARM GAS  /tmp/cc2OoWGB.s 			page 10


 505 0058 70000000 		.word	.LC6
 506              		.cfi_endproc
 507              	.LFE124:
 508              		.size	adcStopConversion, .-adcStopConversion
 509 005c AFF30080 		.section	.text.adcStopConversionI,"ax",%progbits
 510              		.align	2
 511              		.p2align 4,,15
 512              		.global	adcStopConversionI
 513              		.thumb
 514              		.thumb_func
 515              		.type	adcStopConversionI, %function
 516              	adcStopConversionI:
 517              	.LFB125:
 518              		.loc 1 238 0
 519              		.cfi_startproc
 520              		@ args = 0, pretend = 0, frame = 0
 521              		@ frame_needed = 0, uses_anonymous_args = 0
 522              	.LVL58:
 523 0000 10B5     		push	{r4, lr}
 524              	.LCFI5:
 525              		.cfi_def_cfa_offset 8
 526              		.cfi_offset 4, -8
 527              		.cfi_offset 14, -4
 528              		.loc 1 238 0
 529 0002 0446     		mov	r4, r0
 530              		.loc 1 240 0
 531 0004 FFF7FEFF 		bl	chDbgCheckClassI
 532              	.LVL59:
 533              		.loc 1 241 0
 534 0008 ECB1     		cbz	r4, .L70
 535              	.L61:
 536              		.loc 1 242 0
 537 000a 2378     		ldrb	r3, [r4, #0]	@ zero_extendqisi2
 538 000c 9A1E     		subs	r2, r3, #2
 539 000e 022A     		cmp	r2, #2
 540 0010 14D8     		bhi	.L71
 541              	.L62:
 542              		.loc 1 247 0
 543 0012 022B     		cmp	r3, #2
 544 0014 11D0     		beq	.L60
 545              		.loc 1 248 0
 546 0016 2046     		mov	r0, r4
 547 0018 FFF7FEFF 		bl	adc_lld_stop_conversion
 548              	.LVL60:
 549              		.loc 1 251 0
 550 001c 6369     		ldr	r3, [r4, #20]
 551              		.loc 1 249 0
 552 001e 0020     		movs	r0, #0
 553              		.loc 1 250 0
 554 0020 0221     		movs	r1, #2
 555              		.loc 1 249 0
 556 0022 2061     		str	r0, [r4, #16]
 557              		.loc 1 250 0
 558 0024 2170     		strb	r1, [r4, #0]
 559              		.loc 1 251 0
 560 0026 43B1     		cbz	r3, .L60
 561              	.LVL61:
ARM GAS  /tmp/cc2OoWGB.s 			page 11


 562              	.LBB11:
 563              		.loc 1 251 0 is_stmt 0 discriminator 1
 564 0028 6061     		str	r0, [r4, #20]
 565 002a 6FF00102 		mvn	r2, #1
 566 002e 1846     		mov	r0, r3
 567 0030 9A62     		str	r2, [r3, #40]
 568              	.LBE11:
 569              		.loc 1 253 0 is_stmt 1 discriminator 1
 570 0032 BDE81040 		pop	{r4, lr}
 571              	.LBB12:
 572              		.loc 1 251 0 discriminator 1
 573 0036 FFF7FEBF 		b	chSchReadyI
 574              	.LVL62:
 575              	.L60:
 576 003a 10BD     		pop	{r4, pc}
 577              	.L71:
 578              	.LBE12:
 579              		.loc 1 242 0 discriminator 1
 580 003c 0448     		ldr	r0, .L72
 581 003e FFF7FEFF 		bl	chDbgPanic
 582              	.LVL63:
 583 0042 2378     		ldrb	r3, [r4, #0]	@ zero_extendqisi2
 584 0044 E5E7     		b	.L62
 585              	.L70:
 586              		.loc 1 241 0 discriminator 1
 587 0046 0348     		ldr	r0, .L72+4
 588 0048 FFF7FEFF 		bl	chDbgPanic
 589              	.LVL64:
 590 004c DDE7     		b	.L61
 591              	.L73:
 592 004e 00BF     		.align	2
 593              	.L72:
 594 0050 B8000000 		.word	.LC9
 595 0054 A0000000 		.word	.LC8
 596              		.cfi_endproc
 597              	.LFE125:
 598              		.size	adcStopConversionI, .-adcStopConversionI
 599 0058 AFF30080 		.section	.text.adcConvert,"ax",%progbits
 599      AFF30080 
 600              		.align	2
 601              		.p2align 4,,15
 602              		.global	adcConvert
 603              		.thumb
 604              		.thumb_func
 605              		.type	adcConvert, %function
 606              	adcConvert:
 607              	.LFB126:
 608              		.loc 1 282 0
 609              		.cfi_startproc
 610              		@ args = 0, pretend = 0, frame = 0
 611              		@ frame_needed = 0, uses_anonymous_args = 0
 612              	.LVL65:
 613 0000 2DE9F041 		push	{r4, r5, r6, r7, r8, lr}
 614              	.LCFI6:
 615              		.cfi_def_cfa_offset 24
 616              		.cfi_offset 4, -24
 617              		.cfi_offset 5, -20
ARM GAS  /tmp/cc2OoWGB.s 			page 12


 618              		.cfi_offset 6, -16
 619              		.cfi_offset 7, -12
 620              		.cfi_offset 8, -8
 621              		.cfi_offset 14, -4
 622              		.loc 1 282 0
 623 0004 9846     		mov	r8, r3
 624 0006 0446     		mov	r4, r0
 625 0008 0F46     		mov	r7, r1
 626 000a 1646     		mov	r6, r2
 627              	.LBB13:
 628              		.loc 1 285 0
 629 000c 2023     		movs	r3, #32
 630              	.LVL66:
 631              	@ 285 "/home/gokul/ChibiOS_2.5.0/os/hal/src/adc.c" 1
 632 000e 83F31188 		msr     BASEPRI, r3
 633              	@ 0 "" 2
 634              	.LVL67:
 635              		.thumb
 636              	.LBE13:
 637 0012 FFF7FEFF 		bl	dbg_check_lock
 638              	.LVL68:
 639              		.loc 1 286 0
 640 0016 6369     		ldr	r3, [r4, #20]
 641 0018 13B1     		cbz	r3, .L75
 642              		.loc 1 286 0 is_stmt 0 discriminator 1
 643 001a 0C48     		ldr	r0, .L79
 644 001c FFF7FEFF 		bl	chDbgPanic
 645              	.LVL69:
 646              	.L75:
 647              		.loc 1 288 0 is_stmt 1
 648 0020 0B4D     		ldr	r5, .L79+4
 649              		.loc 1 287 0
 650 0022 4346     		mov	r3, r8
 651 0024 3246     		mov	r2, r6
 652 0026 3946     		mov	r1, r7
 653 0028 2046     		mov	r0, r4
 654 002a FFF7FEFF 		bl	adcStartConversionI
 655              	.LVL70:
 656              		.loc 1 288 0
 657 002e A969     		ldr	r1, [r5, #24]
 658              		.loc 1 289 0
 659 0030 0220     		movs	r0, #2
 660              		.loc 1 288 0
 661 0032 6161     		str	r1, [r4, #20]
 662              		.loc 1 289 0
 663 0034 FFF7FEFF 		bl	chSchGoSleepS
 664              	.LVL71:
 665              		.loc 1 290 0
 666 0038 A869     		ldr	r0, [r5, #24]
 667 003a 846A     		ldr	r4, [r0, #40]
 668              	.LVL72:
 669              		.loc 1 291 0
 670 003c FFF7FEFF 		bl	dbg_check_unlock
 671              	.LVL73:
 672              	.LBB14:
 673 0040 0023     		movs	r3, #0
 674              	.LVL74:
ARM GAS  /tmp/cc2OoWGB.s 			page 13


 675              	@ 291 "/home/gokul/ChibiOS_2.5.0/os/hal/src/adc.c" 1
 676 0042 83F31188 		msr     BASEPRI, r3
 677              	@ 0 "" 2
 678              	.LVL75:
 679              		.thumb
 680              	.LBE14:
 681              		.loc 1 293 0
 682 0046 2046     		mov	r0, r4
 683 0048 BDE8F081 		pop	{r4, r5, r6, r7, r8, pc}
 684              	.L80:
 685              		.align	2
 686              	.L79:
 687 004c D4000000 		.word	.LC10
 688 0050 00000000 		.word	rlist
 689              		.cfi_endproc
 690              	.LFE126:
 691              		.size	adcConvert, .-adcConvert
 692 0054 AFF30080 		.section	.text.adcAcquireBus,"ax",%progbits
 692      AFF30080 
 692      AFF30080 
 693              		.align	2
 694              		.p2align 4,,15
 695              		.global	adcAcquireBus
 696              		.thumb
 697              		.thumb_func
 698              		.type	adcAcquireBus, %function
 699              	adcAcquireBus:
 700              	.LFB127:
 701              		.loc 1 308 0
 702              		.cfi_startproc
 703              		@ args = 0, pretend = 0, frame = 0
 704              		@ frame_needed = 0, uses_anonymous_args = 0
 705              	.LVL76:
 706 0000 10B5     		push	{r4, lr}
 707              	.LCFI7:
 708              		.cfi_def_cfa_offset 8
 709              		.cfi_offset 4, -8
 710              		.cfi_offset 14, -4
 711              		.loc 1 310 0
 712 0002 0446     		mov	r4, r0
 713 0004 28B1     		cbz	r0, .L83
 714              	.LVL77:
 715              	.L82:
 716              		.loc 1 313 0
 717 0006 04F11800 		add	r0, r4, #24
 718              		.loc 1 317 0
 719 000a BDE81040 		pop	{r4, lr}
 720              		.loc 1 313 0
 721 000e FFF7FEBF 		b	chMtxLock
 722              	.LVL78:
 723              	.L83:
 724              		.loc 1 310 0 discriminator 1
 725 0012 0248     		ldr	r0, .L84
 726              	.LVL79:
 727 0014 FFF7FEFF 		bl	chDbgPanic
 728              	.LVL80:
 729 0018 F5E7     		b	.L82
ARM GAS  /tmp/cc2OoWGB.s 			page 14


 730              	.L85:
 731 001a 00BF     		.align	2
 732              	.L84:
 733 001c E8000000 		.word	.LC11
 734              		.cfi_endproc
 735              	.LFE127:
 736              		.size	adcAcquireBus, .-adcAcquireBus
 737              		.section	.text.adcReleaseBus,"ax",%progbits
 738              		.align	2
 739              		.p2align 4,,15
 740              		.global	adcReleaseBus
 741              		.thumb
 742              		.thumb_func
 743              		.type	adcReleaseBus, %function
 744              	adcReleaseBus:
 745              	.LFB128:
 746              		.loc 1 328 0
 747              		.cfi_startproc
 748              		@ args = 0, pretend = 0, frame = 0
 749              		@ frame_needed = 0, uses_anonymous_args = 0
 750              	.LVL81:
 751 0000 08B5     		push	{r3, lr}
 752              	.LCFI8:
 753              		.cfi_def_cfa_offset 8
 754              		.cfi_offset 3, -8
 755              		.cfi_offset 14, -4
 756              		.loc 1 330 0
 757 0002 18B1     		cbz	r0, .L88
 758              	.LVL82:
 759              	.L87:
 760              		.loc 1 338 0
 761 0004 BDE80840 		pop	{r3, lr}
 762              		.loc 1 334 0
 763 0008 FFF7FEBF 		b	chMtxUnlock
 764              	.LVL83:
 765              	.L88:
 766              		.loc 1 330 0 discriminator 1
 767 000c 0148     		ldr	r0, .L89
 768              	.LVL84:
 769 000e FFF7FEFF 		bl	chDbgPanic
 770              	.LVL85:
 771 0012 F7E7     		b	.L87
 772              	.L90:
 773              		.align	2
 774              	.L89:
 775 0014 FC000000 		.word	.LC12
 776              		.cfi_endproc
 777              	.LFE128:
 778              		.size	adcReleaseBus, .-adcReleaseBus
 779 0018 AFF30080 		.section	.rodata.str1.4,"aMS",%progbits,1
 779      AFF30080 
 780              		.align	2
 781              	.LC0:
 782 0000 22616463 		.ascii	"\"adcStart\"()\000"
 782      53746172 
 782      74222829 
 782      00
ARM GAS  /tmp/cc2OoWGB.s 			page 15


 783 000d 000000   		.space	3
 784              	.LC1:
 785 0010 61646353 		.ascii	"adcStart(), #1\000"
 785      74617274 
 785      28292C20 
 785      233100
 786 001f 00       		.space	1
 787              	.LC2:
 788 0020 22616463 		.ascii	"\"adcStop\"()\000"
 788      53746F70 
 788      22282900 
 789              	.LC3:
 790 002c 61646353 		.ascii	"adcStop(), #1\000"
 790      746F7028 
 790      292C2023 
 790      3100
 791 003a 0000     		.space	2
 792              	.LC4:
 793 003c 22616463 		.ascii	"\"adcStartConversionI\"()\000"
 793      53746172 
 793      74436F6E 
 793      76657273 
 793      696F6E49 
 794              	.LC5:
 795 0054 61646353 		.ascii	"adcStartConversionI(), #1\000"
 795      74617274 
 795      436F6E76 
 795      65727369 
 795      6F6E4928 
 796 006e 0000     		.space	2
 797              	.LC6:
 798 0070 22616463 		.ascii	"\"adcStopConversion\"()\000"
 798      53746F70 
 798      436F6E76 
 798      65727369 
 798      6F6E2228 
 799 0086 0000     		.space	2
 800              	.LC7:
 801 0088 61646353 		.ascii	"adcStopConversion(), #1\000"
 801      746F7043 
 801      6F6E7665 
 801      7273696F 
 801      6E28292C 
 802              	.LC8:
 803 00a0 22616463 		.ascii	"\"adcStopConversionI\"()\000"
 803      53746F70 
 803      436F6E76 
 803      65727369 
 803      6F6E4922 
 804 00b7 00       		.space	1
 805              	.LC9:
 806 00b8 61646353 		.ascii	"adcStopConversionI(), #1\000"
 806      746F7043 
 806      6F6E7665 
 806      7273696F 
 806      6E492829 
 807 00d1 000000   		.space	3
ARM GAS  /tmp/cc2OoWGB.s 			page 16


 808              	.LC10:
 809 00d4 61646343 		.ascii	"adcConvert(), #1\000"
 809      6F6E7665 
 809      72742829 
 809      2C202331 
 809      00
 810 00e5 000000   		.space	3
 811              	.LC11:
 812 00e8 22616463 		.ascii	"\"adcAcquireBus\"()\000"
 812      41637175 
 812      69726542 
 812      75732228 
 812      2900
 813 00fa 0000     		.space	2
 814              	.LC12:
 815 00fc 22616463 		.ascii	"\"adcReleaseBus\"()\000"
 815      52656C65 
 815      61736542 
 815      75732228 
 815      2900
 816 010e 0000     		.text
 817              	.Letext0:
 818              		.file 2 "/opt/gcc-arm-none-eabi-4_7-2013q1/bin/../lib/gcc/arm-none-eabi/4.7.3/include/stddef.h"
 819              		.file 3 "/opt/gcc-arm-none-eabi-4_7-2013q1/bin/../lib/gcc/arm-none-eabi/4.7.3/../../../../arm-none
 820              		.file 4 "/home/gokul/ChibiOS_2.5.0/os/ports/GCC/ARMCMx/chtypes.h"
 821              		.file 5 "/home/gokul/ChibiOS_2.5.0/os/kernel/include/chlists.h"
 822              		.file 6 "/home/gokul/ChibiOS_2.5.0/os/kernel/include/chthreads.h"
 823              		.file 7 "/home/gokul/ChibiOS_2.5.0/os/ports/GCC/ARMCMx/chcore_v7m.h"
 824              		.file 8 "/home/gokul/ChibiOS_2.5.0/os/kernel/include/chschd.h"
 825              		.file 9 "/home/gokul/ChibiOS_2.5.0/os/kernel/include/chmtx.h"
 826              		.file 10 "/home/gokul/ChibiOS_2.5.0/os/hal/platforms/STM32F4xx/stm32f4xx.h"
 827              		.file 11 "/home/gokul/ChibiOS_2.5.0/os/hal/platforms/STM32F4xx/stm32_dma.h"
 828              		.file 12 "/home/gokul/ChibiOS_2.5.0/os/hal/include/adc.h"
 829              		.file 13 "/home/gokul/ChibiOS_2.5.0/os/hal/platforms/STM32F4xx/adc_lld.h"
 830              		.file 14 "/home/gokul/ChibiOS_2.5.0/os/ports/common/ARMCMx/CMSIS/include/core_cm4.h"
 831              		.file 15 "/home/gokul/ChibiOS_2.5.0/os/kernel/include/chdebug.h"