ARM GAS  /tmp/ccRfa0ZT.s 			page 1


   1              		.syntax unified
   2              		.cpu cortex-m4
   3              		.fpu softvfp
   4              		.eabi_attribute 20, 1
   5              		.eabi_attribute 21, 1
   6              		.eabi_attribute 23, 3
   7              		.eabi_attribute 24, 1
   8              		.eabi_attribute 25, 1
   9              		.eabi_attribute 26, 1
  10              		.eabi_attribute 30, 2
  11              		.eabi_attribute 34, 1
  12              		.eabi_attribute 18, 4
  13              		.thumb
  14              		.file	"adc_lld.c"
  15              		.text
  16              	.Ltext0:
  17              		.cfi_sections	.debug_frame
  18              		.section	.text.adc_lld_init,"ax",%progbits
  19              		.align	2
  20              		.p2align 4,,15
  21              		.global	adc_lld_init
  22              		.thumb
  23              		.thumb_func
  24              		.type	adc_lld_init, %function
  25              	adc_lld_init:
  26              	.LFB120:
  27              		.file 1 "/home/gokul/ChibiOS_2.5.0/os/hal/platforms/STM32F4xx/adc_lld.c"
  28              		.loc 1 175 0
  29              		.cfi_startproc
  30              		@ args = 0, pretend = 0, frame = 0
  31              		@ frame_needed = 0, uses_anonymous_args = 0
  32              		.loc 1 177 0
  33 0000 4FF40C53 		mov	r3, #8960
  34              		.loc 1 175 0
  35 0004 10B5     		push	{r4, lr}
  36              	.LCFI0:
  37              		.cfi_def_cfa_offset 8
  38              		.cfi_offset 4, -8
  39              		.cfi_offset 14, -4
  40              		.loc 1 177 0
  41 0006 C4F20103 		movt	r3, 16385
  42              		.loc 1 181 0
  43 000a 40F20004 		movw	r4, #:lower16:.LANCHOR0
  44 000e C0F20004 		movt	r4, #:upper16:.LANCHOR0
  45              		.loc 1 177 0
  46 0012 0122     		movs	r2, #1
  47              		.loc 1 181 0
  48 0014 2046     		mov	r0, r4
  49              		.loc 1 177 0
  50 0016 5A60     		str	r2, [r3, #4]
  51              		.loc 1 181 0
  52 0018 FFF7FEFF 		bl	adcObjectInit
  53              	.LVL0:
  54              		.loc 1 182 0
  55 001c 4FF40052 		mov	r2, #8192
  56 0020 C4F20102 		movt	r2, 16385
  57 0024 A262     		str	r2, [r4, #40]
ARM GAS  /tmp/ccRfa0ZT.s 			page 2


  58              		.loc 1 184 0
  59 0026 42F61643 		movw	r3, #11286
  60              		.loc 1 183 0
  61 002a 054A     		ldr	r2, .L2
  62              		.loc 1 184 0
  63 002c C0F20203 		movt	r3, 2
  64              		.loc 1 220 0
  65 0030 1220     		movs	r0, #18
  66 0032 6021     		movs	r1, #96
  67              		.loc 1 183 0
  68 0034 E262     		str	r2, [r4, #44]
  69              		.loc 1 184 0
  70 0036 2363     		str	r3, [r4, #48]
  71              		.loc 1 221 0
  72 0038 BDE81040 		pop	{r4, lr}
  73              		.loc 1 220 0
  74 003c FFF7FEBF 		b	nvicEnableVector
  75              	.LVL1:
  76              	.L3:
  77              		.align	2
  78              	.L2:
  79 0040 90000000 		.word	_stm32_dma_streams+144
  80              		.cfi_endproc
  81              	.LFE120:
  82              		.size	adc_lld_init, .-adc_lld_init
  83 0044 AFF30080 		.section	.text.adc_lld_start,"ax",%progbits
  83      AFF30080 
  83      AFF30080 
  84              		.align	2
  85              		.p2align 4,,15
  86              		.global	adc_lld_start
  87              		.thumb
  88              		.thumb_func
  89              		.type	adc_lld_start, %function
  90              	adc_lld_start:
  91              	.LFB121:
  92              		.loc 1 230 0
  93              		.cfi_startproc
  94              		@ args = 0, pretend = 0, frame = 0
  95              		@ frame_needed = 0, uses_anonymous_args = 0
  96              	.LVL2:
  97 0000 38B5     		push	{r3, r4, r5, lr}
  98              	.LCFI1:
  99              		.cfi_def_cfa_offset 16
 100              		.cfi_offset 3, -16
 101              		.cfi_offset 4, -12
 102              		.cfi_offset 5, -8
 103              		.cfi_offset 14, -4
 104              		.loc 1 233 0
 105 0002 0378     		ldrb	r3, [r0, #0]	@ zero_extendqisi2
 106 0004 012B     		cmp	r3, #1
 107              		.loc 1 230 0
 108 0006 0446     		mov	r4, r0
 109              		.loc 1 233 0
 110 0008 00D0     		beq	.L12
 111 000a 38BD     		pop	{r3, r4, r5, pc}
 112              	.L12:
ARM GAS  /tmp/ccRfa0ZT.s 			page 3


 113              		.loc 1 235 0
 114 000c 124D     		ldr	r5, .L15
 115 000e A842     		cmp	r0, r5
 116 0010 06D0     		beq	.L13
 117              	.LVL3:
 118              	.L6:
 119              		.loc 1 275 0
 120 0012 A16A     		ldr	r1, [r4, #40]
 121 0014 0023     		movs	r3, #0
 122              		.loc 1 277 0
 123 0016 0120     		movs	r0, #1
 124              		.loc 1 275 0
 125 0018 4B60     		str	r3, [r1, #4]
 126              		.loc 1 276 0
 127 001a 8B60     		str	r3, [r1, #8]
 128              		.loc 1 277 0
 129 001c 8860     		str	r0, [r1, #8]
 130 001e 38BD     		pop	{r3, r4, r5, pc}
 131              	.LVL4:
 132              	.L13:
 133              	.LBB2:
 134              		.loc 1 237 0
 135 0020 C06A     		ldr	r0, [r0, #44]
 136              	.LVL5:
 137 0022 0E4A     		ldr	r2, .L15+4
 138 0024 0621     		movs	r1, #6
 139 0026 2346     		mov	r3, r4
 140 0028 FFF7FEFF 		bl	dmaStreamAllocate
 141              	.LVL6:
 142              		.loc 1 241 0
 143 002c 78B9     		cbnz	r0, .L14
 144              	.LVL7:
 145              	.L7:
 146              		.loc 1 242 0
 147 002e E86A     		ldr	r0, [r5, #44]
 148 0030 42F24C02 		movw	r2, #8268
 149 0034 0168     		ldr	r1, [r0, #0]
 150              		.loc 1 243 0
 151 0036 4FF46053 		mov	r3, #14336
 152 003a C4F20203 		movt	r3, 16386
 153              		.loc 1 242 0
 154 003e C4F20102 		movt	r2, 16385
 155 0042 8A60     		str	r2, [r1, #8]
 156              		.loc 1 243 0
 157 0044 586C     		ldr	r0, [r3, #68]
 158 0046 40F48072 		orr	r2, r0, #256
 159 004a 5A64     		str	r2, [r3, #68]
 160 004c E1E7     		b	.L6
 161              	.LVL8:
 162              	.L14:
 163              		.loc 1 241 0 discriminator 1
 164 004e 0448     		ldr	r0, .L15+8
 165              	.LVL9:
 166 0050 FFF7FEFF 		bl	chDbgPanic
 167              	.LVL10:
 168 0054 EBE7     		b	.L7
 169              	.L16:
ARM GAS  /tmp/ccRfa0ZT.s 			page 4


 170 0056 00BF     		.align	2
 171              	.L15:
 172 0058 00000000 		.word	.LANCHOR0
 173 005c 00000000 		.word	adc_lld_serve_rx_interrupt
 174 0060 00000000 		.word	.LC0
 175              	.LBE2:
 176              		.cfi_endproc
 177              	.LFE121:
 178              		.size	adc_lld_start, .-adc_lld_start
 179 0064 AFF30080 		.section	.text.adc_lld_stop,"ax",%progbits
 179      AFF30080 
 179      AFF30080 
 180              		.align	2
 181              		.p2align 4,,15
 182              		.global	adc_lld_stop
 183              		.thumb
 184              		.thumb_func
 185              		.type	adc_lld_stop, %function
 186              	adc_lld_stop:
 187              	.LFB122:
 188              		.loc 1 288 0
 189              		.cfi_startproc
 190              		@ args = 0, pretend = 0, frame = 0
 191              		@ frame_needed = 0, uses_anonymous_args = 0
 192              	.LVL11:
 193              		.loc 1 291 0
 194 0000 0378     		ldrb	r3, [r0, #0]	@ zero_extendqisi2
 195 0002 022B     		cmp	r3, #2
 196              		.loc 1 288 0
 197 0004 10B5     		push	{r4, lr}
 198              	.LCFI2:
 199              		.cfi_def_cfa_offset 8
 200              		.cfi_offset 4, -8
 201              		.cfi_offset 14, -4
 202              		.loc 1 288 0
 203 0006 0446     		mov	r4, r0
 204              		.loc 1 291 0
 205 0008 00D0     		beq	.L21
 206              	.LVL12:
 207              	.L17:
 208 000a 10BD     		pop	{r4, pc}
 209              	.LVL13:
 210              	.L21:
 211              		.loc 1 292 0
 212 000c C06A     		ldr	r0, [r0, #44]
 213              	.LVL14:
 214 000e FFF7FEFF 		bl	dmaStreamRelease
 215              	.LVL15:
 216              		.loc 1 297 0
 217 0012 0849     		ldr	r1, .L22
 218              		.loc 1 293 0
 219 0014 A06A     		ldr	r0, [r4, #40]
 220 0016 0022     		movs	r2, #0
 221              		.loc 1 297 0
 222 0018 8C42     		cmp	r4, r1
 223              		.loc 1 293 0
 224 001a 4260     		str	r2, [r0, #4]
ARM GAS  /tmp/ccRfa0ZT.s 			page 5


 225              		.loc 1 294 0
 226 001c 8260     		str	r2, [r0, #8]
 227              		.loc 1 297 0
 228 001e F4D1     		bne	.L17
 229              		.loc 1 298 0
 230 0020 4FF46053 		mov	r3, #14336
 231 0024 C4F20203 		movt	r3, 16386
 232 0028 586C     		ldr	r0, [r3, #68]
 233 002a 20F48072 		bic	r2, r0, #256
 234 002e 5A64     		str	r2, [r3, #68]
 235 0030 EBE7     		b	.L17
 236              	.L23:
 237 0032 00BF     		.align	2
 238              	.L22:
 239 0034 00000000 		.word	.LANCHOR0
 240              		.cfi_endproc
 241              	.LFE122:
 242              		.size	adc_lld_stop, .-adc_lld_stop
 243 0038 AFF30080 		.section	.text.adc_lld_start_conversion,"ax",%progbits
 243      AFF30080 
 244              		.align	2
 245              		.p2align 4,,15
 246              		.global	adc_lld_start_conversion
 247              		.thumb
 248              		.thumb_func
 249              		.type	adc_lld_start_conversion, %function
 250              	adc_lld_start_conversion:
 251              	.LFB123:
 252              		.loc 1 320 0
 253              		.cfi_startproc
 254              		@ args = 0, pretend = 0, frame = 0
 255              		@ frame_needed = 0, uses_anonymous_args = 0
 256              		@ link register save eliminated.
 257              	.LVL16:
 258              		.loc 1 322 0
 259 0000 0369     		ldr	r3, [r0, #16]
 260              	.LVL17:
 261              		.loc 1 325 0
 262 0002 026B     		ldr	r2, [r0, #48]
 263              	.LVL18:
 264              		.loc 1 326 0
 265 0004 1968     		ldr	r1, [r3, #0]
 266              		.loc 1 320 0
 267 0006 2DE9F007 		push	{r4, r5, r6, r7, r8, r9, sl}
 268              	.LCFI3:
 269              		.cfi_def_cfa_offset 28
 270              		.cfi_offset 4, -28
 271              		.cfi_offset 5, -24
 272              		.cfi_offset 6, -20
 273              		.cfi_offset 7, -16
 274              		.cfi_offset 8, -12
 275              		.cfi_offset 9, -8
 276              		.cfi_offset 10, -4
 277              		.loc 1 326 0
 278 000a 09B1     		cbz	r1, .L25
 279              		.loc 1 327 0
 280 000c 42F48072 		orr	r2, r2, #256
ARM GAS  /tmp/ccRfa0ZT.s 			page 6


 281              	.LVL19:
 282              	.L25:
 283              		.loc 1 329 0
 284 0010 C468     		ldr	r4, [r0, #12]
 285              		.loc 1 334 0
 286 0012 C56A     		ldr	r5, [r0, #44]
 287              		.loc 1 335 0
 288 0014 9E88     		ldrh	r6, [r3, #4]
 289              		.loc 1 334 0
 290 0016 2968     		ldr	r1, [r5, #0]
 291 0018 8768     		ldr	r7, [r0, #8]
 292              		.loc 1 350 0
 293 001a D3F81090 		ldr	r9, [r3, #16]
 294              		.loc 1 352 0
 295 001e D3F814A0 		ldr	sl, [r3, #20]
 296              		.loc 1 334 0
 297 0022 CF60     		str	r7, [r1, #12]
 298              		.loc 1 329 0
 299 0024 012C     		cmp	r4, #1
 300              		.loc 1 332 0
 301 0026 88BF     		it	hi
 302 0028 42F00802 		orrhi	r2, r2, #8
 303              	.LVL20:
 304              		.loc 1 335 0
 305 002c 04FB06F4 		mul	r4, r4, r6
 306 0030 4C60     		str	r4, [r1, #4]
 307              		.loc 1 337 0
 308 0032 0A60     		str	r2, [r1, #0]
 309              		.loc 1 338 0
 310 0034 D1F80080 		ldr	r8, [r1, #0]
 311              		.loc 1 341 0
 312 0038 826A     		ldr	r2, [r0, #40]
 313              	.LVL21:
 314              		.loc 1 342 0
 315 003a D3F818C0 		ldr	ip, [r3, #24]
 316              		.loc 1 343 0
 317 003e DF69     		ldr	r7, [r3, #28]
 318              		.loc 1 344 0
 319 0040 1E6A     		ldr	r6, [r3, #32]
 320              		.loc 1 345 0
 321 0042 5D6A     		ldr	r5, [r3, #36]
 322              		.loc 1 346 0
 323 0044 9C6A     		ldr	r4, [r3, #40]
 324              		.loc 1 350 0
 325 0046 49F08060 		orr	r0, r9, #67108864
 326              	.LVL22:
 327              		.loc 1 352 0
 328 004a 4AF44073 		orr	r3, sl, #768
 329              	.LVL23:
 330              		.loc 1 338 0
 331 004e 48F00108 		orr	r8, r8, #1
 332 0052 C1F80080 		str	r8, [r1, #0]
 333              		.loc 1 350 0
 334 0056 40F48070 		orr	r0, r0, #256
 335              		.loc 1 352 0
 336 005a 43F00303 		orr	r3, r3, #3
 337              		.loc 1 341 0
ARM GAS  /tmp/ccRfa0ZT.s 			page 7


 338 005e 0021     		movs	r1, #0
 339              	.LVL24:
 340 0060 1160     		str	r1, [r2, #0]
 341              		.loc 1 342 0
 342 0062 C2F80CC0 		str	ip, [r2, #12]
 343              		.loc 1 343 0
 344 0066 1761     		str	r7, [r2, #16]
 345              		.loc 1 344 0
 346 0068 D662     		str	r6, [r2, #44]
 347              		.loc 1 345 0
 348 006a 1563     		str	r5, [r2, #48]
 349              		.loc 1 346 0
 350 006c 5463     		str	r4, [r2, #52]
 351              		.loc 1 350 0
 352 006e 5060     		str	r0, [r2, #4]
 353              		.loc 1 351 0
 354 0070 9360     		str	r3, [r2, #8]
 355              		.loc 1 353 0
 356 0072 BDE8F007 		pop	{r4, r5, r6, r7, r8, r9, sl}
 357 0076 7047     		bx	lr
 358              		.cfi_endproc
 359              	.LFE123:
 360              		.size	adc_lld_start_conversion, .-adc_lld_start_conversion
 361 0078 AFF30080 		.section	.text.adc_lld_stop_conversion,"ax",%progbits
 361      AFF30080 
 362              		.align	2
 363              		.p2align 4,,15
 364              		.global	adc_lld_stop_conversion
 365              		.thumb
 366              		.thumb_func
 367              		.type	adc_lld_stop_conversion, %function
 368              	adc_lld_stop_conversion:
 369              	.LFB124:
 370              		.loc 1 362 0
 371              		.cfi_startproc
 372              		@ args = 0, pretend = 0, frame = 0
 373              		@ frame_needed = 0, uses_anonymous_args = 0
 374              		@ link register save eliminated.
 375              	.LVL25:
 376              		.loc 1 364 0
 377 0000 C16A     		ldr	r1, [r0, #44]
 378 0002 0A68     		ldr	r2, [r1, #0]
 379 0004 1368     		ldr	r3, [r2, #0]
 380              		.loc 1 362 0
 381 0006 10B4     		push	{r4}
 382              	.LCFI4:
 383              		.cfi_def_cfa_offset 4
 384              		.cfi_offset 4, -4
 385              		.loc 1 364 0
 386 0008 23F00104 		bic	r4, r3, #1
 387 000c 1460     		str	r4, [r2, #0]
 388              	.L31:
 389              		.loc 1 364 0 is_stmt 0 discriminator 1
 390 000e 1368     		ldr	r3, [r2, #0]
 391 0010 13F00103 		ands	r3, r3, #1
 392 0014 FBD1     		bne	.L31
 393              		.loc 1 364 0 discriminator 2
ARM GAS  /tmp/ccRfa0ZT.s 			page 8


 394 0016 0C7A     		ldrb	r4, [r1, #8]	@ zero_extendqisi2
 395              		.loc 1 365 0 is_stmt 1 discriminator 2
 396 0018 826A     		ldr	r2, [r0, #40]
 397              		.loc 1 364 0 discriminator 2
 398 001a 4968     		ldr	r1, [r1, #4]
 399 001c 3D20     		movs	r0, #61
 400              	.LVL26:
 401 001e 00FA04F0 		lsl	r0, r0, r4
 402 0022 0860     		str	r0, [r1, #0]
 403              		.loc 1 365 0 discriminator 2
 404 0024 5360     		str	r3, [r2, #4]
 405              		.loc 1 366 0 discriminator 2
 406 0026 9360     		str	r3, [r2, #8]
 407              		.loc 1 367 0 discriminator 2
 408 0028 0123     		movs	r3, #1
 409 002a 9360     		str	r3, [r2, #8]
 410              		.loc 1 368 0 discriminator 2
 411 002c 10BC     		pop	{r4}
 412 002e 7047     		bx	lr
 413              		.cfi_endproc
 414              	.LFE124:
 415              		.size	adc_lld_stop_conversion, .-adc_lld_stop_conversion
 416              		.section	.text.adc_lld_serve_rx_interrupt,"ax",%progbits
 417              		.align	2
 418              		.p2align 4,,15
 419              		.thumb
 420              		.thumb_func
 421              		.type	adc_lld_serve_rx_interrupt, %function
 422              	adc_lld_serve_rx_interrupt:
 423              	.LFB118:
 424              		.loc 1 80 0
 425              		.cfi_startproc
 426              		@ args = 0, pretend = 0, frame = 0
 427              		@ frame_needed = 0, uses_anonymous_args = 0
 428              	.LVL27:
 429              		.loc 1 83 0
 430 0000 11F00C0F 		tst	r1, #12
 431              		.loc 1 80 0
 432 0004 38B5     		push	{r3, r4, r5, lr}
 433              	.LCFI5:
 434              		.cfi_def_cfa_offset 16
 435              		.cfi_offset 3, -16
 436              		.cfi_offset 4, -12
 437              		.cfi_offset 5, -8
 438              		.cfi_offset 14, -4
 439              		.loc 1 80 0
 440 0006 0D46     		mov	r5, r1
 441 0008 0446     		mov	r4, r0
 442              		.loc 1 83 0
 443 000a 20D1     		bne	.L68
 444              		.loc 1 91 0
 445 000c 0369     		ldr	r3, [r0, #16]
 446 000e 002B     		cmp	r3, #0
 447 0010 41D0     		beq	.L33
 448              		.loc 1 92 0
 449 0012 CA06     		lsls	r2, r1, #27
 450 0014 05D5     		bpl	.L41
ARM GAS  /tmp/ccRfa0ZT.s 			page 9


 451              		.loc 1 94 0
 452 0016 9B68     		ldr	r3, [r3, #8]
 453 0018 1BB1     		cbz	r3, .L41
 454              		.loc 1 94 0 is_stmt 0 discriminator 1
 455 001a C268     		ldr	r2, [r0, #12]
 456 001c 8168     		ldr	r1, [r0, #8]
 457              	.LVL28:
 458 001e 5208     		lsrs	r2, r2, #1
 459 0020 9847     		blx	r3
 460              	.LVL29:
 461              	.L41:
 462              		.loc 1 96 0 is_stmt 1
 463 0022 AB06     		lsls	r3, r5, #26
 464 0024 37D5     		bpl	.L33
 465              		.loc 1 98 0
 466 0026 2069     		ldr	r0, [r4, #16]
 467 0028 0168     		ldr	r1, [r0, #0]
 468 002a 0029     		cmp	r1, #0
 469 002c 38D0     		beq	.L43
 470              		.loc 1 98 0 is_stmt 0 discriminator 1
 471 002e 8568     		ldr	r5, [r0, #8]
 472              	.LVL30:
 473 0030 002D     		cmp	r5, #0
 474 0032 30D0     		beq	.L33
 475              		.loc 1 98 0 discriminator 3
 476 0034 E268     		ldr	r2, [r4, #12]
 477 0036 012A     		cmp	r2, #1
 478 0038 2ED9     		bls	.L44
 479              	.LBB3:
 480              		.loc 1 98 0 discriminator 4
 481 003a 8088     		ldrh	r0, [r0, #4]
 482 003c A368     		ldr	r3, [r4, #8]
 483 003e 5208     		lsrs	r2, r2, #1
 484              	.LVL31:
 485 0040 00FB02F1 		mul	r1, r0, r2
 486 0044 03EB4101 		add	r1, r3, r1, lsl #1
 487 0048 2046     		mov	r0, r4
 488 004a A847     		blx	r5
 489              	.LVL32:
 490 004c 38BD     		pop	{r3, r4, r5, pc}
 491              	.LVL33:
 492              	.L68:
 493              	.LBE3:
 494              		.loc 1 86 0 is_stmt 1
 495 004e FFF7FEFF 		bl	adc_lld_stop_conversion
 496              	.LVL34:
 497 0052 2569     		ldr	r5, [r4, #16]
 498              	.LVL35:
 499 0054 EB68     		ldr	r3, [r5, #12]
 500 0056 4BB1     		cbz	r3, .L36
 501              		.loc 1 86 0 is_stmt 0 discriminator 1
 502 0058 0522     		movs	r2, #5
 503 005a 2046     		mov	r0, r4
 504 005c 0021     		movs	r1, #0
 505 005e 2270     		strb	r2, [r4, #0]
 506 0060 9847     		blx	r3
 507              	.LVL36:
ARM GAS  /tmp/ccRfa0ZT.s 			page 10


 508 0062 2078     		ldrb	r0, [r4, #0]	@ zero_extendqisi2
 509 0064 0528     		cmp	r0, #5
 510 0066 01D1     		bne	.L36
 511              		.loc 1 86 0 discriminator 3
 512 0068 0221     		movs	r1, #2
 513 006a 2170     		strb	r1, [r4, #0]
 514              	.L36:
 515              		.loc 1 86 0 discriminator 2
 516 006c 0025     		movs	r5, #0
 517 006e 2561     		str	r5, [r4, #16]
 518              	.LBB4:
 519 0070 2023     		movs	r3, #32
 520              	.LVL37:
 521              	@ 86 "/home/gokul/ChibiOS_2.5.0/os/hal/platforms/STM32F4xx/adc_lld.c" 1
 522 0072 83F31188 		msr     BASEPRI, r3
 523              	@ 0 "" 2
 524              	.LVL38:
 525              		.thumb
 526              	.LBE4:
 527 0076 FFF7FEFF 		bl	dbg_check_lock_from_isr
 528              	.LVL39:
 529 007a 6369     		ldr	r3, [r4, #20]
 530 007c 33B1     		cbz	r3, .L49
 531              	.LVL40:
 532              	.LBB5:
 533              		.loc 1 86 0 discriminator 4
 534 007e 4FF0FF32 		mov	r2, #-1
 535 0082 6561     		str	r5, [r4, #20]
 536 0084 1846     		mov	r0, r3
 537 0086 9A62     		str	r2, [r3, #40]
 538 0088 FFF7FEFF 		bl	chSchReadyI
 539              	.LVL41:
 540              	.L49:
 541              	.LBE5:
 542              		.loc 1 98 0 is_stmt 1 discriminator 14
 543 008c FFF7FEFF 		bl	dbg_check_unlock_from_isr
 544              	.LVL42:
 545              	.LBB6:
 546 0090 0023     		movs	r3, #0
 547              	.LVL43:
 548              	@ 98 "/home/gokul/ChibiOS_2.5.0/os/hal/platforms/STM32F4xx/adc_lld.c" 1
 549 0092 83F31188 		msr     BASEPRI, r3
 550              	@ 0 "" 2
 551              	.LVL44:
 552              		.thumb
 553              	.L33:
 554 0096 38BD     		pop	{r3, r4, r5, pc}
 555              	.LVL45:
 556              	.L44:
 557              	.LBE6:
 558              		.loc 1 98 0 is_stmt 0 discriminator 5
 559 0098 2046     		mov	r0, r4
 560 009a A168     		ldr	r1, [r4, #8]
 561 009c A847     		blx	r5
 562              	.LVL46:
 563 009e 38BD     		pop	{r3, r4, r5, pc}
 564              	.LVL47:
ARM GAS  /tmp/ccRfa0ZT.s 			page 11


 565              	.L43:
 566              		.loc 1 98 0 discriminator 2
 567 00a0 2046     		mov	r0, r4
 568 00a2 FFF7FEFF 		bl	adc_lld_stop_conversion
 569              	.LVL48:
 570 00a6 2569     		ldr	r5, [r4, #16]
 571              	.LVL49:
 572 00a8 AB68     		ldr	r3, [r5, #8]
 573 00aa 03B3     		cbz	r3, .L45
 574              		.loc 1 98 0 discriminator 6
 575 00ac E268     		ldr	r2, [r4, #12]
 576 00ae 0420     		movs	r0, #4
 577 00b0 012A     		cmp	r2, #1
 578 00b2 2070     		strb	r0, [r4, #0]
 579 00b4 1ED9     		bls	.L46
 580              	.LBB7:
 581              		.loc 1 98 0 discriminator 8
 582 00b6 AD88     		ldrh	r5, [r5, #4]
 583 00b8 A168     		ldr	r1, [r4, #8]
 584 00ba 5208     		lsrs	r2, r2, #1
 585              	.LVL50:
 586 00bc 05FB02F5 		mul	r5, r5, r2
 587 00c0 2046     		mov	r0, r4
 588 00c2 01EB4501 		add	r1, r1, r5, lsl #1
 589 00c6 9847     		blx	r3
 590              	.LVL51:
 591              	.L47:
 592              	.LBE7:
 593              		.loc 1 98 0 discriminator 10
 594 00c8 2278     		ldrb	r2, [r4, #0]	@ zero_extendqisi2
 595 00ca 042A     		cmp	r2, #4
 596 00cc 0FD0     		beq	.L45
 597              	.L48:
 598              		.loc 1 98 0 discriminator 12
 599 00ce 0025     		movs	r5, #0
 600 00d0 2561     		str	r5, [r4, #16]
 601              	.LBB8:
 602 00d2 2023     		movs	r3, #32
 603              	.LVL52:
 604              	@ 98 "/home/gokul/ChibiOS_2.5.0/os/hal/platforms/STM32F4xx/adc_lld.c" 1
 605 00d4 83F31188 		msr     BASEPRI, r3
 606              	@ 0 "" 2
 607              	.LVL53:
 608              		.thumb
 609              	.LBE8:
 610 00d8 FFF7FEFF 		bl	dbg_check_lock_from_isr
 611              	.LVL54:
 612 00dc 6169     		ldr	r1, [r4, #20]
 613 00de 0029     		cmp	r1, #0
 614 00e0 D4D0     		beq	.L49
 615              	.LVL55:
 616              	.LBB9:
 617              		.loc 1 98 0 discriminator 13
 618 00e2 6561     		str	r5, [r4, #20]
 619 00e4 0846     		mov	r0, r1
 620 00e6 8D62     		str	r5, [r1, #40]
 621 00e8 FFF7FEFF 		bl	chSchReadyI
ARM GAS  /tmp/ccRfa0ZT.s 			page 12


 622              	.LVL56:
 623 00ec CEE7     		b	.L49
 624              	.L45:
 625              	.LBE9:
 626              		.loc 1 98 0 discriminator 7
 627 00ee 0223     		movs	r3, #2
 628 00f0 2370     		strb	r3, [r4, #0]
 629 00f2 ECE7     		b	.L48
 630              	.L46:
 631              		.loc 1 98 0 discriminator 9
 632 00f4 2046     		mov	r0, r4
 633 00f6 A168     		ldr	r1, [r4, #8]
 634 00f8 9847     		blx	r3
 635              	.LVL57:
 636 00fa E5E7     		b	.L47
 637              		.cfi_endproc
 638              	.LFE118:
 639              		.size	adc_lld_serve_rx_interrupt, .-adc_lld_serve_rx_interrupt
 640 00fc AFF30080 		.section	.text.Vector88,"ax",%progbits
 641              		.align	2
 642              		.p2align 4,,15
 643              		.global	Vector88
 644              		.thumb
 645              		.thumb_func
 646              		.type	Vector88, %function
 647              	Vector88:
 648              	.LFB119:
 649              		.loc 1 115 0 is_stmt 1
 650              		.cfi_startproc
 651              		@ args = 0, pretend = 0, frame = 0
 652              		@ frame_needed = 0, uses_anonymous_args = 0
 653 0000 38B5     		push	{r3, r4, r5, lr}
 654              	.LCFI6:
 655              		.cfi_def_cfa_offset 16
 656              		.cfi_offset 3, -16
 657              		.cfi_offset 4, -12
 658              		.cfi_offset 5, -8
 659              		.cfi_offset 14, -4
 660              		.loc 1 118 0
 661 0002 FFF7FEFF 		bl	dbg_check_enter_isr
 662              	.LVL58:
 663              		.loc 1 121 0
 664 0006 4FF40053 		mov	r3, #8192
 665 000a C4F20103 		movt	r3, 16385
 666              		.loc 1 122 0
 667 000e 0021     		movs	r1, #0
 668              		.loc 1 121 0
 669 0010 1A68     		ldr	r2, [r3, #0]
 670              	.LVL59:
 671              		.loc 1 122 0
 672 0012 1960     		str	r1, [r3, #0]
 673              		.loc 1 125 0
 674 0014 9106     		lsls	r1, r2, #26
 675 0016 29D5     		bpl	.L70
 676              		.loc 1 125 0 is_stmt 0 discriminator 1
 677 0018 194C     		ldr	r4, .L88
 678 001a E06A     		ldr	r0, [r4, #44]
ARM GAS  /tmp/ccRfa0ZT.s 			page 13


 679 001c 0368     		ldr	r3, [r0, #0]
 680 001e 5A68     		ldr	r2, [r3, #4]
 681              	.LVL60:
 682 0020 22B3     		cbz	r2, .L70
 683              		.loc 1 128 0 is_stmt 1
 684 0022 2169     		ldr	r1, [r4, #16]
 685 0024 11B3     		cbz	r1, .L70
 686              		.loc 1 129 0
 687 0026 2046     		mov	r0, r4
 688 0028 FFF7FEFF 		bl	adc_lld_stop_conversion
 689              	.LVL61:
 690 002c 2569     		ldr	r5, [r4, #16]
 691 002e EB68     		ldr	r3, [r5, #12]
 692 0030 3BB1     		cbz	r3, .L72
 693              		.loc 1 129 0 is_stmt 0 discriminator 1
 694 0032 0520     		movs	r0, #5
 695 0034 2070     		strb	r0, [r4, #0]
 696 0036 0121     		movs	r1, #1
 697 0038 2046     		mov	r0, r4
 698 003a 9847     		blx	r3
 699              	.LVL62:
 700 003c 2278     		ldrb	r2, [r4, #0]	@ zero_extendqisi2
 701 003e 052A     		cmp	r2, #5
 702 0040 1AD0     		beq	.L87
 703              	.L72:
 704              		.loc 1 129 0 discriminator 2
 705 0042 0025     		movs	r5, #0
 706 0044 2561     		str	r5, [r4, #16]
 707              	.LBB10:
 708 0046 2023     		movs	r3, #32
 709              	.LVL63:
 710              	@ 129 "/home/gokul/ChibiOS_2.5.0/os/hal/platforms/STM32F4xx/adc_lld.c" 1
 711 0048 83F31188 		msr     BASEPRI, r3
 712              	@ 0 "" 2
 713              	.LVL64:
 714              		.thumb
 715              	.LBE10:
 716 004c FFF7FEFF 		bl	dbg_check_lock_from_isr
 717              	.LVL65:
 718 0050 6069     		ldr	r0, [r4, #20]
 719 0052 30B1     		cbz	r0, .L74
 720              	.LVL66:
 721              	.LBB11:
 722              		.loc 1 129 0 discriminator 4
 723 0054 4FF0FF33 		mov	r3, #-1
 724 0058 094A     		ldr	r2, .L88
 725 005a 8362     		str	r3, [r0, #40]
 726 005c 5561     		str	r5, [r2, #20]
 727 005e FFF7FEFF 		bl	chSchReadyI
 728              	.LVL67:
 729              	.L74:
 730              	.LBE11:
 731              		.loc 1 129 0 discriminator 5
 732 0062 FFF7FEFF 		bl	dbg_check_unlock_from_isr
 733              	.LVL68:
 734              	.LBB12:
 735 0066 0023     		movs	r3, #0
ARM GAS  /tmp/ccRfa0ZT.s 			page 14


 736              	.LVL69:
 737              	@ 129 "/home/gokul/ChibiOS_2.5.0/os/hal/platforms/STM32F4xx/adc_lld.c" 1
 738 0068 83F31188 		msr     BASEPRI, r3
 739              	@ 0 "" 2
 740              	.LVL70:
 741              		.thumb
 742              	.L70:
 743              	.LBE12:
 744              		.loc 1 162 0 is_stmt 1
 745 006c FFF7FEFF 		bl	dbg_check_leave_isr
 746              	.LVL71:
 747              		.loc 1 163 0
 748 0070 BDE83840 		pop	{r3, r4, r5, lr}
 749              		.loc 1 162 0
 750 0074 FFF7FEBF 		b	_port_irq_epilogue
 751              	.LVL72:
 752              	.L87:
 753              		.loc 1 129 0 discriminator 3
 754 0078 0221     		movs	r1, #2
 755 007a 2170     		strb	r1, [r4, #0]
 756 007c E1E7     		b	.L72
 757              	.L89:
 758 007e 00BF     		.align	2
 759              	.L88:
 760 0080 00000000 		.word	.LANCHOR0
 761              		.cfi_endproc
 762              	.LFE119:
 763              		.size	Vector88, .-Vector88
 764 0084 AFF30080 		.section	.text.adcSTM32EnableTSVREFE,"ax",%progbits
 764      AFF30080 
 764      AFF30080 
 765              		.align	2
 766              		.p2align 4,,15
 767              		.global	adcSTM32EnableTSVREFE
 768              		.thumb
 769              		.thumb_func
 770              		.type	adcSTM32EnableTSVREFE, %function
 771              	adcSTM32EnableTSVREFE:
 772              	.LFB125:
 773              		.loc 1 376 0
 774              		.cfi_startproc
 775              		@ args = 0, pretend = 0, frame = 0
 776              		@ frame_needed = 0, uses_anonymous_args = 0
 777              		@ link register save eliminated.
 778              		.loc 1 378 0
 779 0000 4FF40C53 		mov	r3, #8960
 780 0004 C4F20103 		movt	r3, 16385
 781 0008 5A68     		ldr	r2, [r3, #4]
 782 000a 42F40000 		orr	r0, r2, #8388608
 783 000e 5860     		str	r0, [r3, #4]
 784 0010 7047     		bx	lr
 785              		.cfi_endproc
 786              	.LFE125:
 787              		.size	adcSTM32EnableTSVREFE, .-adcSTM32EnableTSVREFE
 788              		.section	.text.adcSTM32DisableTSVREFE,"ax",%progbits
 789              		.align	2
 790              		.p2align 4,,15
ARM GAS  /tmp/ccRfa0ZT.s 			page 15


 791              		.global	adcSTM32DisableTSVREFE
 792              		.thumb
 793              		.thumb_func
 794              		.type	adcSTM32DisableTSVREFE, %function
 795              	adcSTM32DisableTSVREFE:
 796              	.LFB126:
 797              		.loc 1 387 0
 798              		.cfi_startproc
 799              		@ args = 0, pretend = 0, frame = 0
 800              		@ frame_needed = 0, uses_anonymous_args = 0
 801              		@ link register save eliminated.
 802              		.loc 1 389 0
 803 0000 4FF40C53 		mov	r3, #8960
 804 0004 C4F20103 		movt	r3, 16385
 805 0008 5A68     		ldr	r2, [r3, #4]
 806 000a 22F40000 		bic	r0, r2, #8388608
 807 000e 5860     		str	r0, [r3, #4]
 808 0010 7047     		bx	lr
 809              		.cfi_endproc
 810              	.LFE126:
 811              		.size	adcSTM32DisableTSVREFE, .-adcSTM32DisableTSVREFE
 812              		.section	.text.adcSTM32EnableVBATE,"ax",%progbits
 813              		.align	2
 814              		.p2align 4,,15
 815              		.global	adcSTM32EnableVBATE
 816              		.thumb
 817              		.thumb_func
 818              		.type	adcSTM32EnableVBATE, %function
 819              	adcSTM32EnableVBATE:
 820              	.LFB127:
 821              		.loc 1 397 0
 822              		.cfi_startproc
 823              		@ args = 0, pretend = 0, frame = 0
 824              		@ frame_needed = 0, uses_anonymous_args = 0
 825              		@ link register save eliminated.
 826              		.loc 1 399 0
 827 0000 4FF40C53 		mov	r3, #8960
 828 0004 C4F20103 		movt	r3, 16385
 829 0008 5A68     		ldr	r2, [r3, #4]
 830 000a 42F48000 		orr	r0, r2, #4194304
 831 000e 5860     		str	r0, [r3, #4]
 832 0010 7047     		bx	lr
 833              		.cfi_endproc
 834              	.LFE127:
 835              		.size	adcSTM32EnableVBATE, .-adcSTM32EnableVBATE
 836              		.section	.text.adcSTM32DisableVBATE,"ax",%progbits
 837              		.align	2
 838              		.p2align 4,,15
 839              		.global	adcSTM32DisableVBATE
 840              		.thumb
 841              		.thumb_func
 842              		.type	adcSTM32DisableVBATE, %function
 843              	adcSTM32DisableVBATE:
 844              	.LFB128:
 845              		.loc 1 407 0
 846              		.cfi_startproc
 847              		@ args = 0, pretend = 0, frame = 0
ARM GAS  /tmp/ccRfa0ZT.s 			page 16


 848              		@ frame_needed = 0, uses_anonymous_args = 0
 849              		@ link register save eliminated.
 850              		.loc 1 409 0
 851 0000 4FF40C53 		mov	r3, #8960
 852 0004 C4F20103 		movt	r3, 16385
 853 0008 5A68     		ldr	r2, [r3, #4]
 854 000a 22F48000 		bic	r0, r2, #4194304
 855 000e 5860     		str	r0, [r3, #4]
 856 0010 7047     		bx	lr
 857              		.cfi_endproc
 858              	.LFE128:
 859              		.size	adcSTM32DisableVBATE, .-adcSTM32DisableVBATE
 860              		.global	ADCD1
 861 0012 00BFAFF3 		.section	.bss.ADCD1,"aw",%nobits
 861      0080AFF3 
 861      0080AFF3 
 861      0080
 862              		.align	2
 863              		.set	.LANCHOR0,. + 0
 864              		.type	ADCD1, %object
 865              		.size	ADCD1, 52
 866              	ADCD1:
 867 0000 00000000 		.space	52
 867      00000000 
 867      00000000 
 867      00000000 
 867      00000000 
 868              		.section	.rodata.str1.4,"aMS",%progbits,1
 869              		.align	2
 870              	.LC0:
 871 0000 6164635F 		.ascii	"adc_lld_start(), #1\000"
 871      6C6C645F 
 871      73746172 
 871      7428292C 
 871      20233100 
 872              		.text
 873              	.Letext0:
 874              		.file 2 "/opt/gcc-arm-none-eabi-4_7-2013q1/bin/../lib/gcc/arm-none-eabi/4.7.3/include/stddef.h"
 875              		.file 3 "/opt/gcc-arm-none-eabi-4_7-2013q1/bin/../lib/gcc/arm-none-eabi/4.7.3/../../../../arm-none
 876              		.file 4 "/home/gokul/ChibiOS_2.5.0/os/ports/GCC/ARMCMx/chtypes.h"
 877              		.file 5 "/home/gokul/ChibiOS_2.5.0/os/kernel/include/chlists.h"
 878              		.file 6 "/home/gokul/ChibiOS_2.5.0/os/kernel/include/chthreads.h"
 879              		.file 7 "/home/gokul/ChibiOS_2.5.0/os/ports/GCC/ARMCMx/chcore_v7m.h"
 880              		.file 8 "/home/gokul/ChibiOS_2.5.0/os/kernel/include/chmtx.h"
 881              		.file 9 "/home/gokul/ChibiOS_2.5.0/os/hal/platforms/STM32F4xx/stm32f4xx.h"
 882              		.file 10 "/home/gokul/ChibiOS_2.5.0/os/hal/platforms/STM32F4xx/stm32_dma.h"
 883              		.file 11 "/home/gokul/ChibiOS_2.5.0/os/hal/include/adc.h"
 884              		.file 12 "/home/gokul/ChibiOS_2.5.0/os/hal/platforms/STM32F4xx/adc_lld.h"
 885              		.file 13 "/home/gokul/ChibiOS_2.5.0/os/ports/common/ARMCMx/CMSIS/include/core_cm4.h"
 886              		.file 14 "/home/gokul/ChibiOS_2.5.0/os/ports/common/ARMCMx/nvic.h"
 887              		.file 15 "/home/gokul/ChibiOS_2.5.0/os/kernel/include/chdebug.h"
 888              		.file 16 "/home/gokul/ChibiOS_2.5.0/os/kernel/include/chschd.h"
 889              		.section	.debug_info,"",%progbits
 890              	.Ldebug_info0:
 891 0000 AD120000 		.4byte	0x12ad
 892 0004 0200     		.2byte	0x2
 893 0006 00000000 		.4byte	.Ldebug_abbrev0
ARM GAS  /tmp/ccRfa0ZT.s 			page 17


 894 000a 04       		.byte	0x4
 895 000b 01       		.uleb128 0x1
 896 000c 3A030000 		.4byte	.LASF271
 897 0010 01       		.byte	0x1
 898 0011 0C010000 		.4byte	.LASF272
 899 0015 00000000 		.4byte	.Ldebug_ranges0+0
 900 0019 00000000 		.4byte	0
 901 001d 00000000 		.4byte	0
 902 0021 00000000 		.4byte	.Ldebug_line0
 903 0025 02       		.uleb128 0x2
 904 0026 04       		.byte	0x4
 905 0027 05       		.byte	0x5
 906 0028 696E7400 		.ascii	"int\000"
 907 002c 03       		.uleb128 0x3
 908 002d 05000000 		.4byte	.LASF2
 909 0031 02       		.byte	0x2
 910 0032 D5       		.byte	0xd5
 911 0033 37000000 		.4byte	0x37
 912 0037 04       		.uleb128 0x4
 913 0038 04       		.byte	0x4
 914 0039 07       		.byte	0x7
 915 003a A4070000 		.4byte	.LASF0
 916 003e 04       		.uleb128 0x4
 917 003f 01       		.byte	0x1
 918 0040 06       		.byte	0x6
 919 0041 A4020000 		.4byte	.LASF1
 920 0045 03       		.uleb128 0x3
 921 0046 BA020000 		.4byte	.LASF3
 922 004a 03       		.byte	0x3
 923 004b 2A       		.byte	0x2a
 924 004c 50000000 		.4byte	0x50
 925 0050 04       		.uleb128 0x4
 926 0051 01       		.byte	0x1
 927 0052 08       		.byte	0x8
 928 0053 FC020000 		.4byte	.LASF4
 929 0057 04       		.uleb128 0x4
 930 0058 02       		.byte	0x2
 931 0059 05       		.byte	0x5
 932 005a B20A0000 		.4byte	.LASF5
 933 005e 03       		.uleb128 0x3
 934 005f 55090000 		.4byte	.LASF6
 935 0063 03       		.byte	0x3
 936 0064 36       		.byte	0x36
 937 0065 69000000 		.4byte	0x69
 938 0069 04       		.uleb128 0x4
 939 006a 02       		.byte	0x2
 940 006b 07       		.byte	0x7
 941 006c EB0B0000 		.4byte	.LASF7
 942 0070 03       		.uleb128 0x3
 943 0071 8B000000 		.4byte	.LASF8
 944 0075 03       		.byte	0x3
 945 0076 4F       		.byte	0x4f
 946 0077 7B000000 		.4byte	0x7b
 947 007b 04       		.uleb128 0x4
 948 007c 04       		.byte	0x4
 949 007d 05       		.byte	0x5
 950 007e E8010000 		.4byte	.LASF9
ARM GAS  /tmp/ccRfa0ZT.s 			page 18


 951 0082 03       		.uleb128 0x3
 952 0083 8D0B0000 		.4byte	.LASF10
 953 0087 03       		.byte	0x3
 954 0088 50       		.byte	0x50
 955 0089 8D000000 		.4byte	0x8d
 956 008d 04       		.uleb128 0x4
 957 008e 04       		.byte	0x4
 958 008f 07       		.byte	0x7
 959 0090 8D050000 		.4byte	.LASF11
 960 0094 04       		.uleb128 0x4
 961 0095 08       		.byte	0x8
 962 0096 05       		.byte	0x5
 963 0097 BC060000 		.4byte	.LASF12
 964 009b 03       		.uleb128 0x3
 965 009c BC0A0000 		.4byte	.LASF13
 966 00a0 03       		.byte	0x3
 967 00a1 78       		.byte	0x78
 968 00a2 A6000000 		.4byte	0xa6
 969 00a6 04       		.uleb128 0x4
 970 00a7 08       		.byte	0x8
 971 00a8 07       		.byte	0x7
 972 00a9 36090000 		.4byte	.LASF14
 973 00ad 03       		.uleb128 0x3
 974 00ae FD0A0000 		.4byte	.LASF15
 975 00b2 04       		.byte	0x4
 976 00b3 27       		.byte	0x27
 977 00b4 70000000 		.4byte	0x70
 978 00b8 03       		.uleb128 0x3
 979 00b9 210A0000 		.4byte	.LASF16
 980 00bd 04       		.byte	0x4
 981 00be 28       		.byte	0x28
 982 00bf 45000000 		.4byte	0x45
 983 00c3 03       		.uleb128 0x3
 984 00c4 19020000 		.4byte	.LASF17
 985 00c8 04       		.byte	0x4
 986 00c9 29       		.byte	0x29
 987 00ca 45000000 		.4byte	0x45
 988 00ce 03       		.uleb128 0x3
 989 00cf 4D0B0000 		.4byte	.LASF18
 990 00d3 04       		.byte	0x4
 991 00d4 2A       		.byte	0x2a
 992 00d5 45000000 		.4byte	0x45
 993 00d9 03       		.uleb128 0x3
 994 00da 7A090000 		.4byte	.LASF19
 995 00de 04       		.byte	0x4
 996 00df 2B       		.byte	0x2b
 997 00e0 45000000 		.4byte	0x45
 998 00e4 03       		.uleb128 0x3
 999 00e5 5B000000 		.4byte	.LASF20
 1000 00e9 04       		.byte	0x4
 1001 00ea 2C       		.byte	0x2c
 1002 00eb 82000000 		.4byte	0x82
 1003 00ef 03       		.uleb128 0x3
 1004 00f0 5E090000 		.4byte	.LASF21
 1005 00f4 04       		.byte	0x4
 1006 00f5 2D       		.byte	0x2d
 1007 00f6 70000000 		.4byte	0x70
ARM GAS  /tmp/ccRfa0ZT.s 			page 19


 1008 00fa 03       		.uleb128 0x3
 1009 00fb C2020000 		.4byte	.LASF22
 1010 00ff 04       		.byte	0x4
 1011 0100 2F       		.byte	0x2f
 1012 0101 82000000 		.4byte	0x82
 1013 0105 03       		.uleb128 0x3
 1014 0106 40000000 		.4byte	.LASF23
 1015 010a 04       		.byte	0x4
 1016 010b 30       		.byte	0x30
 1017 010c 82000000 		.4byte	0x82
 1018 0110 03       		.uleb128 0x3
 1019 0111 210B0000 		.4byte	.LASF24
 1020 0115 05       		.byte	0x5
 1021 0116 23       		.byte	0x23
 1022 0117 1B010000 		.4byte	0x11b
 1023 011b 05       		.uleb128 0x5
 1024 011c 210B0000 		.4byte	.LASF24
 1025 0120 4C       		.byte	0x4c
 1026 0121 06       		.byte	0x6
 1027 0122 57       		.byte	0x57
 1028 0123 4E020000 		.4byte	0x24e
 1029 0127 06       		.uleb128 0x6
 1030 0128 F1010000 		.4byte	.LASF25
 1031 012c 06       		.byte	0x6
 1032 012d 58       		.byte	0x58
 1033 012e 73020000 		.4byte	0x273
 1034 0132 02       		.byte	0x2
 1035 0133 23       		.byte	0x23
 1036 0134 00       		.uleb128 0
 1037 0135 06       		.uleb128 0x6
 1038 0136 F8010000 		.4byte	.LASF26
 1039 013a 06       		.byte	0x6
 1040 013b 5A       		.byte	0x5a
 1041 013c 73020000 		.4byte	0x273
 1042 0140 02       		.byte	0x2
 1043 0141 23       		.byte	0x23
 1044 0142 04       		.uleb128 0x4
 1045 0143 06       		.uleb128 0x6
 1046 0144 0F040000 		.4byte	.LASF27
 1047 0148 06       		.byte	0x6
 1048 0149 5C       		.byte	0x5c
 1049 014a E4000000 		.4byte	0xe4
 1050 014e 02       		.byte	0x2
 1051 014f 23       		.byte	0x23
 1052 0150 08       		.uleb128 0x8
 1053 0151 06       		.uleb128 0x6
 1054 0152 55000000 		.4byte	.LASF28
 1055 0156 06       		.byte	0x6
 1056 0157 5D       		.byte	0x5d
 1057 0158 4C030000 		.4byte	0x34c
 1058 015c 02       		.byte	0x2
 1059 015d 23       		.byte	0x23
 1060 015e 0C       		.uleb128 0xc
 1061 015f 06       		.uleb128 0x6
 1062 0160 E0010000 		.4byte	.LASF29
 1063 0164 06       		.byte	0x6
 1064 0165 5F       		.byte	0x5f
ARM GAS  /tmp/ccRfa0ZT.s 			page 20


 1065 0166 73020000 		.4byte	0x273
 1066 016a 02       		.byte	0x2
 1067 016b 23       		.byte	0x23
 1068 016c 10       		.uleb128 0x10
 1069 016d 06       		.uleb128 0x6
 1070 016e 4D090000 		.4byte	.LASF30
 1071 0172 06       		.byte	0x6
 1072 0173 60       		.byte	0x60
 1073 0174 73020000 		.4byte	0x273
 1074 0178 02       		.byte	0x2
 1075 0179 23       		.byte	0x23
 1076 017a 14       		.uleb128 0x14
 1077 017b 06       		.uleb128 0x6
 1078 017c 7D0C0000 		.4byte	.LASF31
 1079 0180 06       		.byte	0x6
 1080 0181 67       		.byte	0x67
 1081 0182 FD030000 		.4byte	0x3fd
 1082 0186 02       		.byte	0x2
 1083 0187 23       		.byte	0x23
 1084 0188 18       		.uleb128 0x18
 1085 0189 06       		.uleb128 0x6
 1086 018a 3F0C0000 		.4byte	.LASF32
 1087 018e 06       		.byte	0x6
 1088 018f 6D       		.byte	0x6d
 1089 0190 0F040000 		.4byte	0x40f
 1090 0194 02       		.byte	0x2
 1091 0195 23       		.byte	0x23
 1092 0196 1C       		.uleb128 0x1c
 1093 0197 06       		.uleb128 0x6
 1094 0198 CC0C0000 		.4byte	.LASF33
 1095 019c 06       		.byte	0x6
 1096 019d 72       		.byte	0x72
 1097 019e C3000000 		.4byte	0xc3
 1098 01a2 02       		.byte	0x2
 1099 01a3 23       		.byte	0x23
 1100 01a4 20       		.uleb128 0x20
 1101 01a5 06       		.uleb128 0x6
 1102 01a6 92070000 		.4byte	.LASF34
 1103 01aa 06       		.byte	0x6
 1104 01ab 76       		.byte	0x76
 1105 01ac B8000000 		.4byte	0xb8
 1106 01b0 02       		.byte	0x2
 1107 01b1 23       		.byte	0x23
 1108 01b2 21       		.uleb128 0x21
 1109 01b3 06       		.uleb128 0x6
 1110 01b4 E7070000 		.4byte	.LASF35
 1111 01b8 06       		.byte	0x6
 1112 01b9 7B       		.byte	0x7b
 1113 01ba CE000000 		.4byte	0xce
 1114 01be 02       		.byte	0x2
 1115 01bf 23       		.byte	0x23
 1116 01c0 22       		.uleb128 0x22
 1117 01c1 06       		.uleb128 0x6
 1118 01c2 B0020000 		.4byte	.LASF36
 1119 01c6 06       		.byte	0x6
 1120 01c7 81       		.byte	0x81
 1121 01c8 D9000000 		.4byte	0xd9
ARM GAS  /tmp/ccRfa0ZT.s 			page 21


 1122 01cc 02       		.byte	0x2
 1123 01cd 23       		.byte	0x23
 1124 01ce 23       		.uleb128 0x23
 1125 01cf 06       		.uleb128 0x6
 1126 01d0 86080000 		.4byte	.LASF37
 1127 01d4 06       		.byte	0x6
 1128 01d5 88       		.byte	0x88
 1129 01d6 7B030000 		.4byte	0x37b
 1130 01da 02       		.byte	0x2
 1131 01db 23       		.byte	0x23
 1132 01dc 24       		.uleb128 0x24
 1133 01dd 07       		.uleb128 0x7
 1134 01de 705F7500 		.ascii	"p_u\000"
 1135 01e2 06       		.byte	0x6
 1136 01e3 AD       		.byte	0xad
 1137 01e4 C8030000 		.4byte	0x3c8
 1138 01e8 02       		.byte	0x2
 1139 01e9 23       		.byte	0x23
 1140 01ea 28       		.uleb128 0x28
 1141 01eb 06       		.uleb128 0x6
 1142 01ec 77070000 		.4byte	.LASF38
 1143 01f0 06       		.byte	0x6
 1144 01f1 B2       		.byte	0xb2
 1145 01f2 9B020000 		.4byte	0x29b
 1146 01f6 02       		.byte	0x2
 1147 01f7 23       		.byte	0x23
 1148 01f8 2C       		.uleb128 0x2c
 1149 01f9 06       		.uleb128 0x6
 1150 01fa 80000000 		.4byte	.LASF39
 1151 01fe 06       		.byte	0x6
 1152 01ff B8       		.byte	0xb8
 1153 0200 79020000 		.4byte	0x279
 1154 0204 02       		.byte	0x2
 1155 0205 23       		.byte	0x23
 1156 0206 30       		.uleb128 0x30
 1157 0207 06       		.uleb128 0x6
 1158 0208 BC0C0000 		.4byte	.LASF40
 1159 020c 06       		.byte	0x6
 1160 020d BC       		.byte	0xbc
 1161 020e EF000000 		.4byte	0xef
 1162 0212 02       		.byte	0x2
 1163 0213 23       		.byte	0x23
 1164 0214 38       		.uleb128 0x38
 1165 0215 06       		.uleb128 0x6
 1166 0216 E4040000 		.4byte	.LASF41
 1167 021a 06       		.byte	0x6
 1168 021b C2       		.byte	0xc2
 1169 021c FA000000 		.4byte	0xfa
 1170 0220 02       		.byte	0x2
 1171 0221 23       		.byte	0x23
 1172 0222 3C       		.uleb128 0x3c
 1173 0223 06       		.uleb128 0x6
 1174 0224 2B020000 		.4byte	.LASF42
 1175 0228 06       		.byte	0x6
 1176 0229 C9       		.byte	0xc9
 1177 022a 15040000 		.4byte	0x415
 1178 022e 02       		.byte	0x2
ARM GAS  /tmp/ccRfa0ZT.s 			page 22


 1179 022f 23       		.byte	0x23
 1180 0230 40       		.uleb128 0x40
 1181 0231 06       		.uleb128 0x6
 1182 0232 AD080000 		.4byte	.LASF43
 1183 0236 06       		.byte	0x6
 1184 0237 CD       		.byte	0xcd
 1185 0238 E4000000 		.4byte	0xe4
 1186 023c 02       		.byte	0x2
 1187 023d 23       		.byte	0x23
 1188 023e 44       		.uleb128 0x44
 1189 023f 06       		.uleb128 0x6
 1190 0240 D2070000 		.4byte	.LASF44
 1191 0244 06       		.byte	0x6
 1192 0245 D3       		.byte	0xd3
 1193 0246 B1020000 		.4byte	0x2b1
 1194 024a 02       		.byte	0x2
 1195 024b 23       		.byte	0x23
 1196 024c 48       		.uleb128 0x48
 1197 024d 00       		.byte	0
 1198 024e 08       		.uleb128 0x8
 1199 024f 08       		.byte	0x8
 1200 0250 05       		.byte	0x5
 1201 0251 5A       		.byte	0x5a
 1202 0252 73020000 		.4byte	0x273
 1203 0256 06       		.uleb128 0x6
 1204 0257 F1010000 		.4byte	.LASF25
 1205 025b 05       		.byte	0x5
 1206 025c 5B       		.byte	0x5b
 1207 025d 73020000 		.4byte	0x273
 1208 0261 02       		.byte	0x2
 1209 0262 23       		.byte	0x23
 1210 0263 00       		.uleb128 0
 1211 0264 06       		.uleb128 0x6
 1212 0265 F8010000 		.4byte	.LASF26
 1213 0269 05       		.byte	0x5
 1214 026a 5D       		.byte	0x5d
 1215 026b 73020000 		.4byte	0x273
 1216 026f 02       		.byte	0x2
 1217 0270 23       		.byte	0x23
 1218 0271 04       		.uleb128 0x4
 1219 0272 00       		.byte	0
 1220 0273 09       		.uleb128 0x9
 1221 0274 04       		.byte	0x4
 1222 0275 10010000 		.4byte	0x110
 1223 0279 03       		.uleb128 0x3
 1224 027a A40B0000 		.4byte	.LASF45
 1225 027e 05       		.byte	0x5
 1226 027f 5F       		.byte	0x5f
 1227 0280 4E020000 		.4byte	0x24e
 1228 0284 08       		.uleb128 0x8
 1229 0285 04       		.byte	0x4
 1230 0286 05       		.byte	0x5
 1231 0287 64       		.byte	0x64
 1232 0288 9B020000 		.4byte	0x29b
 1233 028c 06       		.uleb128 0x6
 1234 028d F1010000 		.4byte	.LASF25
 1235 0291 05       		.byte	0x5
ARM GAS  /tmp/ccRfa0ZT.s 			page 23


 1236 0292 66       		.byte	0x66
 1237 0293 73020000 		.4byte	0x273
 1238 0297 02       		.byte	0x2
 1239 0298 23       		.byte	0x23
 1240 0299 00       		.uleb128 0
 1241 029a 00       		.byte	0
 1242 029b 03       		.uleb128 0x3
 1243 029c 0E080000 		.4byte	.LASF46
 1244 02a0 05       		.byte	0x5
 1245 02a1 69       		.byte	0x69
 1246 02a2 84020000 		.4byte	0x284
 1247 02a6 03       		.uleb128 0x3
 1248 02a7 4D020000 		.4byte	.LASF47
 1249 02ab 07       		.byte	0x7
 1250 02ac DE       		.byte	0xde
 1251 02ad B1020000 		.4byte	0x2b1
 1252 02b1 0A       		.uleb128 0xa
 1253 02b2 04       		.byte	0x4
 1254 02b3 03       		.uleb128 0x3
 1255 02b4 43040000 		.4byte	.LASF48
 1256 02b8 07       		.byte	0x7
 1257 02b9 E4       		.byte	0xe4
 1258 02ba 9B000000 		.4byte	0x9b
 1259 02be 0B       		.uleb128 0xb
 1260 02bf DD040000 		.4byte	.LASF49
 1261 02c3 24       		.byte	0x24
 1262 02c4 07       		.byte	0x7
 1263 02c5 0501     		.2byte	0x105
 1264 02c7 4C030000 		.4byte	0x34c
 1265 02cb 0C       		.uleb128 0xc
 1266 02cc 723400   		.ascii	"r4\000"
 1267 02cf 07       		.byte	0x7
 1268 02d0 1801     		.2byte	0x118
 1269 02d2 A6020000 		.4byte	0x2a6
 1270 02d6 02       		.byte	0x2
 1271 02d7 23       		.byte	0x23
 1272 02d8 00       		.uleb128 0
 1273 02d9 0C       		.uleb128 0xc
 1274 02da 723500   		.ascii	"r5\000"
 1275 02dd 07       		.byte	0x7
 1276 02de 1901     		.2byte	0x119
 1277 02e0 A6020000 		.4byte	0x2a6
 1278 02e4 02       		.byte	0x2
 1279 02e5 23       		.byte	0x23
 1280 02e6 04       		.uleb128 0x4
 1281 02e7 0C       		.uleb128 0xc
 1282 02e8 723600   		.ascii	"r6\000"
 1283 02eb 07       		.byte	0x7
 1284 02ec 1A01     		.2byte	0x11a
 1285 02ee A6020000 		.4byte	0x2a6
 1286 02f2 02       		.byte	0x2
 1287 02f3 23       		.byte	0x23
 1288 02f4 08       		.uleb128 0x8
 1289 02f5 0C       		.uleb128 0xc
 1290 02f6 723700   		.ascii	"r7\000"
 1291 02f9 07       		.byte	0x7
 1292 02fa 1B01     		.2byte	0x11b
ARM GAS  /tmp/ccRfa0ZT.s 			page 24


 1293 02fc A6020000 		.4byte	0x2a6
 1294 0300 02       		.byte	0x2
 1295 0301 23       		.byte	0x23
 1296 0302 0C       		.uleb128 0xc
 1297 0303 0C       		.uleb128 0xc
 1298 0304 723800   		.ascii	"r8\000"
 1299 0307 07       		.byte	0x7
 1300 0308 1C01     		.2byte	0x11c
 1301 030a A6020000 		.4byte	0x2a6
 1302 030e 02       		.byte	0x2
 1303 030f 23       		.byte	0x23
 1304 0310 10       		.uleb128 0x10
 1305 0311 0C       		.uleb128 0xc
 1306 0312 723900   		.ascii	"r9\000"
 1307 0315 07       		.byte	0x7
 1308 0316 1D01     		.2byte	0x11d
 1309 0318 A6020000 		.4byte	0x2a6
 1310 031c 02       		.byte	0x2
 1311 031d 23       		.byte	0x23
 1312 031e 14       		.uleb128 0x14
 1313 031f 0C       		.uleb128 0xc
 1314 0320 72313000 		.ascii	"r10\000"
 1315 0324 07       		.byte	0x7
 1316 0325 1E01     		.2byte	0x11e
 1317 0327 A6020000 		.4byte	0x2a6
 1318 032b 02       		.byte	0x2
 1319 032c 23       		.byte	0x23
 1320 032d 18       		.uleb128 0x18
 1321 032e 0C       		.uleb128 0xc
 1322 032f 72313100 		.ascii	"r11\000"
 1323 0333 07       		.byte	0x7
 1324 0334 1F01     		.2byte	0x11f
 1325 0336 A6020000 		.4byte	0x2a6
 1326 033a 02       		.byte	0x2
 1327 033b 23       		.byte	0x23
 1328 033c 1C       		.uleb128 0x1c
 1329 033d 0C       		.uleb128 0xc
 1330 033e 6C7200   		.ascii	"lr\000"
 1331 0341 07       		.byte	0x7
 1332 0342 2001     		.2byte	0x120
 1333 0344 A6020000 		.4byte	0x2a6
 1334 0348 02       		.byte	0x2
 1335 0349 23       		.byte	0x23
 1336 034a 20       		.uleb128 0x20
 1337 034b 00       		.byte	0
 1338 034c 0B       		.uleb128 0xb
 1339 034d CE020000 		.4byte	.LASF50
 1340 0351 04       		.byte	0x4
 1341 0352 07       		.byte	0x7
 1342 0353 2A01     		.2byte	0x12a
 1343 0355 69030000 		.4byte	0x369
 1344 0359 0C       		.uleb128 0xc
 1345 035a 72313300 		.ascii	"r13\000"
 1346 035e 07       		.byte	0x7
 1347 035f 2B01     		.2byte	0x12b
 1348 0361 69030000 		.4byte	0x369
 1349 0365 02       		.byte	0x2
ARM GAS  /tmp/ccRfa0ZT.s 			page 25


 1350 0366 23       		.byte	0x23
 1351 0367 00       		.uleb128 0
 1352 0368 00       		.byte	0
 1353 0369 09       		.uleb128 0x9
 1354 036a 04       		.byte	0x4
 1355 036b BE020000 		.4byte	0x2be
 1356 036f 0D       		.uleb128 0xd
 1357 0370 82000000 		.4byte	0x82
 1358 0374 04       		.uleb128 0x4
 1359 0375 04       		.byte	0x4
 1360 0376 07       		.byte	0x7
 1361 0377 29000000 		.4byte	.LASF51
 1362 037b 0D       		.uleb128 0xd
 1363 037c 05010000 		.4byte	0x105
 1364 0380 05       		.uleb128 0x5
 1365 0381 AC060000 		.4byte	.LASF52
 1366 0385 10       		.byte	0x10
 1367 0386 08       		.byte	0x8
 1368 0387 25       		.byte	0x25
 1369 0388 B7030000 		.4byte	0x3b7
 1370 038c 06       		.uleb128 0x6
 1371 038d EE060000 		.4byte	.LASF53
 1372 0391 08       		.byte	0x8
 1373 0392 26       		.byte	0x26
 1374 0393 79020000 		.4byte	0x279
 1375 0397 02       		.byte	0x2
 1376 0398 23       		.byte	0x23
 1377 0399 00       		.uleb128 0
 1378 039a 06       		.uleb128 0x6
 1379 039b 8D010000 		.4byte	.LASF54
 1380 039f 08       		.byte	0x8
 1381 03a0 28       		.byte	0x28
 1382 03a1 73020000 		.4byte	0x273
 1383 03a5 02       		.byte	0x2
 1384 03a6 23       		.byte	0x23
 1385 03a7 08       		.uleb128 0x8
 1386 03a8 06       		.uleb128 0x6
 1387 03a9 840C0000 		.4byte	.LASF55
 1388 03ad 08       		.byte	0x8
 1389 03ae 2A       		.byte	0x2a
 1390 03af B7030000 		.4byte	0x3b7
 1391 03b3 02       		.byte	0x2
 1392 03b4 23       		.byte	0x23
 1393 03b5 0C       		.uleb128 0xc
 1394 03b6 00       		.byte	0
 1395 03b7 09       		.uleb128 0x9
 1396 03b8 04       		.byte	0x4
 1397 03b9 80030000 		.4byte	0x380
 1398 03bd 03       		.uleb128 0x3
 1399 03be AC060000 		.4byte	.LASF52
 1400 03c2 08       		.byte	0x8
 1401 03c3 2C       		.byte	0x2c
 1402 03c4 80030000 		.4byte	0x380
 1403 03c8 0E       		.uleb128 0xe
 1404 03c9 04       		.byte	0x4
 1405 03ca 06       		.byte	0x6
 1406 03cb 8F       		.byte	0x8f
ARM GAS  /tmp/ccRfa0ZT.s 			page 26


 1407 03cc FD030000 		.4byte	0x3fd
 1408 03d0 0F       		.uleb128 0xf
 1409 03d1 D90B0000 		.4byte	.LASF56
 1410 03d5 06       		.byte	0x6
 1411 03d6 96       		.byte	0x96
 1412 03d7 EF000000 		.4byte	0xef
 1413 03db 0F       		.uleb128 0xf
 1414 03dc A1010000 		.4byte	.LASF57
 1415 03e0 06       		.byte	0x6
 1416 03e1 9D       		.byte	0x9d
 1417 03e2 EF000000 		.4byte	0xef
 1418 03e6 0F       		.uleb128 0xf
 1419 03e7 1E040000 		.4byte	.LASF58
 1420 03eb 06       		.byte	0x6
 1421 03ec A4       		.byte	0xa4
 1422 03ed B1020000 		.4byte	0x2b1
 1423 03f1 0F       		.uleb128 0xf
 1424 03f2 BB010000 		.4byte	.LASF59
 1425 03f6 06       		.byte	0x6
 1426 03f7 AB       		.byte	0xab
 1427 03f8 FA000000 		.4byte	0xfa
 1428 03fc 00       		.byte	0
 1429 03fd 09       		.uleb128 0x9
 1430 03fe 04       		.byte	0x4
 1431 03ff 03040000 		.4byte	0x403
 1432 0403 10       		.uleb128 0x10
 1433 0404 08040000 		.4byte	0x408
 1434 0408 04       		.uleb128 0x4
 1435 0409 01       		.byte	0x1
 1436 040a 08       		.byte	0x8
 1437 040b 03040000 		.4byte	.LASF60
 1438 040f 09       		.uleb128 0x9
 1439 0410 04       		.byte	0x4
 1440 0411 B3020000 		.4byte	0x2b3
 1441 0415 09       		.uleb128 0x9
 1442 0416 04       		.byte	0x4
 1443 0417 BD030000 		.4byte	0x3bd
 1444 041b 11       		.uleb128 0x11
 1445 041c 8D080000 		.4byte	.LASF273
 1446 0420 01       		.byte	0x1
 1447 0421 09       		.byte	0x9
 1448 0422 8C       		.byte	0x8c
 1449 0423 56060000 		.4byte	0x656
 1450 0427 12       		.uleb128 0x12
 1451 0428 6F050000 		.4byte	.LASF61
 1452 042c 72       		.sleb128 -14
 1453 042d 12       		.uleb128 0x12
 1454 042e AE050000 		.4byte	.LASF62
 1455 0432 74       		.sleb128 -12
 1456 0433 12       		.uleb128 0x12
 1457 0434 78060000 		.4byte	.LASF63
 1458 0438 75       		.sleb128 -11
 1459 0439 12       		.uleb128 0x12
 1460 043a F3030000 		.4byte	.LASF64
 1461 043e 76       		.sleb128 -10
 1462 043f 12       		.uleb128 0x12
 1463 0440 1E070000 		.4byte	.LASF65
ARM GAS  /tmp/ccRfa0ZT.s 			page 27


 1464 0444 7B       		.sleb128 -5
 1465 0445 12       		.uleb128 0x12
 1466 0446 640A0000 		.4byte	.LASF66
 1467 044a 7C       		.sleb128 -4
 1468 044b 12       		.uleb128 0x12
 1469 044c 200C0000 		.4byte	.LASF67
 1470 0450 7E       		.sleb128 -2
 1471 0451 12       		.uleb128 0x12
 1472 0452 75020000 		.4byte	.LASF68
 1473 0456 7F       		.sleb128 -1
 1474 0457 12       		.uleb128 0x12
 1475 0458 83050000 		.4byte	.LASF69
 1476 045c 00       		.sleb128 0
 1477 045d 12       		.uleb128 0x12
 1478 045e 030A0000 		.4byte	.LASF70
 1479 0462 01       		.sleb128 1
 1480 0463 12       		.uleb128 0x12
 1481 0464 C4050000 		.4byte	.LASF71
 1482 0468 02       		.sleb128 2
 1483 0469 12       		.uleb128 0x12
 1484 046a 690B0000 		.4byte	.LASF72
 1485 046e 03       		.sleb128 3
 1486 046f 12       		.uleb128 0x12
 1487 0470 EA000000 		.4byte	.LASF73
 1488 0474 04       		.sleb128 4
 1489 0475 12       		.uleb128 0x12
 1490 0476 C50A0000 		.4byte	.LASF74
 1491 047a 05       		.sleb128 5
 1492 047b 12       		.uleb128 0x12
 1493 047c 160A0000 		.4byte	.LASF75
 1494 0480 06       		.sleb128 6
 1495 0481 12       		.uleb128 0x12
 1496 0482 0F050000 		.4byte	.LASF76
 1497 0486 07       		.sleb128 7
 1498 0487 12       		.uleb128 0x12
 1499 0488 8F090000 		.4byte	.LASF77
 1500 048c 08       		.sleb128 8
 1501 048d 12       		.uleb128 0x12
 1502 048e 150C0000 		.4byte	.LASF78
 1503 0492 09       		.sleb128 9
 1504 0493 12       		.uleb128 0x12
 1505 0494 E00B0000 		.4byte	.LASF79
 1506 0498 0A       		.sleb128 10
 1507 0499 12       		.uleb128 0x12
 1508 049a C3080000 		.4byte	.LASF80
 1509 049e 0B       		.sleb128 11
 1510 049f 12       		.uleb128 0x12
 1511 04a0 2A080000 		.4byte	.LASF81
 1512 04a4 0C       		.sleb128 12
 1513 04a5 12       		.uleb128 0x12
 1514 04a6 D6020000 		.4byte	.LASF82
 1515 04aa 0D       		.sleb128 13
 1516 04ab 12       		.uleb128 0x12
 1517 04ac EB0A0000 		.4byte	.LASF83
 1518 04b0 0E       		.sleb128 14
 1519 04b1 12       		.uleb128 0x12
 1520 04b2 290A0000 		.4byte	.LASF84
ARM GAS  /tmp/ccRfa0ZT.s 			page 28


 1521 04b6 0F       		.sleb128 15
 1522 04b7 12       		.uleb128 0x12
 1523 04b8 27050000 		.4byte	.LASF85
 1524 04bc 10       		.sleb128 16
 1525 04bd 12       		.uleb128 0x12
 1526 04be 92080000 		.4byte	.LASF86
 1527 04c2 11       		.sleb128 17
 1528 04c3 12       		.uleb128 0x12
 1529 04c4 C6090000 		.4byte	.LASF87
 1530 04c8 12       		.sleb128 18
 1531 04c9 12       		.uleb128 0x12
 1532 04ca 1A050000 		.4byte	.LASF88
 1533 04ce 13       		.sleb128 19
 1534 04cf 12       		.uleb128 0x12
 1535 04d0 25040000 		.4byte	.LASF89
 1536 04d4 14       		.sleb128 20
 1537 04d5 12       		.uleb128 0x12
 1538 04d6 960B0000 		.4byte	.LASF90
 1539 04da 15       		.sleb128 21
 1540 04db 12       		.uleb128 0x12
 1541 04dc D4050000 		.4byte	.LASF91
 1542 04e0 16       		.sleb128 22
 1543 04e1 12       		.uleb128 0x12
 1544 04e2 B10B0000 		.4byte	.LASF92
 1545 04e6 17       		.sleb128 23
 1546 04e7 12       		.uleb128 0x12
 1547 04e8 99060000 		.4byte	.LASF93
 1548 04ec 18       		.sleb128 24
 1549 04ed 12       		.uleb128 0x12
 1550 04ee 2D0B0000 		.4byte	.LASF94
 1551 04f2 19       		.sleb128 25
 1552 04f3 12       		.uleb128 0x12
 1553 04f4 35020000 		.4byte	.LASF95
 1554 04f8 1A       		.sleb128 26
 1555 04f9 12       		.uleb128 0x12
 1556 04fa F4040000 		.4byte	.LASF96
 1557 04fe 1B       		.sleb128 27
 1558 04ff 12       		.uleb128 0x12
 1559 0500 4B010000 		.4byte	.LASF97
 1560 0504 1C       		.sleb128 28
 1561 0505 12       		.uleb128 0x12
 1562 0506 64090000 		.4byte	.LASF98
 1563 050a 1D       		.sleb128 29
 1564 050b 12       		.uleb128 0x12
 1565 050c 5C040000 		.4byte	.LASF99
 1566 0510 1E       		.sleb128 30
 1567 0511 12       		.uleb128 0x12
 1568 0512 B0040000 		.4byte	.LASF100
 1569 0516 1F       		.sleb128 31
 1570 0517 12       		.uleb128 0x12
 1571 0518 99030000 		.4byte	.LASF101
 1572 051c 20       		.sleb128 32
 1573 051d 12       		.uleb128 0x12
 1574 051e DA070000 		.4byte	.LASF102
 1575 0522 21       		.sleb128 33
 1576 0523 12       		.uleb128 0x12
 1577 0524 26060000 		.4byte	.LASF103
ARM GAS  /tmp/ccRfa0ZT.s 			page 29


 1578 0528 22       		.sleb128 34
 1579 0529 12       		.uleb128 0x12
 1580 052a FC060000 		.4byte	.LASF104
 1581 052e 23       		.sleb128 35
 1582 052f 12       		.uleb128 0x12
 1583 0530 D8060000 		.4byte	.LASF105
 1584 0534 24       		.sleb128 36
 1585 0535 12       		.uleb128 0x12
 1586 0536 6E090000 		.4byte	.LASF106
 1587 053a 25       		.sleb128 37
 1588 053b 12       		.uleb128 0x12
 1589 053c 66040000 		.4byte	.LASF107
 1590 0540 26       		.sleb128 38
 1591 0541 12       		.uleb128 0x12
 1592 0542 82020000 		.4byte	.LASF108
 1593 0546 27       		.sleb128 39
 1594 0547 12       		.uleb128 0x12
 1595 0548 27090000 		.4byte	.LASF109
 1596 054c 28       		.sleb128 40
 1597 054d 12       		.uleb128 0x12
 1598 054e ED080000 		.4byte	.LASF110
 1599 0552 29       		.sleb128 41
 1600 0553 12       		.uleb128 0x12
 1601 0554 81070000 		.4byte	.LASF111
 1602 0558 2A       		.sleb128 42
 1603 0559 12       		.uleb128 0x12
 1604 055a C2010000 		.4byte	.LASF112
 1605 055e 2B       		.sleb128 43
 1606 055f 12       		.uleb128 0x12
 1607 0560 0C000000 		.4byte	.LASF113
 1608 0564 2C       		.sleb128 44
 1609 0565 12       		.uleb128 0x12
 1610 0566 39050000 		.4byte	.LASF114
 1611 056a 2D       		.sleb128 45
 1612 056b 12       		.uleb128 0x12
 1613 056c FE0B0000 		.4byte	.LASF115
 1614 0570 2E       		.sleb128 46
 1615 0571 12       		.uleb128 0x12
 1616 0572 4A0C0000 		.4byte	.LASF116
 1617 0576 2F       		.sleb128 47
 1618 0577 12       		.uleb128 0x12
 1619 0578 0C0A0000 		.4byte	.LASF117
 1620 057c 30       		.sleb128 48
 1621 057d 12       		.uleb128 0x12
 1622 057e 0B0C0000 		.4byte	.LASF118
 1623 0582 31       		.sleb128 49
 1624 0583 12       		.uleb128 0x12
 1625 0584 DD030000 		.4byte	.LASF119
 1626 0588 32       		.sleb128 50
 1627 0589 12       		.uleb128 0x12
 1628 058a E0000000 		.4byte	.LASF120
 1629 058e 33       		.sleb128 51
 1630 058f 12       		.uleb128 0x12
 1631 0590 62070000 		.4byte	.LASF121
 1632 0594 34       		.sleb128 52
 1633 0595 12       		.uleb128 0x12
 1634 0596 8E060000 		.4byte	.LASF122
ARM GAS  /tmp/ccRfa0ZT.s 			page 30


 1635 059a 35       		.sleb128 53
 1636 059b 12       		.uleb128 0x12
 1637 059c B1070000 		.4byte	.LASF123
 1638 05a0 36       		.sleb128 54
 1639 05a1 12       		.uleb128 0x12
 1640 05a2 B2060000 		.4byte	.LASF124
 1641 05a6 37       		.sleb128 55
 1642 05a7 12       		.uleb128 0x12
 1643 05a8 F5050000 		.4byte	.LASF125
 1644 05ac 38       		.sleb128 56
 1645 05ad 12       		.uleb128 0x12
 1646 05ae CE000000 		.4byte	.LASF126
 1647 05b2 39       		.sleb128 57
 1648 05b3 12       		.uleb128 0x12
 1649 05b4 AA0C0000 		.4byte	.LASF127
 1650 05b8 3A       		.sleb128 58
 1651 05b9 12       		.uleb128 0x12
 1652 05ba 3C080000 		.4byte	.LASF128
 1653 05be 3B       		.sleb128 59
 1654 05bf 12       		.uleb128 0x12
 1655 05c0 0A030000 		.4byte	.LASF129
 1656 05c4 3C       		.sleb128 60
 1657 05c5 12       		.uleb128 0x12
 1658 05c6 9D0A0000 		.4byte	.LASF130
 1659 05ca 3D       		.sleb128 61
 1660 05cb 12       		.uleb128 0x12
 1661 05cc CA060000 		.4byte	.LASF131
 1662 05d0 3E       		.sleb128 62
 1663 05d1 12       		.uleb128 0x12
 1664 05d2 4E080000 		.4byte	.LASF132
 1665 05d6 3F       		.sleb128 63
 1666 05d7 12       		.uleb128 0x12
 1667 05d8 73010000 		.4byte	.LASF133
 1668 05dc C000     		.sleb128 64
 1669 05de 12       		.uleb128 0x12
 1670 05df B1090000 		.4byte	.LASF134
 1671 05e3 C100     		.sleb128 65
 1672 05e5 12       		.uleb128 0x12
 1673 05e6 B1030000 		.4byte	.LASF135
 1674 05ea C200     		.sleb128 66
 1675 05ec 12       		.uleb128 0x12
 1676 05ed 63050000 		.4byte	.LASF136
 1677 05f1 C300     		.sleb128 67
 1678 05f3 12       		.uleb128 0x12
 1679 05f4 07020000 		.4byte	.LASF137
 1680 05f8 C400     		.sleb128 68
 1681 05fa 12       		.uleb128 0x12
 1682 05fb 4A0A0000 		.4byte	.LASF138
 1683 05ff C500     		.sleb128 69
 1684 0601 12       		.uleb128 0x12
 1685 0602 51050000 		.4byte	.LASF139
 1686 0606 C600     		.sleb128 70
 1687 0608 12       		.uleb128 0x12
 1688 0609 81010000 		.4byte	.LASF140
 1689 060d C700     		.sleb128 71
 1690 060f 12       		.uleb128 0x12
 1691 0610 760A0000 		.4byte	.LASF141
ARM GAS  /tmp/ccRfa0ZT.s 			page 31


 1692 0614 C800     		.sleb128 72
 1693 0616 12       		.uleb128 0x12
 1694 0617 FC080000 		.4byte	.LASF142
 1695 061b C900     		.sleb128 73
 1696 061d 12       		.uleb128 0x12
 1697 061e 550B0000 		.4byte	.LASF143
 1698 0622 CA00     		.sleb128 74
 1699 0624 12       		.uleb128 0x12
 1700 0625 2C0C0000 		.4byte	.LASF144
 1701 0629 CB00     		.sleb128 75
 1702 062b 12       		.uleb128 0x12
 1703 062c AA010000 		.4byte	.LASF145
 1704 0630 CC00     		.sleb128 76
 1705 0632 12       		.uleb128 0x12
 1706 0633 E2060000 		.4byte	.LASF146
 1707 0637 CD00     		.sleb128 77
 1708 0639 12       		.uleb128 0x12
 1709 063a F5000000 		.4byte	.LASF147
 1710 063e CE00     		.sleb128 78
 1711 0640 12       		.uleb128 0x12
 1712 0641 1D090000 		.4byte	.LASF148
 1713 0645 CF00     		.sleb128 79
 1714 0647 12       		.uleb128 0x12
 1715 0648 01050000 		.4byte	.LASF149
 1716 064c D000     		.sleb128 80
 1717 064e 12       		.uleb128 0x12
 1718 064f 59070000 		.4byte	.LASF150
 1719 0653 D100     		.sleb128 81
 1720 0655 00       		.byte	0
 1721 0656 13       		.uleb128 0x13
 1722 0657 82000000 		.4byte	0x82
 1723 065b 66060000 		.4byte	0x666
 1724 065f 14       		.uleb128 0x14
 1725 0660 74030000 		.4byte	0x374
 1726 0664 01       		.byte	0x1
 1727 0665 00       		.byte	0
 1728 0666 0D       		.uleb128 0xd
 1729 0667 70000000 		.4byte	0x70
 1730 066b 15       		.uleb128 0x15
 1731 066c 50       		.byte	0x50
 1732 066d 09       		.byte	0x9
 1733 066e 2C01     		.2byte	0x12c
 1734 0670 9F070000 		.4byte	0x79f
 1735 0674 0C       		.uleb128 0xc
 1736 0675 535200   		.ascii	"SR\000"
 1737 0678 09       		.byte	0x9
 1738 0679 2E01     		.2byte	0x12e
 1739 067b 6F030000 		.4byte	0x36f
 1740 067f 02       		.byte	0x2
 1741 0680 23       		.byte	0x23
 1742 0681 00       		.uleb128 0
 1743 0682 0C       		.uleb128 0xc
 1744 0683 43523100 		.ascii	"CR1\000"
 1745 0687 09       		.byte	0x9
 1746 0688 2F01     		.2byte	0x12f
 1747 068a 6F030000 		.4byte	0x36f
 1748 068e 02       		.byte	0x2
ARM GAS  /tmp/ccRfa0ZT.s 			page 32


 1749 068f 23       		.byte	0x23
 1750 0690 04       		.uleb128 0x4
 1751 0691 0C       		.uleb128 0xc
 1752 0692 43523200 		.ascii	"CR2\000"
 1753 0696 09       		.byte	0x9
 1754 0697 3001     		.2byte	0x130
 1755 0699 6F030000 		.4byte	0x36f
 1756 069d 02       		.byte	0x2
 1757 069e 23       		.byte	0x23
 1758 069f 08       		.uleb128 0x8
 1759 06a0 16       		.uleb128 0x16
 1760 06a1 07060000 		.4byte	.LASF151
 1761 06a5 09       		.byte	0x9
 1762 06a6 3101     		.2byte	0x131
 1763 06a8 6F030000 		.4byte	0x36f
 1764 06ac 02       		.byte	0x2
 1765 06ad 23       		.byte	0x23
 1766 06ae 0C       		.uleb128 0xc
 1767 06af 16       		.uleb128 0x16
 1768 06b0 0D060000 		.4byte	.LASF152
 1769 06b4 09       		.byte	0x9
 1770 06b5 3201     		.2byte	0x132
 1771 06b7 6F030000 		.4byte	0x36f
 1772 06bb 02       		.byte	0x2
 1773 06bc 23       		.byte	0x23
 1774 06bd 10       		.uleb128 0x10
 1775 06be 16       		.uleb128 0x16
 1776 06bf D30A0000 		.4byte	.LASF153
 1777 06c3 09       		.byte	0x9
 1778 06c4 3301     		.2byte	0x133
 1779 06c6 6F030000 		.4byte	0x36f
 1780 06ca 02       		.byte	0x2
 1781 06cb 23       		.byte	0x23
 1782 06cc 14       		.uleb128 0x14
 1783 06cd 16       		.uleb128 0x16
 1784 06ce D90A0000 		.4byte	.LASF154
 1785 06d2 09       		.byte	0x9
 1786 06d3 3401     		.2byte	0x134
 1787 06d5 6F030000 		.4byte	0x36f
 1788 06d9 02       		.byte	0x2
 1789 06da 23       		.byte	0x23
 1790 06db 18       		.uleb128 0x18
 1791 06dc 16       		.uleb128 0x16
 1792 06dd DF0A0000 		.4byte	.LASF155
 1793 06e1 09       		.byte	0x9
 1794 06e2 3501     		.2byte	0x135
 1795 06e4 6F030000 		.4byte	0x36f
 1796 06e8 02       		.byte	0x2
 1797 06e9 23       		.byte	0x23
 1798 06ea 1C       		.uleb128 0x1c
 1799 06eb 16       		.uleb128 0x16
 1800 06ec E50A0000 		.4byte	.LASF156
 1801 06f0 09       		.byte	0x9
 1802 06f1 3601     		.2byte	0x136
 1803 06f3 6F030000 		.4byte	0x36f
 1804 06f7 02       		.byte	0x2
 1805 06f8 23       		.byte	0x23
ARM GAS  /tmp/ccRfa0ZT.s 			page 33


 1806 06f9 20       		.uleb128 0x20
 1807 06fa 0C       		.uleb128 0xc
 1808 06fb 48545200 		.ascii	"HTR\000"
 1809 06ff 09       		.byte	0x9
 1810 0700 3701     		.2byte	0x137
 1811 0702 6F030000 		.4byte	0x36f
 1812 0706 02       		.byte	0x2
 1813 0707 23       		.byte	0x23
 1814 0708 24       		.uleb128 0x24
 1815 0709 0C       		.uleb128 0xc
 1816 070a 4C545200 		.ascii	"LTR\000"
 1817 070e 09       		.byte	0x9
 1818 070f 3801     		.2byte	0x138
 1819 0711 6F030000 		.4byte	0x36f
 1820 0715 02       		.byte	0x2
 1821 0716 23       		.byte	0x23
 1822 0717 28       		.uleb128 0x28
 1823 0718 16       		.uleb128 0x16
 1824 0719 71000000 		.4byte	.LASF157
 1825 071d 09       		.byte	0x9
 1826 071e 3901     		.2byte	0x139
 1827 0720 6F030000 		.4byte	0x36f
 1828 0724 02       		.byte	0x2
 1829 0725 23       		.byte	0x23
 1830 0726 2C       		.uleb128 0x2c
 1831 0727 16       		.uleb128 0x16
 1832 0728 76000000 		.4byte	.LASF158
 1833 072c 09       		.byte	0x9
 1834 072d 3A01     		.2byte	0x13a
 1835 072f 6F030000 		.4byte	0x36f
 1836 0733 02       		.byte	0x2
 1837 0734 23       		.byte	0x23
 1838 0735 30       		.uleb128 0x30
 1839 0736 16       		.uleb128 0x16
 1840 0737 7B000000 		.4byte	.LASF159
 1841 073b 09       		.byte	0x9
 1842 073c 3B01     		.2byte	0x13b
 1843 073e 6F030000 		.4byte	0x36f
 1844 0742 02       		.byte	0x2
 1845 0743 23       		.byte	0x23
 1846 0744 34       		.uleb128 0x34
 1847 0745 16       		.uleb128 0x16
 1848 0746 280B0000 		.4byte	.LASF160
 1849 074a 09       		.byte	0x9
 1850 074b 3C01     		.2byte	0x13c
 1851 074d 6F030000 		.4byte	0x36f
 1852 0751 02       		.byte	0x2
 1853 0752 23       		.byte	0x23
 1854 0753 38       		.uleb128 0x38
 1855 0754 16       		.uleb128 0x16
 1856 0755 120B0000 		.4byte	.LASF161
 1857 0759 09       		.byte	0x9
 1858 075a 3D01     		.2byte	0x13d
 1859 075c 6F030000 		.4byte	0x36f
 1860 0760 02       		.byte	0x2
 1861 0761 23       		.byte	0x23
 1862 0762 3C       		.uleb128 0x3c
ARM GAS  /tmp/ccRfa0ZT.s 			page 34


 1863 0763 16       		.uleb128 0x16
 1864 0764 170B0000 		.4byte	.LASF162
 1865 0768 09       		.byte	0x9
 1866 0769 3E01     		.2byte	0x13e
 1867 076b 6F030000 		.4byte	0x36f
 1868 076f 02       		.byte	0x2
 1869 0770 23       		.byte	0x23
 1870 0771 40       		.uleb128 0x40
 1871 0772 16       		.uleb128 0x16
 1872 0773 1C0B0000 		.4byte	.LASF163
 1873 0777 09       		.byte	0x9
 1874 0778 3F01     		.2byte	0x13f
 1875 077a 6F030000 		.4byte	0x36f
 1876 077e 02       		.byte	0x2
 1877 077f 23       		.byte	0x23
 1878 0780 44       		.uleb128 0x44
 1879 0781 16       		.uleb128 0x16
 1880 0782 95010000 		.4byte	.LASF164
 1881 0786 09       		.byte	0x9
 1882 0787 4001     		.2byte	0x140
 1883 0789 6F030000 		.4byte	0x36f
 1884 078d 02       		.byte	0x2
 1885 078e 23       		.byte	0x23
 1886 078f 48       		.uleb128 0x48
 1887 0790 0C       		.uleb128 0xc
 1888 0791 445200   		.ascii	"DR\000"
 1889 0794 09       		.byte	0x9
 1890 0795 4101     		.2byte	0x141
 1891 0797 6F030000 		.4byte	0x36f
 1892 079b 02       		.byte	0x2
 1893 079c 23       		.byte	0x23
 1894 079d 4C       		.uleb128 0x4c
 1895 079e 00       		.byte	0
 1896 079f 17       		.uleb128 0x17
 1897 07a0 BD040000 		.4byte	.LASF165
 1898 07a4 09       		.byte	0x9
 1899 07a5 4201     		.2byte	0x142
 1900 07a7 6B060000 		.4byte	0x66b
 1901 07ab 15       		.uleb128 0x15
 1902 07ac 0C       		.byte	0xc
 1903 07ad 09       		.byte	0x9
 1904 07ae 4401     		.2byte	0x144
 1905 07b0 E2070000 		.4byte	0x7e2
 1906 07b4 0C       		.uleb128 0xc
 1907 07b5 43535200 		.ascii	"CSR\000"
 1908 07b9 09       		.byte	0x9
 1909 07ba 4601     		.2byte	0x146
 1910 07bc 6F030000 		.4byte	0x36f
 1911 07c0 02       		.byte	0x2
 1912 07c1 23       		.byte	0x23
 1913 07c2 00       		.uleb128 0
 1914 07c3 0C       		.uleb128 0xc
 1915 07c4 43435200 		.ascii	"CCR\000"
 1916 07c8 09       		.byte	0x9
 1917 07c9 4701     		.2byte	0x147
 1918 07cb 6F030000 		.4byte	0x36f
 1919 07cf 02       		.byte	0x2
ARM GAS  /tmp/ccRfa0ZT.s 			page 35


 1920 07d0 23       		.byte	0x23
 1921 07d1 04       		.uleb128 0x4
 1922 07d2 0C       		.uleb128 0xc
 1923 07d3 43445200 		.ascii	"CDR\000"
 1924 07d7 09       		.byte	0x9
 1925 07d8 4801     		.2byte	0x148
 1926 07da 6F030000 		.4byte	0x36f
 1927 07de 02       		.byte	0x2
 1928 07df 23       		.byte	0x23
 1929 07e0 08       		.uleb128 0x8
 1930 07e1 00       		.byte	0
 1931 07e2 17       		.uleb128 0x17
 1932 07e3 650C0000 		.4byte	.LASF166
 1933 07e7 09       		.byte	0x9
 1934 07e8 4A01     		.2byte	0x14a
 1935 07ea AB070000 		.4byte	0x7ab
 1936 07ee 15       		.uleb128 0x15
 1937 07ef 18       		.byte	0x18
 1938 07f0 09       		.byte	0x9
 1939 07f1 D301     		.2byte	0x1d3
 1940 07f3 51080000 		.4byte	0x851
 1941 07f7 0C       		.uleb128 0xc
 1942 07f8 435200   		.ascii	"CR\000"
 1943 07fb 09       		.byte	0x9
 1944 07fc D501     		.2byte	0x1d5
 1945 07fe 6F030000 		.4byte	0x36f
 1946 0802 02       		.byte	0x2
 1947 0803 23       		.byte	0x23
 1948 0804 00       		.uleb128 0
 1949 0805 16       		.uleb128 0x16
 1950 0806 770B0000 		.4byte	.LASF167
 1951 080a 09       		.byte	0x9
 1952 080b D601     		.2byte	0x1d6
 1953 080d 6F030000 		.4byte	0x36f
 1954 0811 02       		.byte	0x2
 1955 0812 23       		.byte	0x23
 1956 0813 04       		.uleb128 0x4
 1957 0814 0C       		.uleb128 0xc
 1958 0815 50415200 		.ascii	"PAR\000"
 1959 0819 09       		.byte	0x9
 1960 081a D701     		.2byte	0x1d7
 1961 081c 6F030000 		.4byte	0x36f
 1962 0820 02       		.byte	0x2
 1963 0821 23       		.byte	0x23
 1964 0822 08       		.uleb128 0x8
 1965 0823 16       		.uleb128 0x16
 1966 0824 980A0000 		.4byte	.LASF168
 1967 0828 09       		.byte	0x9
 1968 0829 D801     		.2byte	0x1d8
 1969 082b 6F030000 		.4byte	0x36f
 1970 082f 02       		.byte	0x2
 1971 0830 23       		.byte	0x23
 1972 0831 0C       		.uleb128 0xc
 1973 0832 16       		.uleb128 0x16
 1974 0833 00000000 		.4byte	.LASF169
 1975 0837 09       		.byte	0x9
 1976 0838 D901     		.2byte	0x1d9
ARM GAS  /tmp/ccRfa0ZT.s 			page 36


 1977 083a 6F030000 		.4byte	0x36f
 1978 083e 02       		.byte	0x2
 1979 083f 23       		.byte	0x23
 1980 0840 10       		.uleb128 0x10
 1981 0841 0C       		.uleb128 0xc
 1982 0842 46435200 		.ascii	"FCR\000"
 1983 0846 09       		.byte	0x9
 1984 0847 DA01     		.2byte	0x1da
 1985 0849 6F030000 		.4byte	0x36f
 1986 084d 02       		.byte	0x2
 1987 084e 23       		.byte	0x23
 1988 084f 14       		.uleb128 0x14
 1989 0850 00       		.byte	0
 1990 0851 17       		.uleb128 0x17
 1991 0852 73080000 		.4byte	.LASF170
 1992 0856 09       		.byte	0x9
 1993 0857 DB01     		.2byte	0x1db
 1994 0859 EE070000 		.4byte	0x7ee
 1995 085d 15       		.uleb128 0x15
 1996 085e 88       		.byte	0x88
 1997 085f 09       		.byte	0x9
 1998 0860 DB02     		.2byte	0x2db
 1999 0862 2A0A0000 		.4byte	0xa2a
 2000 0866 0C       		.uleb128 0xc
 2001 0867 435200   		.ascii	"CR\000"
 2002 086a 09       		.byte	0x9
 2003 086b DD02     		.2byte	0x2dd
 2004 086d 6F030000 		.4byte	0x36f
 2005 0871 02       		.byte	0x2
 2006 0872 23       		.byte	0x23
 2007 0873 00       		.uleb128 0
 2008 0874 16       		.uleb128 0x16
 2009 0875 86060000 		.4byte	.LASF171
 2010 0879 09       		.byte	0x9
 2011 087a DE02     		.2byte	0x2de
 2012 087c 6F030000 		.4byte	0x36f
 2013 0880 02       		.byte	0x2
 2014 0881 23       		.byte	0x23
 2015 0882 04       		.uleb128 0x4
 2016 0883 16       		.uleb128 0x16
 2017 0884 EF040000 		.4byte	.LASF172
 2018 0888 09       		.byte	0x9
 2019 0889 DF02     		.2byte	0x2df
 2020 088b 6F030000 		.4byte	0x36f
 2021 088f 02       		.byte	0x2
 2022 0890 23       		.byte	0x23
 2023 0891 08       		.uleb128 0x8
 2024 0892 0C       		.uleb128 0xc
 2025 0893 43495200 		.ascii	"CIR\000"
 2026 0897 09       		.byte	0x9
 2027 0898 E002     		.2byte	0x2e0
 2028 089a 6F030000 		.4byte	0x36f
 2029 089e 02       		.byte	0x2
 2030 089f 23       		.byte	0x23
 2031 08a0 0C       		.uleb128 0xc
 2032 08a1 16       		.uleb128 0x16
 2033 08a2 5C0C0000 		.4byte	.LASF173
ARM GAS  /tmp/ccRfa0ZT.s 			page 37


 2034 08a6 09       		.byte	0x9
 2035 08a7 E102     		.2byte	0x2e1
 2036 08a9 6F030000 		.4byte	0x36f
 2037 08ad 02       		.byte	0x2
 2038 08ae 23       		.byte	0x23
 2039 08af 10       		.uleb128 0x10
 2040 08b0 16       		.uleb128 0x16
 2041 08b1 880A0000 		.4byte	.LASF174
 2042 08b5 09       		.byte	0x9
 2043 08b6 E202     		.2byte	0x2e2
 2044 08b8 6F030000 		.4byte	0x36f
 2045 08bc 02       		.byte	0x2
 2046 08bd 23       		.byte	0x23
 2047 08be 14       		.uleb128 0x14
 2048 08bf 16       		.uleb128 0x16
 2049 08c0 A4080000 		.4byte	.LASF175
 2050 08c4 09       		.byte	0x9
 2051 08c5 E302     		.2byte	0x2e3
 2052 08c7 6F030000 		.4byte	0x36f
 2053 08cb 02       		.byte	0x2
 2054 08cc 23       		.byte	0x23
 2055 08cd 18       		.uleb128 0x18
 2056 08ce 16       		.uleb128 0x16
 2057 08cf E8020000 		.4byte	.LASF176
 2058 08d3 09       		.byte	0x9
 2059 08d4 E402     		.2byte	0x2e4
 2060 08d6 82000000 		.4byte	0x82
 2061 08da 02       		.byte	0x2
 2062 08db 23       		.byte	0x23
 2063 08dc 1C       		.uleb128 0x1c
 2064 08dd 16       		.uleb128 0x16
 2065 08de D5080000 		.4byte	.LASF177
 2066 08e2 09       		.byte	0x9
 2067 08e3 E502     		.2byte	0x2e5
 2068 08e5 6F030000 		.4byte	0x36f
 2069 08e9 02       		.byte	0x2
 2070 08ea 23       		.byte	0x23
 2071 08eb 20       		.uleb128 0x20
 2072 08ec 16       		.uleb128 0x16
 2073 08ed 2A070000 		.4byte	.LASF178
 2074 08f1 09       		.byte	0x9
 2075 08f2 E602     		.2byte	0x2e6
 2076 08f4 6F030000 		.4byte	0x36f
 2077 08f8 02       		.byte	0x2
 2078 08f9 23       		.byte	0x23
 2079 08fa 24       		.uleb128 0x24
 2080 08fb 16       		.uleb128 0x16
 2081 08fc F2020000 		.4byte	.LASF179
 2082 0900 09       		.byte	0x9
 2083 0901 E702     		.2byte	0x2e7
 2084 0903 56060000 		.4byte	0x656
 2085 0907 02       		.byte	0x2
 2086 0908 23       		.byte	0x23
 2087 0909 28       		.uleb128 0x28
 2088 090a 16       		.uleb128 0x16
 2089 090b 5C0A0000 		.4byte	.LASF180
 2090 090f 09       		.byte	0x9
ARM GAS  /tmp/ccRfa0ZT.s 			page 38


 2091 0910 E802     		.2byte	0x2e8
 2092 0912 6F030000 		.4byte	0x36f
 2093 0916 02       		.byte	0x2
 2094 0917 23       		.byte	0x23
 2095 0918 30       		.uleb128 0x30
 2096 0919 16       		.uleb128 0x16
 2097 091a 16040000 		.4byte	.LASF181
 2098 091e 09       		.byte	0x9
 2099 091f E902     		.2byte	0x2e9
 2100 0921 6F030000 		.4byte	0x36f
 2101 0925 02       		.byte	0x2
 2102 0926 23       		.byte	0x23
 2103 0927 34       		.uleb128 0x34
 2104 0928 16       		.uleb128 0x16
 2105 0929 A20C0000 		.4byte	.LASF182
 2106 092d 09       		.byte	0x9
 2107 092e EA02     		.2byte	0x2ea
 2108 0930 6F030000 		.4byte	0x36f
 2109 0934 02       		.byte	0x2
 2110 0935 23       		.byte	0x23
 2111 0936 38       		.uleb128 0x38
 2112 0937 16       		.uleb128 0x16
 2113 0938 C9030000 		.4byte	.LASF183
 2114 093c 09       		.byte	0x9
 2115 093d EB02     		.2byte	0x2eb
 2116 093f 82000000 		.4byte	0x82
 2117 0943 02       		.byte	0x2
 2118 0944 23       		.byte	0x23
 2119 0945 3C       		.uleb128 0x3c
 2120 0946 16       		.uleb128 0x16
 2121 0947 9F050000 		.4byte	.LASF184
 2122 094b 09       		.byte	0x9
 2123 094c EC02     		.2byte	0x2ec
 2124 094e 6F030000 		.4byte	0x36f
 2125 0952 02       		.byte	0x2
 2126 0953 23       		.byte	0x23
 2127 0954 40       		.uleb128 0x40
 2128 0955 16       		.uleb128 0x16
 2129 0956 63020000 		.4byte	.LASF185
 2130 095a 09       		.byte	0x9
 2131 095b ED02     		.2byte	0x2ed
 2132 095d 6F030000 		.4byte	0x36f
 2133 0961 02       		.byte	0x2
 2134 0962 23       		.byte	0x23
 2135 0963 44       		.uleb128 0x44
 2136 0964 16       		.uleb128 0x16
 2137 0965 D3030000 		.4byte	.LASF186
 2138 0969 09       		.byte	0x9
 2139 096a EE02     		.2byte	0x2ee
 2140 096c 56060000 		.4byte	0x656
 2141 0970 02       		.byte	0x2
 2142 0971 23       		.byte	0x23
 2143 0972 48       		.uleb128 0x48
 2144 0973 16       		.uleb128 0x16
 2145 0974 6B020000 		.4byte	.LASF187
 2146 0978 09       		.byte	0x9
 2147 0979 EF02     		.2byte	0x2ef
ARM GAS  /tmp/ccRfa0ZT.s 			page 39


 2148 097b 6F030000 		.4byte	0x36f
 2149 097f 02       		.byte	0x2
 2150 0980 23       		.byte	0x23
 2151 0981 50       		.uleb128 0x50
 2152 0982 16       		.uleb128 0x16
 2153 0983 D6010000 		.4byte	.LASF188
 2154 0987 09       		.byte	0x9
 2155 0988 F002     		.2byte	0x2f0
 2156 098a 6F030000 		.4byte	0x36f
 2157 098e 02       		.byte	0x2
 2158 098f 23       		.byte	0x23
 2159 0990 54       		.uleb128 0x54
 2160 0991 16       		.uleb128 0x16
 2161 0992 E5090000 		.4byte	.LASF189
 2162 0996 09       		.byte	0x9
 2163 0997 F102     		.2byte	0x2f1
 2164 0999 6F030000 		.4byte	0x36f
 2165 099d 02       		.byte	0x2
 2166 099e 23       		.byte	0x23
 2167 099f 58       		.uleb128 0x58
 2168 09a0 16       		.uleb128 0x16
 2169 09a1 1C030000 		.4byte	.LASF190
 2170 09a5 09       		.byte	0x9
 2171 09a6 F202     		.2byte	0x2f2
 2172 09a8 82000000 		.4byte	0x82
 2173 09ac 02       		.byte	0x2
 2174 09ad 23       		.byte	0x23
 2175 09ae 5C       		.uleb128 0x5c
 2176 09af 16       		.uleb128 0x16
 2177 09b0 20080000 		.4byte	.LASF191
 2178 09b4 09       		.byte	0x9
 2179 09b5 F302     		.2byte	0x2f3
 2180 09b7 6F030000 		.4byte	0x36f
 2181 09bb 02       		.byte	0x2
 2182 09bc 23       		.byte	0x23
 2183 09bd 60       		.uleb128 0x60
 2184 09be 16       		.uleb128 0x16
 2185 09bf 6D070000 		.4byte	.LASF192
 2186 09c3 09       		.byte	0x9
 2187 09c4 F402     		.2byte	0x2f4
 2188 09c6 6F030000 		.4byte	0x36f
 2189 09ca 02       		.byte	0x2
 2190 09cb 23       		.byte	0x23
 2191 09cc 64       		.uleb128 0x64
 2192 09cd 16       		.uleb128 0x16
 2193 09ce 26030000 		.4byte	.LASF193
 2194 09d2 09       		.byte	0x9
 2195 09d3 F502     		.2byte	0x2f5
 2196 09d5 56060000 		.4byte	0x656
 2197 09d9 02       		.byte	0x2
 2198 09da 23       		.byte	0x23
 2199 09db 68       		.uleb128 0x68
 2200 09dc 16       		.uleb128 0x16
 2201 09dd A3040000 		.4byte	.LASF194
 2202 09e1 09       		.byte	0x9
 2203 09e2 F602     		.2byte	0x2f6
 2204 09e4 6F030000 		.4byte	0x36f
ARM GAS  /tmp/ccRfa0ZT.s 			page 40


 2205 09e8 02       		.byte	0x2
 2206 09e9 23       		.byte	0x23
 2207 09ea 70       		.uleb128 0x70
 2208 09eb 0C       		.uleb128 0xc
 2209 09ec 43535200 		.ascii	"CSR\000"
 2210 09f0 09       		.byte	0x9
 2211 09f1 F702     		.2byte	0x2f7
 2212 09f3 6F030000 		.4byte	0x36f
 2213 09f7 02       		.byte	0x2
 2214 09f8 23       		.byte	0x23
 2215 09f9 74       		.uleb128 0x74
 2216 09fa 16       		.uleb128 0x16
 2217 09fb 30030000 		.4byte	.LASF195
 2218 09ff 09       		.byte	0x9
 2219 0a00 F802     		.2byte	0x2f8
 2220 0a02 56060000 		.4byte	0x656
 2221 0a06 02       		.byte	0x2
 2222 0a07 23       		.byte	0x23
 2223 0a08 78       		.uleb128 0x78
 2224 0a09 16       		.uleb128 0x16
 2225 0a0a F6060000 		.4byte	.LASF196
 2226 0a0e 09       		.byte	0x9
 2227 0a0f F902     		.2byte	0x2f9
 2228 0a11 6F030000 		.4byte	0x36f
 2229 0a15 03       		.byte	0x3
 2230 0a16 23       		.byte	0x23
 2231 0a17 8001     		.uleb128 0x80
 2232 0a19 16       		.uleb128 0x16
 2233 0a1a 4A000000 		.4byte	.LASF197
 2234 0a1e 09       		.byte	0x9
 2235 0a1f FA02     		.2byte	0x2fa
 2236 0a21 6F030000 		.4byte	0x36f
 2237 0a25 03       		.byte	0x3
 2238 0a26 23       		.byte	0x23
 2239 0a27 8401     		.uleb128 0x84
 2240 0a29 00       		.byte	0
 2241 0a2a 17       		.uleb128 0x17
 2242 0a2b A60A0000 		.4byte	.LASF198
 2243 0a2f 09       		.byte	0x9
 2244 0a30 FB02     		.2byte	0x2fb
 2245 0a32 5D080000 		.4byte	0x85d
 2246 0a36 08       		.uleb128 0x8
 2247 0a37 0C       		.byte	0xc
 2248 0a38 0A       		.byte	0xa
 2249 0a39 DE       		.byte	0xde
 2250 0a3a 850A0000 		.4byte	0xa85
 2251 0a3e 06       		.uleb128 0x6
 2252 0a3f 72040000 		.4byte	.LASF199
 2253 0a43 0A       		.byte	0xa
 2254 0a44 DF       		.byte	0xdf
 2255 0a45 850A0000 		.4byte	0xa85
 2256 0a49 02       		.byte	0x2
 2257 0a4a 23       		.byte	0x23
 2258 0a4b 00       		.uleb128 0
 2259 0a4c 06       		.uleb128 0x6
 2260 0a4d 780C0000 		.4byte	.LASF200
 2261 0a51 0A       		.byte	0xa
ARM GAS  /tmp/ccRfa0ZT.s 			page 41


 2262 0a52 E0       		.byte	0xe0
 2263 0a53 8B0A0000 		.4byte	0xa8b
 2264 0a57 02       		.byte	0x2
 2265 0a58 23       		.byte	0x23
 2266 0a59 04       		.uleb128 0x4
 2267 0a5a 06       		.uleb128 0x6
 2268 0a5b 08040000 		.4byte	.LASF201
 2269 0a5f 0A       		.byte	0xa
 2270 0a60 E1       		.byte	0xe1
 2271 0a61 45000000 		.4byte	0x45
 2272 0a65 02       		.byte	0x2
 2273 0a66 23       		.byte	0x23
 2274 0a67 08       		.uleb128 0x8
 2275 0a68 06       		.uleb128 0x6
 2276 0a69 9A070000 		.4byte	.LASF202
 2277 0a6d 0A       		.byte	0xa
 2278 0a6e E3       		.byte	0xe3
 2279 0a6f 45000000 		.4byte	0x45
 2280 0a73 02       		.byte	0x2
 2281 0a74 23       		.byte	0x23
 2282 0a75 09       		.uleb128 0x9
 2283 0a76 06       		.uleb128 0x6
 2284 0a77 BF090000 		.4byte	.LASF203
 2285 0a7b 0A       		.byte	0xa
 2286 0a7c E4       		.byte	0xe4
 2287 0a7d 45000000 		.4byte	0x45
 2288 0a81 02       		.byte	0x2
 2289 0a82 23       		.byte	0x23
 2290 0a83 0A       		.uleb128 0xa
 2291 0a84 00       		.byte	0
 2292 0a85 09       		.uleb128 0x9
 2293 0a86 04       		.byte	0x4
 2294 0a87 51080000 		.4byte	0x851
 2295 0a8b 09       		.uleb128 0x9
 2296 0a8c 04       		.byte	0x4
 2297 0a8d 6F030000 		.4byte	0x36f
 2298 0a91 03       		.uleb128 0x3
 2299 0a92 13060000 		.4byte	.LASF204
 2300 0a96 0A       		.byte	0xa
 2301 0a97 E5       		.byte	0xe5
 2302 0a98 360A0000 		.4byte	0xa36
 2303 0a9c 03       		.uleb128 0x3
 2304 0a9d DE080000 		.4byte	.LASF205
 2305 0aa1 0A       		.byte	0xa
 2306 0aa2 EE       		.byte	0xee
 2307 0aa3 A70A0000 		.4byte	0xaa7
 2308 0aa7 09       		.uleb128 0x9
 2309 0aa8 04       		.byte	0x4
 2310 0aa9 AD0A0000 		.4byte	0xaad
 2311 0aad 18       		.uleb128 0x18
 2312 0aae 01       		.byte	0x1
 2313 0aaf BE0A0000 		.4byte	0xabe
 2314 0ab3 19       		.uleb128 0x19
 2315 0ab4 B1020000 		.4byte	0x2b1
 2316 0ab8 19       		.uleb128 0x19
 2317 0ab9 82000000 		.4byte	0x82
 2318 0abd 00       		.byte	0
ARM GAS  /tmp/ccRfa0ZT.s 			page 42


 2319 0abe 1A       		.uleb128 0x1a
 2320 0abf 01       		.byte	0x1
 2321 0ac0 0B       		.byte	0xb
 2322 0ac1 4E       		.byte	0x4e
 2323 0ac2 EB0A0000 		.4byte	0xaeb
 2324 0ac6 12       		.uleb128 0x12
 2325 0ac7 A6030000 		.4byte	.LASF206
 2326 0acb 00       		.sleb128 0
 2327 0acc 12       		.uleb128 0x12
 2328 0acd 410A0000 		.4byte	.LASF207
 2329 0ad1 01       		.sleb128 1
 2330 0ad2 12       		.uleb128 0x12
 2331 0ad3 BF030000 		.4byte	.LASF208
 2332 0ad7 02       		.sleb128 2
 2333 0ad8 12       		.uleb128 0x12
 2334 0ad9 B8080000 		.4byte	.LASF209
 2335 0add 03       		.sleb128 3
 2336 0ade 12       		.uleb128 0x12
 2337 0adf 46060000 		.4byte	.LASF210
 2338 0ae3 04       		.sleb128 4
 2339 0ae4 12       		.uleb128 0x12
 2340 0ae5 33040000 		.4byte	.LASF211
 2341 0ae9 05       		.sleb128 5
 2342 0aea 00       		.byte	0
 2343 0aeb 03       		.uleb128 0x3
 2344 0aec 93000000 		.4byte	.LASF212
 2345 0af0 0B       		.byte	0xb
 2346 0af1 55       		.byte	0x55
 2347 0af2 BE0A0000 		.4byte	0xabe
 2348 0af6 17       		.uleb128 0x17
 2349 0af7 E7030000 		.4byte	.LASF213
 2350 0afb 0C       		.byte	0xc
 2351 0afc 2701     		.2byte	0x127
 2352 0afe 5E000000 		.4byte	0x5e
 2353 0b02 17       		.uleb128 0x17
 2354 0b03 BF070000 		.4byte	.LASF214
 2355 0b07 0C       		.byte	0xc
 2356 0b08 2C01     		.2byte	0x12c
 2357 0b0a 5E000000 		.4byte	0x5e
 2358 0b0e 1B       		.uleb128 0x1b
 2359 0b0f 01       		.byte	0x1
 2360 0b10 0C       		.byte	0xc
 2361 0b11 3301     		.2byte	0x133
 2362 0b13 240B0000 		.4byte	0xb24
 2363 0b17 12       		.uleb128 0x12
 2364 0b18 AF000000 		.4byte	.LASF215
 2365 0b1c 00       		.sleb128 0
 2366 0b1d 12       		.uleb128 0x12
 2367 0b1e CF090000 		.4byte	.LASF216
 2368 0b22 01       		.sleb128 1
 2369 0b23 00       		.byte	0
 2370 0b24 17       		.uleb128 0x17
 2371 0b25 8E030000 		.4byte	.LASF217
 2372 0b29 0C       		.byte	0xc
 2373 0b2a 3601     		.2byte	0x136
 2374 0b2c 0E0B0000 		.4byte	0xb0e
 2375 0b30 17       		.uleb128 0x17
ARM GAS  /tmp/ccRfa0ZT.s 			page 43


 2376 0b31 9A090000 		.4byte	.LASF218
 2377 0b35 0C       		.byte	0xc
 2378 0b36 3B01     		.2byte	0x13b
 2379 0b38 3C0B0000 		.4byte	0xb3c
 2380 0b3c 0B       		.uleb128 0xb
 2381 0b3d 9A090000 		.4byte	.LASF218
 2382 0b41 34       		.byte	0x34
 2383 0b42 0C       		.byte	0xc
 2384 0b43 9F01     		.2byte	0x19f
 2385 0b45 E00B0000 		.4byte	0xbe0
 2386 0b49 16       		.uleb128 0x16
 2387 0b4a 06010000 		.4byte	.LASF219
 2388 0b4e 0C       		.byte	0xc
 2389 0b4f A301     		.2byte	0x1a3
 2390 0b51 EB0A0000 		.4byte	0xaeb
 2391 0b55 02       		.byte	0x2
 2392 0b56 23       		.byte	0x23
 2393 0b57 00       		.uleb128 0
 2394 0b58 16       		.uleb128 0x16
 2395 0b59 FF000000 		.4byte	.LASF220
 2396 0b5d 0C       		.byte	0xc
 2397 0b5e A701     		.2byte	0x1a7
 2398 0b60 170D0000 		.4byte	0xd17
 2399 0b64 02       		.byte	0x2
 2400 0b65 23       		.byte	0x23
 2401 0b66 04       		.uleb128 0x4
 2402 0b67 16       		.uleb128 0x16
 2403 0b68 A8040000 		.4byte	.LASF221
 2404 0b6c 0C       		.byte	0xc
 2405 0b6d AB01     		.2byte	0x1ab
 2406 0b6f 0E0C0000 		.4byte	0xc0e
 2407 0b73 02       		.byte	0x2
 2408 0b74 23       		.byte	0x23
 2409 0b75 08       		.uleb128 0x8
 2410 0b76 16       		.uleb128 0x16
 2411 0b77 33070000 		.4byte	.LASF222
 2412 0b7b 0C       		.byte	0xc
 2413 0b7c AF01     		.2byte	0x1af
 2414 0b7e 2C000000 		.4byte	0x2c
 2415 0b82 02       		.byte	0x2
 2416 0b83 23       		.byte	0x23
 2417 0b84 0C       		.uleb128 0xc
 2418 0b85 16       		.uleb128 0x16
 2419 0b86 830A0000 		.4byte	.LASF223
 2420 0b8a 0C       		.byte	0xc
 2421 0b8b B301     		.2byte	0x1b3
 2422 0b8d 220D0000 		.4byte	0xd22
 2423 0b91 02       		.byte	0x2
 2424 0b92 23       		.byte	0x23
 2425 0b93 10       		.uleb128 0x10
 2426 0b94 16       		.uleb128 0x16
 2427 0b95 910A0000 		.4byte	.LASF224
 2428 0b99 0C       		.byte	0xc
 2429 0b9a B801     		.2byte	0x1b8
 2430 0b9c 73020000 		.4byte	0x273
 2431 0ba0 02       		.byte	0x2
 2432 0ba1 23       		.byte	0x23
ARM GAS  /tmp/ccRfa0ZT.s 			page 44


 2433 0ba2 14       		.uleb128 0x14
 2434 0ba3 16       		.uleb128 0x16
 2435 0ba4 53070000 		.4byte	.LASF225
 2436 0ba8 0C       		.byte	0xc
 2437 0ba9 BF01     		.2byte	0x1bf
 2438 0bab BD030000 		.4byte	0x3bd
 2439 0baf 02       		.byte	0x2
 2440 0bb0 23       		.byte	0x23
 2441 0bb1 18       		.uleb128 0x18
 2442 0bb2 0C       		.uleb128 0xc
 2443 0bb3 61646300 		.ascii	"adc\000"
 2444 0bb7 0C       		.byte	0xc
 2445 0bb8 CB01     		.2byte	0x1cb
 2446 0bba 2D0D0000 		.4byte	0xd2d
 2447 0bbe 02       		.byte	0x2
 2448 0bbf 23       		.byte	0x23
 2449 0bc0 28       		.uleb128 0x28
 2450 0bc1 16       		.uleb128 0x16
 2451 0bc2 A7050000 		.4byte	.LASF226
 2452 0bc6 0C       		.byte	0xc
 2453 0bc7 CF01     		.2byte	0x1cf
 2454 0bc9 330D0000 		.4byte	0xd33
 2455 0bcd 02       		.byte	0x2
 2456 0bce 23       		.byte	0x23
 2457 0bcf 2C       		.uleb128 0x2c
 2458 0bd0 16       		.uleb128 0x16
 2459 0bd1 FF010000 		.4byte	.LASF227
 2460 0bd5 0C       		.byte	0xc
 2461 0bd6 D301     		.2byte	0x1d3
 2462 0bd8 82000000 		.4byte	0x82
 2463 0bdc 02       		.byte	0x2
 2464 0bdd 23       		.byte	0x23
 2465 0bde 30       		.uleb128 0x30
 2466 0bdf 00       		.byte	0
 2467 0be0 17       		.uleb128 0x17
 2468 0be1 63000000 		.4byte	.LASF228
 2469 0be5 0C       		.byte	0xc
 2470 0be6 4501     		.2byte	0x145
 2471 0be8 EC0B0000 		.4byte	0xbec
 2472 0bec 09       		.uleb128 0x9
 2473 0bed 04       		.byte	0x4
 2474 0bee F20B0000 		.4byte	0xbf2
 2475 0bf2 18       		.uleb128 0x18
 2476 0bf3 01       		.byte	0x1
 2477 0bf4 080C0000 		.4byte	0xc08
 2478 0bf8 19       		.uleb128 0x19
 2479 0bf9 080C0000 		.4byte	0xc08
 2480 0bfd 19       		.uleb128 0x19
 2481 0bfe 0E0C0000 		.4byte	0xc0e
 2482 0c02 19       		.uleb128 0x19
 2483 0c03 2C000000 		.4byte	0x2c
 2484 0c07 00       		.byte	0
 2485 0c08 09       		.uleb128 0x9
 2486 0c09 04       		.byte	0x4
 2487 0c0a 300B0000 		.4byte	0xb30
 2488 0c0e 09       		.uleb128 0x9
 2489 0c0f 04       		.byte	0x4
ARM GAS  /tmp/ccRfa0ZT.s 			page 45


 2490 0c10 F60A0000 		.4byte	0xaf6
 2491 0c14 17       		.uleb128 0x17
 2492 0c15 0B070000 		.4byte	.LASF229
 2493 0c19 0C       		.byte	0xc
 2494 0c1a 4E01     		.2byte	0x14e
 2495 0c1c 200C0000 		.4byte	0xc20
 2496 0c20 09       		.uleb128 0x9
 2497 0c21 04       		.byte	0x4
 2498 0c22 260C0000 		.4byte	0xc26
 2499 0c26 18       		.uleb128 0x18
 2500 0c27 01       		.byte	0x1
 2501 0c28 370C0000 		.4byte	0xc37
 2502 0c2c 19       		.uleb128 0x19
 2503 0c2d 080C0000 		.4byte	0xc08
 2504 0c31 19       		.uleb128 0x19
 2505 0c32 240B0000 		.4byte	0xb24
 2506 0c36 00       		.byte	0
 2507 0c37 15       		.uleb128 0x15
 2508 0c38 2C       		.byte	0x2c
 2509 0c39 0C       		.byte	0xc
 2510 0c3a 5801     		.2byte	0x158
 2511 0c3c E60C0000 		.4byte	0xce6
 2512 0c40 16       		.uleb128 0x16
 2513 0c41 53040000 		.4byte	.LASF230
 2514 0c45 0C       		.byte	0xc
 2515 0c46 5C01     		.2byte	0x15c
 2516 0c48 AD000000 		.4byte	0xad
 2517 0c4c 02       		.byte	0x2
 2518 0c4d 23       		.byte	0x23
 2519 0c4e 00       		.uleb128 0
 2520 0c4f 16       		.uleb128 0x16
 2521 0c50 EE070000 		.4byte	.LASF231
 2522 0c54 0C       		.byte	0xc
 2523 0c55 6001     		.2byte	0x160
 2524 0c57 020B0000 		.4byte	0xb02
 2525 0c5b 02       		.byte	0x2
 2526 0c5c 23       		.byte	0x23
 2527 0c5d 04       		.uleb128 0x4
 2528 0c5e 16       		.uleb128 0x16
 2529 0c5f 9A010000 		.4byte	.LASF232
 2530 0c63 0C       		.byte	0xc
 2531 0c64 6401     		.2byte	0x164
 2532 0c66 E00B0000 		.4byte	0xbe0
 2533 0c6a 02       		.byte	0x2
 2534 0c6b 23       		.byte	0x23
 2535 0c6c 08       		.uleb128 0x8
 2536 0c6d 16       		.uleb128 0x16
 2537 0c6e 6A010000 		.4byte	.LASF233
 2538 0c72 0C       		.byte	0xc
 2539 0c73 6801     		.2byte	0x168
 2540 0c75 140C0000 		.4byte	0xc14
 2541 0c79 02       		.byte	0x2
 2542 0c7a 23       		.byte	0x23
 2543 0c7b 0C       		.uleb128 0xc
 2544 0c7c 0C       		.uleb128 0xc
 2545 0c7d 63723100 		.ascii	"cr1\000"
 2546 0c81 0C       		.byte	0xc
ARM GAS  /tmp/ccRfa0ZT.s 			page 46


 2547 0c82 6F01     		.2byte	0x16f
 2548 0c84 82000000 		.4byte	0x82
 2549 0c88 02       		.byte	0x2
 2550 0c89 23       		.byte	0x23
 2551 0c8a 10       		.uleb128 0x10
 2552 0c8b 0C       		.uleb128 0xc
 2553 0c8c 63723200 		.ascii	"cr2\000"
 2554 0c90 0C       		.byte	0xc
 2555 0c91 7601     		.2byte	0x176
 2556 0c93 82000000 		.4byte	0x82
 2557 0c97 02       		.byte	0x2
 2558 0c98 23       		.byte	0x23
 2559 0c99 14       		.uleb128 0x14
 2560 0c9a 16       		.uleb128 0x16
 2561 0c9b 53060000 		.4byte	.LASF234
 2562 0c9f 0C       		.byte	0xc
 2563 0ca0 7C01     		.2byte	0x17c
 2564 0ca2 82000000 		.4byte	0x82
 2565 0ca6 02       		.byte	0x2
 2566 0ca7 23       		.byte	0x23
 2567 0ca8 18       		.uleb128 0x18
 2568 0ca9 16       		.uleb128 0x16
 2569 0caa 59060000 		.4byte	.LASF235
 2570 0cae 0C       		.byte	0xc
 2571 0caf 8201     		.2byte	0x182
 2572 0cb1 82000000 		.4byte	0x82
 2573 0cb5 02       		.byte	0x2
 2574 0cb6 23       		.byte	0x23
 2575 0cb7 1C       		.uleb128 0x1c
 2576 0cb8 16       		.uleb128 0x16
 2577 0cb9 1F000000 		.4byte	.LASF236
 2578 0cbd 0C       		.byte	0xc
 2579 0cbe 8701     		.2byte	0x187
 2580 0cc0 82000000 		.4byte	0x82
 2581 0cc4 02       		.byte	0x2
 2582 0cc5 23       		.byte	0x23
 2583 0cc6 20       		.uleb128 0x20
 2584 0cc7 16       		.uleb128 0x16
 2585 0cc8 24000000 		.4byte	.LASF237
 2586 0ccc 0C       		.byte	0xc
 2587 0ccd 8C01     		.2byte	0x18c
 2588 0ccf 82000000 		.4byte	0x82
 2589 0cd3 02       		.byte	0x2
 2590 0cd4 23       		.byte	0x23
 2591 0cd5 24       		.uleb128 0x24
 2592 0cd6 16       		.uleb128 0x16
 2593 0cd7 4E040000 		.4byte	.LASF238
 2594 0cdb 0C       		.byte	0xc
 2595 0cdc 9101     		.2byte	0x191
 2596 0cde 82000000 		.4byte	0x82
 2597 0ce2 02       		.byte	0x2
 2598 0ce3 23       		.byte	0x23
 2599 0ce4 28       		.uleb128 0x28
 2600 0ce5 00       		.byte	0
 2601 0ce6 17       		.uleb128 0x17
 2602 0ce7 33060000 		.4byte	.LASF239
 2603 0ceb 0C       		.byte	0xc
ARM GAS  /tmp/ccRfa0ZT.s 			page 47


 2604 0cec 9201     		.2byte	0x192
 2605 0cee 370C0000 		.4byte	0xc37
 2606 0cf2 15       		.uleb128 0x15
 2607 0cf3 04       		.byte	0x4
 2608 0cf4 0C       		.byte	0xc
 2609 0cf5 9801     		.2byte	0x198
 2610 0cf7 0B0D0000 		.4byte	0xd0b
 2611 0cfb 16       		.uleb128 0x16
 2612 0cfc 3B0A0000 		.4byte	.LASF240
 2613 0d00 0C       		.byte	0xc
 2614 0d01 9901     		.2byte	0x199
 2615 0d03 82000000 		.4byte	0x82
 2616 0d07 02       		.byte	0x2
 2617 0d08 23       		.byte	0x23
 2618 0d09 00       		.uleb128 0
 2619 0d0a 00       		.byte	0
 2620 0d0b 17       		.uleb128 0x17
 2621 0d0c C20C0000 		.4byte	.LASF241
 2622 0d10 0C       		.byte	0xc
 2623 0d11 9A01     		.2byte	0x19a
 2624 0d13 F20C0000 		.4byte	0xcf2
 2625 0d17 09       		.uleb128 0x9
 2626 0d18 04       		.byte	0x4
 2627 0d19 1D0D0000 		.4byte	0xd1d
 2628 0d1d 10       		.uleb128 0x10
 2629 0d1e 0B0D0000 		.4byte	0xd0b
 2630 0d22 09       		.uleb128 0x9
 2631 0d23 04       		.byte	0x4
 2632 0d24 280D0000 		.4byte	0xd28
 2633 0d28 10       		.uleb128 0x10
 2634 0d29 E60C0000 		.4byte	0xce6
 2635 0d2d 09       		.uleb128 0x9
 2636 0d2e 04       		.byte	0x4
 2637 0d2f 9F070000 		.4byte	0x79f
 2638 0d33 09       		.uleb128 0x9
 2639 0d34 04       		.byte	0x4
 2640 0d35 390D0000 		.4byte	0xd39
 2641 0d39 10       		.uleb128 0x10
 2642 0d3a 910A0000 		.4byte	0xa91
 2643 0d3e 1C       		.uleb128 0x1c
 2644 0d3f 01       		.byte	0x1
 2645 0d40 A4090000 		.4byte	.LASF242
 2646 0d44 01       		.byte	0x1
 2647 0d45 AF       		.byte	0xaf
 2648 0d46 01       		.byte	0x1
 2649 0d47 00000000 		.4byte	.LFB120
 2650 0d4b 44000000 		.4byte	.LFE120
 2651 0d4f 00000000 		.4byte	.LLST0
 2652 0d53 01       		.byte	0x1
 2653 0d54 830D0000 		.4byte	0xd83
 2654 0d58 1D       		.uleb128 0x1d
 2655 0d59 1C000000 		.4byte	.LVL0
 2656 0d5d E5110000 		.4byte	0x11e5
 2657 0d61 6C0D0000 		.4byte	0xd6c
 2658 0d65 1E       		.uleb128 0x1e
 2659 0d66 01       		.byte	0x1
 2660 0d67 50       		.byte	0x50
ARM GAS  /tmp/ccRfa0ZT.s 			page 48


 2661 0d68 02       		.byte	0x2
 2662 0d69 74       		.byte	0x74
 2663 0d6a 00       		.sleb128 0
 2664 0d6b 00       		.byte	0
 2665 0d6c 1F       		.uleb128 0x1f
 2666 0d6d 40000000 		.4byte	.LVL1
 2667 0d71 01       		.byte	0x1
 2668 0d72 FA110000 		.4byte	0x11fa
 2669 0d76 1E       		.uleb128 0x1e
 2670 0d77 01       		.byte	0x1
 2671 0d78 51       		.byte	0x51
 2672 0d79 02       		.byte	0x2
 2673 0d7a 08       		.byte	0x8
 2674 0d7b 60       		.byte	0x60
 2675 0d7c 1E       		.uleb128 0x1e
 2676 0d7d 01       		.byte	0x1
 2677 0d7e 50       		.byte	0x50
 2678 0d7f 01       		.byte	0x1
 2679 0d80 42       		.byte	0x42
 2680 0d81 00       		.byte	0
 2681 0d82 00       		.byte	0
 2682 0d83 1C       		.uleb128 0x1c
 2683 0d84 01       		.byte	0x1
 2684 0d85 32000000 		.4byte	.LASF243
 2685 0d89 01       		.byte	0x1
 2686 0d8a E6       		.byte	0xe6
 2687 0d8b 01       		.byte	0x1
 2688 0d8c 00000000 		.4byte	.LFB121
 2689 0d90 64000000 		.4byte	.LFE121
 2690 0d94 20000000 		.4byte	.LLST1
 2691 0d98 01       		.byte	0x1
 2692 0d99 F90D0000 		.4byte	0xdf9
 2693 0d9d 20       		.uleb128 0x20
 2694 0d9e 06070000 		.4byte	.LASF245
 2695 0da2 01       		.byte	0x1
 2696 0da3 E6       		.byte	0xe6
 2697 0da4 080C0000 		.4byte	0xc08
 2698 0da8 40000000 		.4byte	.LLST2
 2699 0dac 21       		.uleb128 0x21
 2700 0dad 20000000 		.4byte	.LBB2
 2701 0db1 64000000 		.4byte	.LBE2
 2702 0db5 22       		.uleb128 0x22
 2703 0db6 6200     		.ascii	"b\000"
 2704 0db8 01       		.byte	0x1
 2705 0db9 EC       		.byte	0xec
 2706 0dba AD000000 		.4byte	0xad
 2707 0dbe 74000000 		.4byte	.LLST3
 2708 0dc2 1D       		.uleb128 0x1d
 2709 0dc3 2C000000 		.4byte	.LVL6
 2710 0dc7 14120000 		.4byte	0x1214
 2711 0dcb E40D0000 		.4byte	0xde4
 2712 0dcf 1E       		.uleb128 0x1e
 2713 0dd0 01       		.byte	0x1
 2714 0dd1 53       		.byte	0x53
 2715 0dd2 02       		.byte	0x2
 2716 0dd3 74       		.byte	0x74
 2717 0dd4 00       		.sleb128 0
ARM GAS  /tmp/ccRfa0ZT.s 			page 49


 2718 0dd5 1E       		.uleb128 0x1e
 2719 0dd6 01       		.byte	0x1
 2720 0dd7 52       		.byte	0x52
 2721 0dd8 05       		.byte	0x5
 2722 0dd9 03       		.byte	0x3
 2723 0dda 00000000 		.4byte	adc_lld_serve_rx_interrupt
 2724 0dde 1E       		.uleb128 0x1e
 2725 0ddf 01       		.byte	0x1
 2726 0de0 51       		.byte	0x51
 2727 0de1 01       		.byte	0x1
 2728 0de2 36       		.byte	0x36
 2729 0de3 00       		.byte	0
 2730 0de4 23       		.uleb128 0x23
 2731 0de5 54000000 		.4byte	.LVL10
 2732 0de9 3C120000 		.4byte	0x123c
 2733 0ded 1E       		.uleb128 0x1e
 2734 0dee 01       		.byte	0x1
 2735 0def 50       		.byte	0x50
 2736 0df0 05       		.byte	0x5
 2737 0df1 03       		.byte	0x3
 2738 0df2 00000000 		.4byte	.LC0
 2739 0df6 00       		.byte	0
 2740 0df7 00       		.byte	0
 2741 0df8 00       		.byte	0
 2742 0df9 24       		.uleb128 0x24
 2743 0dfa 01       		.byte	0x1
 2744 0dfb 56020000 		.4byte	.LASF244
 2745 0dff 01       		.byte	0x1
 2746 0e00 2001     		.2byte	0x120
 2747 0e02 01       		.byte	0x1
 2748 0e03 00000000 		.4byte	.LFB122
 2749 0e07 38000000 		.4byte	.LFE122
 2750 0e0b 92000000 		.4byte	.LLST4
 2751 0e0f 01       		.byte	0x1
 2752 0e10 2E0E0000 		.4byte	0xe2e
 2753 0e14 25       		.uleb128 0x25
 2754 0e15 06070000 		.4byte	.LASF245
 2755 0e19 01       		.byte	0x1
 2756 0e1a 2001     		.2byte	0x120
 2757 0e1c 080C0000 		.4byte	0xc08
 2758 0e20 B2000000 		.4byte	.LLST5
 2759 0e24 26       		.uleb128 0x26
 2760 0e25 12000000 		.4byte	.LVL15
 2761 0e29 50120000 		.4byte	0x1250
 2762 0e2d 00       		.byte	0
 2763 0e2e 24       		.uleb128 0x24
 2764 0e2f 01       		.byte	0x1
 2765 0e30 5F060000 		.4byte	.LASF246
 2766 0e34 01       		.byte	0x1
 2767 0e35 4001     		.2byte	0x140
 2768 0e37 01       		.byte	0x1
 2769 0e38 00000000 		.4byte	.LFB123
 2770 0e3c 78000000 		.4byte	.LFE123
 2771 0e40 E6000000 		.4byte	.LLST6
 2772 0e44 01       		.byte	0x1
 2773 0e45 7A0E0000 		.4byte	0xe7a
 2774 0e49 25       		.uleb128 0x25
ARM GAS  /tmp/ccRfa0ZT.s 			page 50


 2775 0e4a 06070000 		.4byte	.LASF245
 2776 0e4e 01       		.byte	0x1
 2777 0e4f 4001     		.2byte	0x140
 2778 0e51 080C0000 		.4byte	0xc08
 2779 0e55 06010000 		.4byte	.LLST7
 2780 0e59 27       		.uleb128 0x27
 2781 0e5a CE0A0000 		.4byte	.LASF247
 2782 0e5e 01       		.byte	0x1
 2783 0e5f 4101     		.2byte	0x141
 2784 0e61 82000000 		.4byte	0x82
 2785 0e65 27010000 		.4byte	.LLST8
 2786 0e69 27       		.uleb128 0x27
 2787 0e6a 830A0000 		.4byte	.LASF223
 2788 0e6e 01       		.byte	0x1
 2789 0e6f 4201     		.2byte	0x142
 2790 0e71 220D0000 		.4byte	0xd22
 2791 0e75 57010000 		.4byte	.LLST9
 2792 0e79 00       		.byte	0
 2793 0e7a 24       		.uleb128 0x24
 2794 0e7b 01       		.byte	0x1
 2795 0e7c 5B080000 		.4byte	.LASF248
 2796 0e80 01       		.byte	0x1
 2797 0e81 6A01     		.2byte	0x16a
 2798 0e83 01       		.byte	0x1
 2799 0e84 00000000 		.4byte	.LFB124
 2800 0e88 30000000 		.4byte	.LFE124
 2801 0e8c 79010000 		.4byte	.LLST10
 2802 0e90 01       		.byte	0x1
 2803 0e91 A60E0000 		.4byte	0xea6
 2804 0e95 25       		.uleb128 0x25
 2805 0e96 06070000 		.4byte	.LASF245
 2806 0e9a 01       		.byte	0x1
 2807 0e9b 6A01     		.2byte	0x16a
 2808 0e9d 080C0000 		.4byte	0xc08
 2809 0ea1 99010000 		.4byte	.LLST11
 2810 0ea5 00       		.byte	0
 2811 0ea6 28       		.uleb128 0x28
 2812 0ea7 BE0B0000 		.4byte	.LASF274
 2813 0eab 01       		.byte	0x1
 2814 0eac 50       		.byte	0x50
 2815 0ead 01       		.byte	0x1
 2816 0eae 00000000 		.4byte	.LFB118
 2817 0eb2 FC000000 		.4byte	.LFE118
 2818 0eb6 BA010000 		.4byte	.LLST12
 2819 0eba 01       		.byte	0x1
 2820 0ebb 6B100000 		.4byte	0x106b
 2821 0ebf 20       		.uleb128 0x20
 2822 0ec0 06070000 		.4byte	.LASF245
 2823 0ec4 01       		.byte	0x1
 2824 0ec5 50       		.byte	0x50
 2825 0ec6 080C0000 		.4byte	0xc08
 2826 0eca DA010000 		.4byte	.LLST13
 2827 0ece 20       		.uleb128 0x20
 2828 0ecf 3D040000 		.4byte	.LASF249
 2829 0ed3 01       		.byte	0x1
 2830 0ed4 50       		.byte	0x50
 2831 0ed5 82000000 		.4byte	0x82
ARM GAS  /tmp/ccRfa0ZT.s 			page 51


 2832 0ed9 0E020000 		.4byte	.LLST14
 2833 0edd 29       		.uleb128 0x29
 2834 0ede 3A000000 		.4byte	.LBB3
 2835 0ee2 4E000000 		.4byte	.LBE3
 2836 0ee6 180F0000 		.4byte	0xf18
 2837 0eea 2A       		.uleb128 0x2a
 2838 0eeb E0090000 		.4byte	.LASF250
 2839 0eef 01       		.byte	0x1
 2840 0ef0 62       		.byte	0x62
 2841 0ef1 2C000000 		.4byte	0x2c
 2842 0ef5 77020000 		.4byte	.LLST15
 2843 0ef9 2A       		.uleb128 0x2a
 2844 0efa 84090000 		.4byte	.LASF251
 2845 0efe 01       		.byte	0x1
 2846 0eff 62       		.byte	0x62
 2847 0f00 2C000000 		.4byte	0x2c
 2848 0f04 8A020000 		.4byte	.LLST16
 2849 0f08 2B       		.uleb128 0x2b
 2850 0f09 4C000000 		.4byte	.LVL32
 2851 0f0d 02       		.byte	0x2
 2852 0f0e 75       		.byte	0x75
 2853 0f0f 00       		.sleb128 0
 2854 0f10 1E       		.uleb128 0x1e
 2855 0f11 01       		.byte	0x1
 2856 0f12 50       		.byte	0x50
 2857 0f13 02       		.byte	0x2
 2858 0f14 74       		.byte	0x74
 2859 0f15 00       		.sleb128 0
 2860 0f16 00       		.byte	0
 2861 0f17 00       		.byte	0
 2862 0f18 29       		.uleb128 0x29
 2863 0f19 70000000 		.4byte	.LBB4
 2864 0f1d 76000000 		.4byte	.LBE4
 2865 0f21 350F0000 		.4byte	0xf35
 2866 0f25 22       		.uleb128 0x22
 2867 0f26 746D7000 		.ascii	"tmp\000"
 2868 0f2a 01       		.byte	0x1
 2869 0f2b 56       		.byte	0x56
 2870 0f2c 82000000 		.4byte	0x82
 2871 0f30 AB020000 		.4byte	.LLST17
 2872 0f34 00       		.byte	0
 2873 0f35 29       		.uleb128 0x29
 2874 0f36 7E000000 		.4byte	.LBB5
 2875 0f3a 8C000000 		.4byte	.LBE5
 2876 0f3e 5A0F0000 		.4byte	0xf5a
 2877 0f42 22       		.uleb128 0x22
 2878 0f43 747000   		.ascii	"tp\000"
 2879 0f46 01       		.byte	0x1
 2880 0f47 56       		.byte	0x56
 2881 0f48 73020000 		.4byte	0x273
 2882 0f4c BE020000 		.4byte	.LLST18
 2883 0f50 26       		.uleb128 0x26
 2884 0f51 8C000000 		.4byte	.LVL41
 2885 0f55 65120000 		.4byte	0x1265
 2886 0f59 00       		.byte	0
 2887 0f5a 29       		.uleb128 0x29
 2888 0f5b 90000000 		.4byte	.LBB6
ARM GAS  /tmp/ccRfa0ZT.s 			page 52


 2889 0f5f 98000000 		.4byte	.LBE6
 2890 0f63 770F0000 		.4byte	0xf77
 2891 0f67 22       		.uleb128 0x22
 2892 0f68 746D7000 		.ascii	"tmp\000"
 2893 0f6c 01       		.byte	0x1
 2894 0f6d 62       		.byte	0x62
 2895 0f6e 82000000 		.4byte	0x82
 2896 0f72 D1020000 		.4byte	.LLST19
 2897 0f76 00       		.byte	0
 2898 0f77 29       		.uleb128 0x29
 2899 0f78 B6000000 		.4byte	.LBB7
 2900 0f7c C8000000 		.4byte	.LBE7
 2901 0f80 AF0F0000 		.4byte	0xfaf
 2902 0f84 2A       		.uleb128 0x2a
 2903 0f85 E0090000 		.4byte	.LASF250
 2904 0f89 01       		.byte	0x1
 2905 0f8a 62       		.byte	0x62
 2906 0f8b 2C000000 		.4byte	0x2c
 2907 0f8f E4020000 		.4byte	.LLST20
 2908 0f93 2A       		.uleb128 0x2a
 2909 0f94 84090000 		.4byte	.LASF251
 2910 0f98 01       		.byte	0x1
 2911 0f99 62       		.byte	0x62
 2912 0f9a 2C000000 		.4byte	0x2c
 2913 0f9e F7020000 		.4byte	.LLST21
 2914 0fa2 2C       		.uleb128 0x2c
 2915 0fa3 C8000000 		.4byte	.LVL51
 2916 0fa7 1E       		.uleb128 0x1e
 2917 0fa8 01       		.byte	0x1
 2918 0fa9 50       		.byte	0x50
 2919 0faa 02       		.byte	0x2
 2920 0fab 74       		.byte	0x74
 2921 0fac 00       		.sleb128 0
 2922 0fad 00       		.byte	0
 2923 0fae 00       		.byte	0
 2924 0faf 29       		.uleb128 0x29
 2925 0fb0 D2000000 		.4byte	.LBB8
 2926 0fb4 D8000000 		.4byte	.LBE8
 2927 0fb8 CC0F0000 		.4byte	0xfcc
 2928 0fbc 22       		.uleb128 0x22
 2929 0fbd 746D7000 		.ascii	"tmp\000"
 2930 0fc1 01       		.byte	0x1
 2931 0fc2 62       		.byte	0x62
 2932 0fc3 82000000 		.4byte	0x82
 2933 0fc7 18030000 		.4byte	.LLST22
 2934 0fcb 00       		.byte	0
 2935 0fcc 29       		.uleb128 0x29
 2936 0fcd E2000000 		.4byte	.LBB9
 2937 0fd1 EE000000 		.4byte	.LBE9
 2938 0fd5 F10F0000 		.4byte	0xff1
 2939 0fd9 22       		.uleb128 0x22
 2940 0fda 747000   		.ascii	"tp\000"
 2941 0fdd 01       		.byte	0x1
 2942 0fde 62       		.byte	0x62
 2943 0fdf 73020000 		.4byte	0x273
 2944 0fe3 2B030000 		.4byte	.LLST23
 2945 0fe7 26       		.uleb128 0x26
ARM GAS  /tmp/ccRfa0ZT.s 			page 53


 2946 0fe8 EC000000 		.4byte	.LVL56
 2947 0fec 65120000 		.4byte	0x1265
 2948 0ff0 00       		.byte	0
 2949 0ff1 2D       		.uleb128 0x2d
 2950 0ff2 22000000 		.4byte	.LVL29
 2951 0ff6 01100000 		.4byte	0x1001
 2952 0ffa 1E       		.uleb128 0x1e
 2953 0ffb 01       		.byte	0x1
 2954 0ffc 50       		.byte	0x50
 2955 0ffd 02       		.byte	0x2
 2956 0ffe 74       		.byte	0x74
 2957 0fff 00       		.sleb128 0
 2958 1000 00       		.byte	0
 2959 1001 26       		.uleb128 0x26
 2960 1002 52000000 		.4byte	.LVL34
 2961 1006 7A0E0000 		.4byte	0xe7a
 2962 100a 2D       		.uleb128 0x2d
 2963 100b 62000000 		.4byte	.LVL36
 2964 100f 1F100000 		.4byte	0x101f
 2965 1013 1E       		.uleb128 0x1e
 2966 1014 01       		.byte	0x1
 2967 1015 51       		.byte	0x51
 2968 1016 01       		.byte	0x1
 2969 1017 30       		.byte	0x30
 2970 1018 1E       		.uleb128 0x1e
 2971 1019 01       		.byte	0x1
 2972 101a 50       		.byte	0x50
 2973 101b 02       		.byte	0x2
 2974 101c 74       		.byte	0x74
 2975 101d 00       		.sleb128 0
 2976 101e 00       		.byte	0
 2977 101f 26       		.uleb128 0x26
 2978 1020 7A000000 		.4byte	.LVL39
 2979 1024 7D120000 		.4byte	0x127d
 2980 1028 26       		.uleb128 0x26
 2981 1029 90000000 		.4byte	.LVL42
 2982 102d 87120000 		.4byte	0x1287
 2983 1031 2D       		.uleb128 0x2d
 2984 1032 9E000000 		.4byte	.LVL46
 2985 1036 41100000 		.4byte	0x1041
 2986 103a 1E       		.uleb128 0x1e
 2987 103b 01       		.byte	0x1
 2988 103c 50       		.byte	0x50
 2989 103d 02       		.byte	0x2
 2990 103e 74       		.byte	0x74
 2991 103f 00       		.sleb128 0
 2992 1040 00       		.byte	0
 2993 1041 1D       		.uleb128 0x1d
 2994 1042 A6000000 		.4byte	.LVL48
 2995 1046 7A0E0000 		.4byte	0xe7a
 2996 104a 55100000 		.4byte	0x1055
 2997 104e 1E       		.uleb128 0x1e
 2998 104f 01       		.byte	0x1
 2999 1050 50       		.byte	0x50
 3000 1051 02       		.byte	0x2
 3001 1052 74       		.byte	0x74
 3002 1053 00       		.sleb128 0
ARM GAS  /tmp/ccRfa0ZT.s 			page 54


 3003 1054 00       		.byte	0
 3004 1055 26       		.uleb128 0x26
 3005 1056 DC000000 		.4byte	.LVL54
 3006 105a 7D120000 		.4byte	0x127d
 3007 105e 2C       		.uleb128 0x2c
 3008 105f FA000000 		.4byte	.LVL57
 3009 1063 1E       		.uleb128 0x1e
 3010 1064 01       		.byte	0x1
 3011 1065 50       		.byte	0x50
 3012 1066 02       		.byte	0x2
 3013 1067 74       		.byte	0x74
 3014 1068 00       		.sleb128 0
 3015 1069 00       		.byte	0
 3016 106a 00       		.byte	0
 3017 106b 1C       		.uleb128 0x1c
 3018 106c 01       		.byte	0x1
 3019 106d 22020000 		.4byte	.LASF252
 3020 1071 01       		.byte	0x1
 3021 1072 73       		.byte	0x73
 3022 1073 01       		.byte	0x1
 3023 1074 00000000 		.4byte	.LFB119
 3024 1078 84000000 		.4byte	.LFE119
 3025 107c 3E030000 		.4byte	.LLST24
 3026 1080 01       		.byte	0x1
 3027 1081 4A110000 		.4byte	0x114a
 3028 1085 22       		.uleb128 0x22
 3029 1086 737200   		.ascii	"sr\000"
 3030 1089 01       		.byte	0x1
 3031 108a 74       		.byte	0x74
 3032 108b 82000000 		.4byte	0x82
 3033 108f 5E030000 		.4byte	.LLST25
 3034 1093 29       		.uleb128 0x29
 3035 1094 46000000 		.4byte	.LBB10
 3036 1098 4C000000 		.4byte	.LBE10
 3037 109c B0100000 		.4byte	0x10b0
 3038 10a0 22       		.uleb128 0x22
 3039 10a1 746D7000 		.ascii	"tmp\000"
 3040 10a5 01       		.byte	0x1
 3041 10a6 81       		.byte	0x81
 3042 10a7 82000000 		.4byte	0x82
 3043 10ab 71030000 		.4byte	.LLST26
 3044 10af 00       		.byte	0
 3045 10b0 29       		.uleb128 0x29
 3046 10b1 54000000 		.4byte	.LBB11
 3047 10b5 62000000 		.4byte	.LBE11
 3048 10b9 D5100000 		.4byte	0x10d5
 3049 10bd 22       		.uleb128 0x22
 3050 10be 747000   		.ascii	"tp\000"
 3051 10c1 01       		.byte	0x1
 3052 10c2 81       		.byte	0x81
 3053 10c3 73020000 		.4byte	0x273
 3054 10c7 84030000 		.4byte	.LLST27
 3055 10cb 26       		.uleb128 0x26
 3056 10cc 62000000 		.4byte	.LVL67
 3057 10d0 65120000 		.4byte	0x1265
 3058 10d4 00       		.byte	0
 3059 10d5 29       		.uleb128 0x29
ARM GAS  /tmp/ccRfa0ZT.s 			page 55


 3060 10d6 66000000 		.4byte	.LBB12
 3061 10da 6C000000 		.4byte	.LBE12
 3062 10de F2100000 		.4byte	0x10f2
 3063 10e2 22       		.uleb128 0x22
 3064 10e3 746D7000 		.ascii	"tmp\000"
 3065 10e7 01       		.byte	0x1
 3066 10e8 81       		.byte	0x81
 3067 10e9 82000000 		.4byte	0x82
 3068 10ed 97030000 		.4byte	.LLST28
 3069 10f1 00       		.byte	0
 3070 10f2 26       		.uleb128 0x26
 3071 10f3 06000000 		.4byte	.LVL58
 3072 10f7 91120000 		.4byte	0x1291
 3073 10fb 1D       		.uleb128 0x1d
 3074 10fc 2C000000 		.4byte	.LVL61
 3075 1100 7A0E0000 		.4byte	0xe7a
 3076 1104 0F110000 		.4byte	0x110f
 3077 1108 1E       		.uleb128 0x1e
 3078 1109 01       		.byte	0x1
 3079 110a 50       		.byte	0x50
 3080 110b 02       		.byte	0x2
 3081 110c 74       		.byte	0x74
 3082 110d 00       		.sleb128 0
 3083 110e 00       		.byte	0
 3084 110f 2D       		.uleb128 0x2d
 3085 1110 3C000000 		.4byte	.LVL62
 3086 1114 24110000 		.4byte	0x1124
 3087 1118 1E       		.uleb128 0x1e
 3088 1119 01       		.byte	0x1
 3089 111a 51       		.byte	0x51
 3090 111b 01       		.byte	0x1
 3091 111c 31       		.byte	0x31
 3092 111d 1E       		.uleb128 0x1e
 3093 111e 01       		.byte	0x1
 3094 111f 50       		.byte	0x50
 3095 1120 02       		.byte	0x2
 3096 1121 74       		.byte	0x74
 3097 1122 00       		.sleb128 0
 3098 1123 00       		.byte	0
 3099 1124 26       		.uleb128 0x26
 3100 1125 50000000 		.4byte	.LVL65
 3101 1129 7D120000 		.4byte	0x127d
 3102 112d 26       		.uleb128 0x26
 3103 112e 66000000 		.4byte	.LVL68
 3104 1132 87120000 		.4byte	0x1287
 3105 1136 26       		.uleb128 0x26
 3106 1137 70000000 		.4byte	.LVL71
 3107 113b 9B120000 		.4byte	0x129b
 3108 113f 2E       		.uleb128 0x2e
 3109 1140 78000000 		.4byte	.LVL72
 3110 1144 01       		.byte	0x1
 3111 1145 A5120000 		.4byte	0x12a5
 3112 1149 00       		.byte	0
 3113 114a 2F       		.uleb128 0x2f
 3114 114b 01       		.byte	0x1
 3115 114c 8E020000 		.4byte	.LASF253
 3116 1150 01       		.byte	0x1
ARM GAS  /tmp/ccRfa0ZT.s 			page 56


 3117 1151 7801     		.2byte	0x178
 3118 1153 01       		.byte	0x1
 3119 1154 00000000 		.4byte	.LFB125
 3120 1158 12000000 		.4byte	.LFE125
 3121 115c 02       		.byte	0x2
 3122 115d 7D       		.byte	0x7d
 3123 115e 00       		.sleb128 0
 3124 115f 01       		.byte	0x1
 3125 1160 2F       		.uleb128 0x2f
 3126 1161 01       		.byte	0x1
 3127 1162 8B0C0000 		.4byte	.LASF254
 3128 1166 01       		.byte	0x1
 3129 1167 8301     		.2byte	0x183
 3130 1169 01       		.byte	0x1
 3131 116a 00000000 		.4byte	.LFB126
 3132 116e 12000000 		.4byte	.LFE126
 3133 1172 02       		.byte	0x2
 3134 1173 7D       		.byte	0x7d
 3135 1174 00       		.sleb128 0
 3136 1175 01       		.byte	0x1
 3137 1176 2F       		.uleb128 0x2f
 3138 1177 01       		.byte	0x1
 3139 1178 EF090000 		.4byte	.LASF255
 3140 117c 01       		.byte	0x1
 3141 117d 8D01     		.2byte	0x18d
 3142 117f 01       		.byte	0x1
 3143 1180 00000000 		.4byte	.LFB127
 3144 1184 12000000 		.4byte	.LFE127
 3145 1188 02       		.byte	0x2
 3146 1189 7D       		.byte	0x7d
 3147 118a 00       		.sleb128 0
 3148 118b 01       		.byte	0x1
 3149 118c 2F       		.uleb128 0x2f
 3150 118d 01       		.byte	0x1
 3151 118e 55010000 		.4byte	.LASF256
 3152 1192 01       		.byte	0x1
 3153 1193 9701     		.2byte	0x197
 3154 1195 01       		.byte	0x1
 3155 1196 00000000 		.4byte	.LFB128
 3156 119a 12000000 		.4byte	.LFE128
 3157 119e 02       		.byte	0x2
 3158 119f 7D       		.byte	0x7d
 3159 11a0 00       		.sleb128 0
 3160 11a1 01       		.byte	0x1
 3161 11a2 30       		.uleb128 0x30
 3162 11a3 400B0000 		.4byte	.LASF257
 3163 11a7 0D       		.byte	0xd
 3164 11a8 9806     		.2byte	0x698
 3165 11aa 66060000 		.4byte	0x666
 3166 11ae 01       		.byte	0x1
 3167 11af 01       		.byte	0x1
 3168 11b0 13       		.uleb128 0x13
 3169 11b1 910A0000 		.4byte	0xa91
 3170 11b5 C0110000 		.4byte	0x11c0
 3171 11b9 14       		.uleb128 0x14
 3172 11ba 74030000 		.4byte	0x374
 3173 11be 0F       		.byte	0xf
ARM GAS  /tmp/ccRfa0ZT.s 			page 57


 3174 11bf 00       		.byte	0
 3175 11c0 30       		.uleb128 0x30
 3176 11c1 E2050000 		.4byte	.LASF258
 3177 11c5 0A       		.byte	0xa
 3178 11c6 BB01     		.2byte	0x1bb
 3179 11c8 CE110000 		.4byte	0x11ce
 3180 11cc 01       		.byte	0x1
 3181 11cd 01       		.byte	0x1
 3182 11ce 10       		.uleb128 0x10
 3183 11cf B0110000 		.4byte	0x11b0
 3184 11d3 31       		.uleb128 0x31
 3185 11d4 1A080000 		.4byte	.LASF259
 3186 11d8 01       		.byte	0x1
 3187 11d9 35       		.byte	0x35
 3188 11da 300B0000 		.4byte	0xb30
 3189 11de 01       		.byte	0x1
 3190 11df 05       		.byte	0x5
 3191 11e0 03       		.byte	0x3
 3192 11e1 00000000 		.4byte	ADCD1
 3193 11e5 32       		.uleb128 0x32
 3194 11e6 01       		.byte	0x1
 3195 11e7 040B0000 		.4byte	.LASF260
 3196 11eb 0B       		.byte	0xb
 3197 11ec 1B01     		.2byte	0x11b
 3198 11ee 01       		.byte	0x1
 3199 11ef 01       		.byte	0x1
 3200 11f0 FA110000 		.4byte	0x11fa
 3201 11f4 19       		.uleb128 0x19
 3202 11f5 080C0000 		.4byte	0xc08
 3203 11f9 00       		.byte	0
 3204 11fa 32       		.uleb128 0x32
 3205 11fb 01       		.byte	0x1
 3206 11fc 7C0B0000 		.4byte	.LASF261
 3207 1200 0E       		.byte	0xe
 3208 1201 1C01     		.2byte	0x11c
 3209 1203 01       		.byte	0x1
 3210 1204 01       		.byte	0x1
 3211 1205 14120000 		.4byte	0x1214
 3212 1209 19       		.uleb128 0x19
 3213 120a 82000000 		.4byte	0x82
 3214 120e 19       		.uleb128 0x19
 3215 120f 82000000 		.4byte	0x82
 3216 1213 00       		.byte	0
 3217 1214 33       		.uleb128 0x33
 3218 1215 01       		.byte	0x1
 3219 1216 91040000 		.4byte	.LASF264
 3220 121a 0A       		.byte	0xa
 3221 121b C201     		.2byte	0x1c2
 3222 121d 01       		.byte	0x1
 3223 121e AD000000 		.4byte	0xad
 3224 1222 01       		.byte	0x1
 3225 1223 3C120000 		.4byte	0x123c
 3226 1227 19       		.uleb128 0x19
 3227 1228 330D0000 		.4byte	0xd33
 3228 122c 19       		.uleb128 0x19
 3229 122d 82000000 		.4byte	0x82
 3230 1231 19       		.uleb128 0x19
ARM GAS  /tmp/ccRfa0ZT.s 			page 58


 3231 1232 9C0A0000 		.4byte	0xa9c
 3232 1236 19       		.uleb128 0x19
 3233 1237 B1020000 		.4byte	0x2b1
 3234 123b 00       		.byte	0
 3235 123c 34       		.uleb128 0x34
 3236 123d 01       		.byte	0x1
 3237 123e 83030000 		.4byte	.LASF262
 3238 1242 0F       		.byte	0xf
 3239 1243 EF       		.byte	0xef
 3240 1244 01       		.byte	0x1
 3241 1245 01       		.byte	0x1
 3242 1246 50120000 		.4byte	0x1250
 3243 124a 19       		.uleb128 0x19
 3244 124b FD030000 		.4byte	0x3fd
 3245 124f 00       		.byte	0
 3246 1250 32       		.uleb128 0x32
 3247 1251 01       		.byte	0x1
 3248 1252 9E000000 		.4byte	.LASF263
 3249 1256 0A       		.byte	0xa
 3250 1257 C601     		.2byte	0x1c6
 3251 1259 01       		.byte	0x1
 3252 125a 01       		.byte	0x1
 3253 125b 65120000 		.4byte	0x1265
 3254 125f 19       		.uleb128 0x19
 3255 1260 330D0000 		.4byte	0xd33
 3256 1264 00       		.byte	0
 3257 1265 35       		.uleb128 0x35
 3258 1266 01       		.byte	0x1
 3259 1267 C2000000 		.4byte	.LASF265
 3260 126b 10       		.byte	0x10
 3261 126c 89       		.byte	0x89
 3262 126d 01       		.byte	0x1
 3263 126e 73020000 		.4byte	0x273
 3264 1272 01       		.byte	0x1
 3265 1273 7D120000 		.4byte	0x127d
 3266 1277 19       		.uleb128 0x19
 3267 1278 73020000 		.4byte	0x273
 3268 127c 00       		.byte	0
 3269 127d 36       		.uleb128 0x36
 3270 127e 01       		.byte	0x1
 3271 127f 79040000 		.4byte	.LASF266
 3272 1283 0F       		.byte	0xf
 3273 1284 E2       		.byte	0xe2
 3274 1285 01       		.byte	0x1
 3275 1286 01       		.byte	0x1
 3276 1287 36       		.uleb128 0x36
 3277 1288 01       		.byte	0x1
 3278 1289 39070000 		.4byte	.LASF267
 3279 128d 0F       		.byte	0xf
 3280 128e E3       		.byte	0xe3
 3281 128f 01       		.byte	0x1
 3282 1290 01       		.byte	0x1
 3283 1291 36       		.uleb128 0x36
 3284 1292 01       		.byte	0x1
 3285 1293 C9040000 		.4byte	.LASF268
 3286 1297 0F       		.byte	0xf
 3287 1298 E4       		.byte	0xe4
ARM GAS  /tmp/ccRfa0ZT.s 			page 59


 3288 1299 01       		.byte	0x1
 3289 129a 01       		.byte	0x1
 3290 129b 36       		.uleb128 0x36
 3291 129c 01       		.byte	0x1
 3292 129d 09090000 		.4byte	.LASF269
 3293 12a1 0F       		.byte	0xf
 3294 12a2 E5       		.byte	0xe5
 3295 12a3 01       		.byte	0x1
 3296 12a4 01       		.byte	0x1
 3297 12a5 37       		.uleb128 0x37
 3298 12a6 01       		.byte	0x1
 3299 12a7 FB070000 		.4byte	.LASF270
 3300 12ab 07       		.byte	0x7
 3301 12ac FC01     		.2byte	0x1fc
 3302 12ae 01       		.byte	0x1
 3303 12af 01       		.byte	0x1
 3304 12b0 00       		.byte	0
 3305              		.section	.debug_abbrev,"",%progbits
 3306              	.Ldebug_abbrev0:
 3307 0000 01       		.uleb128 0x1
 3308 0001 11       		.uleb128 0x11
 3309 0002 01       		.byte	0x1
 3310 0003 25       		.uleb128 0x25
 3311 0004 0E       		.uleb128 0xe
 3312 0005 13       		.uleb128 0x13
 3313 0006 0B       		.uleb128 0xb
 3314 0007 03       		.uleb128 0x3
 3315 0008 0E       		.uleb128 0xe
 3316 0009 55       		.uleb128 0x55
 3317 000a 06       		.uleb128 0x6
 3318 000b 11       		.uleb128 0x11
 3319 000c 01       		.uleb128 0x1
 3320 000d 52       		.uleb128 0x52
 3321 000e 01       		.uleb128 0x1
 3322 000f 10       		.uleb128 0x10
 3323 0010 06       		.uleb128 0x6
 3324 0011 00       		.byte	0
 3325 0012 00       		.byte	0
 3326 0013 02       		.uleb128 0x2
 3327 0014 24       		.uleb128 0x24
 3328 0015 00       		.byte	0
 3329 0016 0B       		.uleb128 0xb
 3330 0017 0B       		.uleb128 0xb
 3331 0018 3E       		.uleb128 0x3e
 3332 0019 0B       		.uleb128 0xb
 3333 001a 03       		.uleb128 0x3
 3334 001b 08       		.uleb128 0x8
 3335 001c 00       		.byte	0
 3336 001d 00       		.byte	0
 3337 001e 03       		.uleb128 0x3
 3338 001f 16       		.uleb128 0x16
 3339 0020 00       		.byte	0
 3340 0021 03       		.uleb128 0x3
 3341 0022 0E       		.uleb128 0xe
 3342 0023 3A       		.uleb128 0x3a
 3343 0024 0B       		.uleb128 0xb
 3344 0025 3B       		.uleb128 0x3b
ARM GAS  /tmp/ccRfa0ZT.s 			page 60


 3345 0026 0B       		.uleb128 0xb
 3346 0027 49       		.uleb128 0x49
 3347 0028 13       		.uleb128 0x13
 3348 0029 00       		.byte	0
 3349 002a 00       		.byte	0
 3350 002b 04       		.uleb128 0x4
 3351 002c 24       		.uleb128 0x24
 3352 002d 00       		.byte	0
 3353 002e 0B       		.uleb128 0xb
 3354 002f 0B       		.uleb128 0xb
 3355 0030 3E       		.uleb128 0x3e
 3356 0031 0B       		.uleb128 0xb
 3357 0032 03       		.uleb128 0x3
 3358 0033 0E       		.uleb128 0xe
 3359 0034 00       		.byte	0
 3360 0035 00       		.byte	0
 3361 0036 05       		.uleb128 0x5
 3362 0037 13       		.uleb128 0x13
 3363 0038 01       		.byte	0x1
 3364 0039 03       		.uleb128 0x3
 3365 003a 0E       		.uleb128 0xe
 3366 003b 0B       		.uleb128 0xb
 3367 003c 0B       		.uleb128 0xb
 3368 003d 3A       		.uleb128 0x3a
 3369 003e 0B       		.uleb128 0xb
 3370 003f 3B       		.uleb128 0x3b
 3371 0040 0B       		.uleb128 0xb
 3372 0041 01       		.uleb128 0x1
 3373 0042 13       		.uleb128 0x13
 3374 0043 00       		.byte	0
 3375 0044 00       		.byte	0
 3376 0045 06       		.uleb128 0x6
 3377 0046 0D       		.uleb128 0xd
 3378 0047 00       		.byte	0
 3379 0048 03       		.uleb128 0x3
 3380 0049 0E       		.uleb128 0xe
 3381 004a 3A       		.uleb128 0x3a
 3382 004b 0B       		.uleb128 0xb
 3383 004c 3B       		.uleb128 0x3b
 3384 004d 0B       		.uleb128 0xb
 3385 004e 49       		.uleb128 0x49
 3386 004f 13       		.uleb128 0x13
 3387 0050 38       		.uleb128 0x38
 3388 0051 0A       		.uleb128 0xa
 3389 0052 00       		.byte	0
 3390 0053 00       		.byte	0
 3391 0054 07       		.uleb128 0x7
 3392 0055 0D       		.uleb128 0xd
 3393 0056 00       		.byte	0
 3394 0057 03       		.uleb128 0x3
 3395 0058 08       		.uleb128 0x8
 3396 0059 3A       		.uleb128 0x3a
 3397 005a 0B       		.uleb128 0xb
 3398 005b 3B       		.uleb128 0x3b
 3399 005c 0B       		.uleb128 0xb
 3400 005d 49       		.uleb128 0x49
 3401 005e 13       		.uleb128 0x13
ARM GAS  /tmp/ccRfa0ZT.s 			page 61


 3402 005f 38       		.uleb128 0x38
 3403 0060 0A       		.uleb128 0xa
 3404 0061 00       		.byte	0
 3405 0062 00       		.byte	0
 3406 0063 08       		.uleb128 0x8
 3407 0064 13       		.uleb128 0x13
 3408 0065 01       		.byte	0x1
 3409 0066 0B       		.uleb128 0xb
 3410 0067 0B       		.uleb128 0xb
 3411 0068 3A       		.uleb128 0x3a
 3412 0069 0B       		.uleb128 0xb
 3413 006a 3B       		.uleb128 0x3b
 3414 006b 0B       		.uleb128 0xb
 3415 006c 01       		.uleb128 0x1
 3416 006d 13       		.uleb128 0x13
 3417 006e 00       		.byte	0
 3418 006f 00       		.byte	0
 3419 0070 09       		.uleb128 0x9
 3420 0071 0F       		.uleb128 0xf
 3421 0072 00       		.byte	0
 3422 0073 0B       		.uleb128 0xb
 3423 0074 0B       		.uleb128 0xb
 3424 0075 49       		.uleb128 0x49
 3425 0076 13       		.uleb128 0x13
 3426 0077 00       		.byte	0
 3427 0078 00       		.byte	0
 3428 0079 0A       		.uleb128 0xa
 3429 007a 0F       		.uleb128 0xf
 3430 007b 00       		.byte	0
 3431 007c 0B       		.uleb128 0xb
 3432 007d 0B       		.uleb128 0xb
 3433 007e 00       		.byte	0
 3434 007f 00       		.byte	0
 3435 0080 0B       		.uleb128 0xb
 3436 0081 13       		.uleb128 0x13
 3437 0082 01       		.byte	0x1
 3438 0083 03       		.uleb128 0x3
 3439 0084 0E       		.uleb128 0xe
 3440 0085 0B       		.uleb128 0xb
 3441 0086 0B       		.uleb128 0xb
 3442 0087 3A       		.uleb128 0x3a
 3443 0088 0B       		.uleb128 0xb
 3444 0089 3B       		.uleb128 0x3b
 3445 008a 05       		.uleb128 0x5
 3446 008b 01       		.uleb128 0x1
 3447 008c 13       		.uleb128 0x13
 3448 008d 00       		.byte	0
 3449 008e 00       		.byte	0
 3450 008f 0C       		.uleb128 0xc
 3451 0090 0D       		.uleb128 0xd
 3452 0091 00       		.byte	0
 3453 0092 03       		.uleb128 0x3
 3454 0093 08       		.uleb128 0x8
 3455 0094 3A       		.uleb128 0x3a
 3456 0095 0B       		.uleb128 0xb
 3457 0096 3B       		.uleb128 0x3b
 3458 0097 05       		.uleb128 0x5
ARM GAS  /tmp/ccRfa0ZT.s 			page 62


 3459 0098 49       		.uleb128 0x49
 3460 0099 13       		.uleb128 0x13
 3461 009a 38       		.uleb128 0x38
 3462 009b 0A       		.uleb128 0xa
 3463 009c 00       		.byte	0
 3464 009d 00       		.byte	0
 3465 009e 0D       		.uleb128 0xd
 3466 009f 35       		.uleb128 0x35
 3467 00a0 00       		.byte	0
 3468 00a1 49       		.uleb128 0x49
 3469 00a2 13       		.uleb128 0x13
 3470 00a3 00       		.byte	0
 3471 00a4 00       		.byte	0
 3472 00a5 0E       		.uleb128 0xe
 3473 00a6 17       		.uleb128 0x17
 3474 00a7 01       		.byte	0x1
 3475 00a8 0B       		.uleb128 0xb
 3476 00a9 0B       		.uleb128 0xb
 3477 00aa 3A       		.uleb128 0x3a
 3478 00ab 0B       		.uleb128 0xb
 3479 00ac 3B       		.uleb128 0x3b
 3480 00ad 0B       		.uleb128 0xb
 3481 00ae 01       		.uleb128 0x1
 3482 00af 13       		.uleb128 0x13
 3483 00b0 00       		.byte	0
 3484 00b1 00       		.byte	0
 3485 00b2 0F       		.uleb128 0xf
 3486 00b3 0D       		.uleb128 0xd
 3487 00b4 00       		.byte	0
 3488 00b5 03       		.uleb128 0x3
 3489 00b6 0E       		.uleb128 0xe
 3490 00b7 3A       		.uleb128 0x3a
 3491 00b8 0B       		.uleb128 0xb
 3492 00b9 3B       		.uleb128 0x3b
 3493 00ba 0B       		.uleb128 0xb
 3494 00bb 49       		.uleb128 0x49
 3495 00bc 13       		.uleb128 0x13
 3496 00bd 00       		.byte	0
 3497 00be 00       		.byte	0
 3498 00bf 10       		.uleb128 0x10
 3499 00c0 26       		.uleb128 0x26
 3500 00c1 00       		.byte	0
 3501 00c2 49       		.uleb128 0x49
 3502 00c3 13       		.uleb128 0x13
 3503 00c4 00       		.byte	0
 3504 00c5 00       		.byte	0
 3505 00c6 11       		.uleb128 0x11
 3506 00c7 04       		.uleb128 0x4
 3507 00c8 01       		.byte	0x1
 3508 00c9 03       		.uleb128 0x3
 3509 00ca 0E       		.uleb128 0xe
 3510 00cb 0B       		.uleb128 0xb
 3511 00cc 0B       		.uleb128 0xb
 3512 00cd 3A       		.uleb128 0x3a
 3513 00ce 0B       		.uleb128 0xb
 3514 00cf 3B       		.uleb128 0x3b
 3515 00d0 0B       		.uleb128 0xb
ARM GAS  /tmp/ccRfa0ZT.s 			page 63


 3516 00d1 01       		.uleb128 0x1
 3517 00d2 13       		.uleb128 0x13
 3518 00d3 00       		.byte	0
 3519 00d4 00       		.byte	0
 3520 00d5 12       		.uleb128 0x12
 3521 00d6 28       		.uleb128 0x28
 3522 00d7 00       		.byte	0
 3523 00d8 03       		.uleb128 0x3
 3524 00d9 0E       		.uleb128 0xe
 3525 00da 1C       		.uleb128 0x1c
 3526 00db 0D       		.uleb128 0xd
 3527 00dc 00       		.byte	0
 3528 00dd 00       		.byte	0
 3529 00de 13       		.uleb128 0x13
 3530 00df 01       		.uleb128 0x1
 3531 00e0 01       		.byte	0x1
 3532 00e1 49       		.uleb128 0x49
 3533 00e2 13       		.uleb128 0x13
 3534 00e3 01       		.uleb128 0x1
 3535 00e4 13       		.uleb128 0x13
 3536 00e5 00       		.byte	0
 3537 00e6 00       		.byte	0
 3538 00e7 14       		.uleb128 0x14
 3539 00e8 21       		.uleb128 0x21
 3540 00e9 00       		.byte	0
 3541 00ea 49       		.uleb128 0x49
 3542 00eb 13       		.uleb128 0x13
 3543 00ec 2F       		.uleb128 0x2f
 3544 00ed 0B       		.uleb128 0xb
 3545 00ee 00       		.byte	0
 3546 00ef 00       		.byte	0
 3547 00f0 15       		.uleb128 0x15
 3548 00f1 13       		.uleb128 0x13
 3549 00f2 01       		.byte	0x1
 3550 00f3 0B       		.uleb128 0xb
 3551 00f4 0B       		.uleb128 0xb
 3552 00f5 3A       		.uleb128 0x3a
 3553 00f6 0B       		.uleb128 0xb
 3554 00f7 3B       		.uleb128 0x3b
 3555 00f8 05       		.uleb128 0x5
 3556 00f9 01       		.uleb128 0x1
 3557 00fa 13       		.uleb128 0x13
 3558 00fb 00       		.byte	0
 3559 00fc 00       		.byte	0
 3560 00fd 16       		.uleb128 0x16
 3561 00fe 0D       		.uleb128 0xd
 3562 00ff 00       		.byte	0
 3563 0100 03       		.uleb128 0x3
 3564 0101 0E       		.uleb128 0xe
 3565 0102 3A       		.uleb128 0x3a
 3566 0103 0B       		.uleb128 0xb
 3567 0104 3B       		.uleb128 0x3b
 3568 0105 05       		.uleb128 0x5
 3569 0106 49       		.uleb128 0x49
 3570 0107 13       		.uleb128 0x13
 3571 0108 38       		.uleb128 0x38
 3572 0109 0A       		.uleb128 0xa
ARM GAS  /tmp/ccRfa0ZT.s 			page 64


 3573 010a 00       		.byte	0
 3574 010b 00       		.byte	0
 3575 010c 17       		.uleb128 0x17
 3576 010d 16       		.uleb128 0x16
 3577 010e 00       		.byte	0
 3578 010f 03       		.uleb128 0x3
 3579 0110 0E       		.uleb128 0xe
 3580 0111 3A       		.uleb128 0x3a
 3581 0112 0B       		.uleb128 0xb
 3582 0113 3B       		.uleb128 0x3b
 3583 0114 05       		.uleb128 0x5
 3584 0115 49       		.uleb128 0x49
 3585 0116 13       		.uleb128 0x13
 3586 0117 00       		.byte	0
 3587 0118 00       		.byte	0
 3588 0119 18       		.uleb128 0x18
 3589 011a 15       		.uleb128 0x15
 3590 011b 01       		.byte	0x1
 3591 011c 27       		.uleb128 0x27
 3592 011d 0C       		.uleb128 0xc
 3593 011e 01       		.uleb128 0x1
 3594 011f 13       		.uleb128 0x13
 3595 0120 00       		.byte	0
 3596 0121 00       		.byte	0
 3597 0122 19       		.uleb128 0x19
 3598 0123 05       		.uleb128 0x5
 3599 0124 00       		.byte	0
 3600 0125 49       		.uleb128 0x49
 3601 0126 13       		.uleb128 0x13
 3602 0127 00       		.byte	0
 3603 0128 00       		.byte	0
 3604 0129 1A       		.uleb128 0x1a
 3605 012a 04       		.uleb128 0x4
 3606 012b 01       		.byte	0x1
 3607 012c 0B       		.uleb128 0xb
 3608 012d 0B       		.uleb128 0xb
 3609 012e 3A       		.uleb128 0x3a
 3610 012f 0B       		.uleb128 0xb
 3611 0130 3B       		.uleb128 0x3b
 3612 0131 0B       		.uleb128 0xb
 3613 0132 01       		.uleb128 0x1
 3614 0133 13       		.uleb128 0x13
 3615 0134 00       		.byte	0
 3616 0135 00       		.byte	0
 3617 0136 1B       		.uleb128 0x1b
 3618 0137 04       		.uleb128 0x4
 3619 0138 01       		.byte	0x1
 3620 0139 0B       		.uleb128 0xb
 3621 013a 0B       		.uleb128 0xb
 3622 013b 3A       		.uleb128 0x3a
 3623 013c 0B       		.uleb128 0xb
 3624 013d 3B       		.uleb128 0x3b
 3625 013e 05       		.uleb128 0x5
 3626 013f 01       		.uleb128 0x1
 3627 0140 13       		.uleb128 0x13
 3628 0141 00       		.byte	0
 3629 0142 00       		.byte	0
ARM GAS  /tmp/ccRfa0ZT.s 			page 65


 3630 0143 1C       		.uleb128 0x1c
 3631 0144 2E       		.uleb128 0x2e
 3632 0145 01       		.byte	0x1
 3633 0146 3F       		.uleb128 0x3f
 3634 0147 0C       		.uleb128 0xc
 3635 0148 03       		.uleb128 0x3
 3636 0149 0E       		.uleb128 0xe
 3637 014a 3A       		.uleb128 0x3a
 3638 014b 0B       		.uleb128 0xb
 3639 014c 3B       		.uleb128 0x3b
 3640 014d 0B       		.uleb128 0xb
 3641 014e 27       		.uleb128 0x27
 3642 014f 0C       		.uleb128 0xc
 3643 0150 11       		.uleb128 0x11
 3644 0151 01       		.uleb128 0x1
 3645 0152 12       		.uleb128 0x12
 3646 0153 01       		.uleb128 0x1
 3647 0154 40       		.uleb128 0x40
 3648 0155 06       		.uleb128 0x6
 3649 0156 9742     		.uleb128 0x2117
 3650 0158 0C       		.uleb128 0xc
 3651 0159 01       		.uleb128 0x1
 3652 015a 13       		.uleb128 0x13
 3653 015b 00       		.byte	0
 3654 015c 00       		.byte	0
 3655 015d 1D       		.uleb128 0x1d
 3656 015e 898201   		.uleb128 0x4109
 3657 0161 01       		.byte	0x1
 3658 0162 11       		.uleb128 0x11
 3659 0163 01       		.uleb128 0x1
 3660 0164 31       		.uleb128 0x31
 3661 0165 13       		.uleb128 0x13
 3662 0166 01       		.uleb128 0x1
 3663 0167 13       		.uleb128 0x13
 3664 0168 00       		.byte	0
 3665 0169 00       		.byte	0
 3666 016a 1E       		.uleb128 0x1e
 3667 016b 8A8201   		.uleb128 0x410a
 3668 016e 00       		.byte	0
 3669 016f 02       		.uleb128 0x2
 3670 0170 0A       		.uleb128 0xa
 3671 0171 9142     		.uleb128 0x2111
 3672 0173 0A       		.uleb128 0xa
 3673 0174 00       		.byte	0
 3674 0175 00       		.byte	0
 3675 0176 1F       		.uleb128 0x1f
 3676 0177 898201   		.uleb128 0x4109
 3677 017a 01       		.byte	0x1
 3678 017b 11       		.uleb128 0x11
 3679 017c 01       		.uleb128 0x1
 3680 017d 9542     		.uleb128 0x2115
 3681 017f 0C       		.uleb128 0xc
 3682 0180 31       		.uleb128 0x31
 3683 0181 13       		.uleb128 0x13
 3684 0182 00       		.byte	0
 3685 0183 00       		.byte	0
 3686 0184 20       		.uleb128 0x20
ARM GAS  /tmp/ccRfa0ZT.s 			page 66


 3687 0185 05       		.uleb128 0x5
 3688 0186 00       		.byte	0
 3689 0187 03       		.uleb128 0x3
 3690 0188 0E       		.uleb128 0xe
 3691 0189 3A       		.uleb128 0x3a
 3692 018a 0B       		.uleb128 0xb
 3693 018b 3B       		.uleb128 0x3b
 3694 018c 0B       		.uleb128 0xb
 3695 018d 49       		.uleb128 0x49
 3696 018e 13       		.uleb128 0x13
 3697 018f 02       		.uleb128 0x2
 3698 0190 06       		.uleb128 0x6
 3699 0191 00       		.byte	0
 3700 0192 00       		.byte	0
 3701 0193 21       		.uleb128 0x21
 3702 0194 0B       		.uleb128 0xb
 3703 0195 01       		.byte	0x1
 3704 0196 11       		.uleb128 0x11
 3705 0197 01       		.uleb128 0x1
 3706 0198 12       		.uleb128 0x12
 3707 0199 01       		.uleb128 0x1
 3708 019a 00       		.byte	0
 3709 019b 00       		.byte	0
 3710 019c 22       		.uleb128 0x22
 3711 019d 34       		.uleb128 0x34
 3712 019e 00       		.byte	0
 3713 019f 03       		.uleb128 0x3
 3714 01a0 08       		.uleb128 0x8
 3715 01a1 3A       		.uleb128 0x3a
 3716 01a2 0B       		.uleb128 0xb
 3717 01a3 3B       		.uleb128 0x3b
 3718 01a4 0B       		.uleb128 0xb
 3719 01a5 49       		.uleb128 0x49
 3720 01a6 13       		.uleb128 0x13
 3721 01a7 02       		.uleb128 0x2
 3722 01a8 06       		.uleb128 0x6
 3723 01a9 00       		.byte	0
 3724 01aa 00       		.byte	0
 3725 01ab 23       		.uleb128 0x23
 3726 01ac 898201   		.uleb128 0x4109
 3727 01af 01       		.byte	0x1
 3728 01b0 11       		.uleb128 0x11
 3729 01b1 01       		.uleb128 0x1
 3730 01b2 31       		.uleb128 0x31
 3731 01b3 13       		.uleb128 0x13
 3732 01b4 00       		.byte	0
 3733 01b5 00       		.byte	0
 3734 01b6 24       		.uleb128 0x24
 3735 01b7 2E       		.uleb128 0x2e
 3736 01b8 01       		.byte	0x1
 3737 01b9 3F       		.uleb128 0x3f
 3738 01ba 0C       		.uleb128 0xc
 3739 01bb 03       		.uleb128 0x3
 3740 01bc 0E       		.uleb128 0xe
 3741 01bd 3A       		.uleb128 0x3a
 3742 01be 0B       		.uleb128 0xb
 3743 01bf 3B       		.uleb128 0x3b
ARM GAS  /tmp/ccRfa0ZT.s 			page 67


 3744 01c0 05       		.uleb128 0x5
 3745 01c1 27       		.uleb128 0x27
 3746 01c2 0C       		.uleb128 0xc
 3747 01c3 11       		.uleb128 0x11
 3748 01c4 01       		.uleb128 0x1
 3749 01c5 12       		.uleb128 0x12
 3750 01c6 01       		.uleb128 0x1
 3751 01c7 40       		.uleb128 0x40
 3752 01c8 06       		.uleb128 0x6
 3753 01c9 9742     		.uleb128 0x2117
 3754 01cb 0C       		.uleb128 0xc
 3755 01cc 01       		.uleb128 0x1
 3756 01cd 13       		.uleb128 0x13
 3757 01ce 00       		.byte	0
 3758 01cf 00       		.byte	0
 3759 01d0 25       		.uleb128 0x25
 3760 01d1 05       		.uleb128 0x5
 3761 01d2 00       		.byte	0
 3762 01d3 03       		.uleb128 0x3
 3763 01d4 0E       		.uleb128 0xe
 3764 01d5 3A       		.uleb128 0x3a
 3765 01d6 0B       		.uleb128 0xb
 3766 01d7 3B       		.uleb128 0x3b
 3767 01d8 05       		.uleb128 0x5
 3768 01d9 49       		.uleb128 0x49
 3769 01da 13       		.uleb128 0x13
 3770 01db 02       		.uleb128 0x2
 3771 01dc 06       		.uleb128 0x6
 3772 01dd 00       		.byte	0
 3773 01de 00       		.byte	0
 3774 01df 26       		.uleb128 0x26
 3775 01e0 898201   		.uleb128 0x4109
 3776 01e3 00       		.byte	0
 3777 01e4 11       		.uleb128 0x11
 3778 01e5 01       		.uleb128 0x1
 3779 01e6 31       		.uleb128 0x31
 3780 01e7 13       		.uleb128 0x13
 3781 01e8 00       		.byte	0
 3782 01e9 00       		.byte	0
 3783 01ea 27       		.uleb128 0x27
 3784 01eb 34       		.uleb128 0x34
 3785 01ec 00       		.byte	0
 3786 01ed 03       		.uleb128 0x3
 3787 01ee 0E       		.uleb128 0xe
 3788 01ef 3A       		.uleb128 0x3a
 3789 01f0 0B       		.uleb128 0xb
 3790 01f1 3B       		.uleb128 0x3b
 3791 01f2 05       		.uleb128 0x5
 3792 01f3 49       		.uleb128 0x49
 3793 01f4 13       		.uleb128 0x13
 3794 01f5 02       		.uleb128 0x2
 3795 01f6 06       		.uleb128 0x6
 3796 01f7 00       		.byte	0
 3797 01f8 00       		.byte	0
 3798 01f9 28       		.uleb128 0x28
 3799 01fa 2E       		.uleb128 0x2e
 3800 01fb 01       		.byte	0x1
ARM GAS  /tmp/ccRfa0ZT.s 			page 68


 3801 01fc 03       		.uleb128 0x3
 3802 01fd 0E       		.uleb128 0xe
 3803 01fe 3A       		.uleb128 0x3a
 3804 01ff 0B       		.uleb128 0xb
 3805 0200 3B       		.uleb128 0x3b
 3806 0201 0B       		.uleb128 0xb
 3807 0202 27       		.uleb128 0x27
 3808 0203 0C       		.uleb128 0xc
 3809 0204 11       		.uleb128 0x11
 3810 0205 01       		.uleb128 0x1
 3811 0206 12       		.uleb128 0x12
 3812 0207 01       		.uleb128 0x1
 3813 0208 40       		.uleb128 0x40
 3814 0209 06       		.uleb128 0x6
 3815 020a 9742     		.uleb128 0x2117
 3816 020c 0C       		.uleb128 0xc
 3817 020d 01       		.uleb128 0x1
 3818 020e 13       		.uleb128 0x13
 3819 020f 00       		.byte	0
 3820 0210 00       		.byte	0
 3821 0211 29       		.uleb128 0x29
 3822 0212 0B       		.uleb128 0xb
 3823 0213 01       		.byte	0x1
 3824 0214 11       		.uleb128 0x11
 3825 0215 01       		.uleb128 0x1
 3826 0216 12       		.uleb128 0x12
 3827 0217 01       		.uleb128 0x1
 3828 0218 01       		.uleb128 0x1
 3829 0219 13       		.uleb128 0x13
 3830 021a 00       		.byte	0
 3831 021b 00       		.byte	0
 3832 021c 2A       		.uleb128 0x2a
 3833 021d 34       		.uleb128 0x34
 3834 021e 00       		.byte	0
 3835 021f 03       		.uleb128 0x3
 3836 0220 0E       		.uleb128 0xe
 3837 0221 3A       		.uleb128 0x3a
 3838 0222 0B       		.uleb128 0xb
 3839 0223 3B       		.uleb128 0x3b
 3840 0224 0B       		.uleb128 0xb
 3841 0225 49       		.uleb128 0x49
 3842 0226 13       		.uleb128 0x13
 3843 0227 02       		.uleb128 0x2
 3844 0228 06       		.uleb128 0x6
 3845 0229 00       		.byte	0
 3846 022a 00       		.byte	0
 3847 022b 2B       		.uleb128 0x2b
 3848 022c 898201   		.uleb128 0x4109
 3849 022f 01       		.byte	0x1
 3850 0230 11       		.uleb128 0x11
 3851 0231 01       		.uleb128 0x1
 3852 0232 9342     		.uleb128 0x2113
 3853 0234 0A       		.uleb128 0xa
 3854 0235 00       		.byte	0
 3855 0236 00       		.byte	0
 3856 0237 2C       		.uleb128 0x2c
 3857 0238 898201   		.uleb128 0x4109
ARM GAS  /tmp/ccRfa0ZT.s 			page 69


 3858 023b 01       		.byte	0x1
 3859 023c 11       		.uleb128 0x11
 3860 023d 01       		.uleb128 0x1
 3861 023e 00       		.byte	0
 3862 023f 00       		.byte	0
 3863 0240 2D       		.uleb128 0x2d
 3864 0241 898201   		.uleb128 0x4109
 3865 0244 01       		.byte	0x1
 3866 0245 11       		.uleb128 0x11
 3867 0246 01       		.uleb128 0x1
 3868 0247 01       		.uleb128 0x1
 3869 0248 13       		.uleb128 0x13
 3870 0249 00       		.byte	0
 3871 024a 00       		.byte	0
 3872 024b 2E       		.uleb128 0x2e
 3873 024c 898201   		.uleb128 0x4109
 3874 024f 00       		.byte	0
 3875 0250 11       		.uleb128 0x11
 3876 0251 01       		.uleb128 0x1
 3877 0252 9542     		.uleb128 0x2115
 3878 0254 0C       		.uleb128 0xc
 3879 0255 31       		.uleb128 0x31
 3880 0256 13       		.uleb128 0x13
 3881 0257 00       		.byte	0
 3882 0258 00       		.byte	0
 3883 0259 2F       		.uleb128 0x2f
 3884 025a 2E       		.uleb128 0x2e
 3885 025b 00       		.byte	0
 3886 025c 3F       		.uleb128 0x3f
 3887 025d 0C       		.uleb128 0xc
 3888 025e 03       		.uleb128 0x3
 3889 025f 0E       		.uleb128 0xe
 3890 0260 3A       		.uleb128 0x3a
 3891 0261 0B       		.uleb128 0xb
 3892 0262 3B       		.uleb128 0x3b
 3893 0263 05       		.uleb128 0x5
 3894 0264 27       		.uleb128 0x27
 3895 0265 0C       		.uleb128 0xc
 3896 0266 11       		.uleb128 0x11
 3897 0267 01       		.uleb128 0x1
 3898 0268 12       		.uleb128 0x12
 3899 0269 01       		.uleb128 0x1
 3900 026a 40       		.uleb128 0x40
 3901 026b 0A       		.uleb128 0xa
 3902 026c 9742     		.uleb128 0x2117
 3903 026e 0C       		.uleb128 0xc
 3904 026f 00       		.byte	0
 3905 0270 00       		.byte	0
 3906 0271 30       		.uleb128 0x30
 3907 0272 34       		.uleb128 0x34
 3908 0273 00       		.byte	0
 3909 0274 03       		.uleb128 0x3
 3910 0275 0E       		.uleb128 0xe
 3911 0276 3A       		.uleb128 0x3a
 3912 0277 0B       		.uleb128 0xb
 3913 0278 3B       		.uleb128 0x3b
 3914 0279 05       		.uleb128 0x5
ARM GAS  /tmp/ccRfa0ZT.s 			page 70


 3915 027a 49       		.uleb128 0x49
 3916 027b 13       		.uleb128 0x13
 3917 027c 3F       		.uleb128 0x3f
 3918 027d 0C       		.uleb128 0xc
 3919 027e 3C       		.uleb128 0x3c
 3920 027f 0C       		.uleb128 0xc
 3921 0280 00       		.byte	0
 3922 0281 00       		.byte	0
 3923 0282 31       		.uleb128 0x31
 3924 0283 34       		.uleb128 0x34
 3925 0284 00       		.byte	0
 3926 0285 03       		.uleb128 0x3
 3927 0286 0E       		.uleb128 0xe
 3928 0287 3A       		.uleb128 0x3a
 3929 0288 0B       		.uleb128 0xb
 3930 0289 3B       		.uleb128 0x3b
 3931 028a 0B       		.uleb128 0xb
 3932 028b 49       		.uleb128 0x49
 3933 028c 13       		.uleb128 0x13
 3934 028d 3F       		.uleb128 0x3f
 3935 028e 0C       		.uleb128 0xc
 3936 028f 02       		.uleb128 0x2
 3937 0290 0A       		.uleb128 0xa
 3938 0291 00       		.byte	0
 3939 0292 00       		.byte	0
 3940 0293 32       		.uleb128 0x32
 3941 0294 2E       		.uleb128 0x2e
 3942 0295 01       		.byte	0x1
 3943 0296 3F       		.uleb128 0x3f
 3944 0297 0C       		.uleb128 0xc
 3945 0298 03       		.uleb128 0x3
 3946 0299 0E       		.uleb128 0xe
 3947 029a 3A       		.uleb128 0x3a
 3948 029b 0B       		.uleb128 0xb
 3949 029c 3B       		.uleb128 0x3b
 3950 029d 05       		.uleb128 0x5
 3951 029e 27       		.uleb128 0x27
 3952 029f 0C       		.uleb128 0xc
 3953 02a0 3C       		.uleb128 0x3c
 3954 02a1 0C       		.uleb128 0xc
 3955 02a2 01       		.uleb128 0x1
 3956 02a3 13       		.uleb128 0x13
 3957 02a4 00       		.byte	0
 3958 02a5 00       		.byte	0
 3959 02a6 33       		.uleb128 0x33
 3960 02a7 2E       		.uleb128 0x2e
 3961 02a8 01       		.byte	0x1
 3962 02a9 3F       		.uleb128 0x3f
 3963 02aa 0C       		.uleb128 0xc
 3964 02ab 03       		.uleb128 0x3
 3965 02ac 0E       		.uleb128 0xe
 3966 02ad 3A       		.uleb128 0x3a
 3967 02ae 0B       		.uleb128 0xb
 3968 02af 3B       		.uleb128 0x3b
 3969 02b0 05       		.uleb128 0x5
 3970 02b1 27       		.uleb128 0x27
 3971 02b2 0C       		.uleb128 0xc
ARM GAS  /tmp/ccRfa0ZT.s 			page 71


 3972 02b3 49       		.uleb128 0x49
 3973 02b4 13       		.uleb128 0x13
 3974 02b5 3C       		.uleb128 0x3c
 3975 02b6 0C       		.uleb128 0xc
 3976 02b7 01       		.uleb128 0x1
 3977 02b8 13       		.uleb128 0x13
 3978 02b9 00       		.byte	0
 3979 02ba 00       		.byte	0
 3980 02bb 34       		.uleb128 0x34
 3981 02bc 2E       		.uleb128 0x2e
 3982 02bd 01       		.byte	0x1
 3983 02be 3F       		.uleb128 0x3f
 3984 02bf 0C       		.uleb128 0xc
 3985 02c0 03       		.uleb128 0x3
 3986 02c1 0E       		.uleb128 0xe
 3987 02c2 3A       		.uleb128 0x3a
 3988 02c3 0B       		.uleb128 0xb
 3989 02c4 3B       		.uleb128 0x3b
 3990 02c5 0B       		.uleb128 0xb
 3991 02c6 27       		.uleb128 0x27
 3992 02c7 0C       		.uleb128 0xc
 3993 02c8 3C       		.uleb128 0x3c
 3994 02c9 0C       		.uleb128 0xc
 3995 02ca 01       		.uleb128 0x1
 3996 02cb 13       		.uleb128 0x13
 3997 02cc 00       		.byte	0
 3998 02cd 00       		.byte	0
 3999 02ce 35       		.uleb128 0x35
 4000 02cf 2E       		.uleb128 0x2e
 4001 02d0 01       		.byte	0x1
 4002 02d1 3F       		.uleb128 0x3f
 4003 02d2 0C       		.uleb128 0xc
 4004 02d3 03       		.uleb128 0x3
 4005 02d4 0E       		.uleb128 0xe
 4006 02d5 3A       		.uleb128 0x3a
 4007 02d6 0B       		.uleb128 0xb
 4008 02d7 3B       		.uleb128 0x3b
 4009 02d8 0B       		.uleb128 0xb
 4010 02d9 27       		.uleb128 0x27
 4011 02da 0C       		.uleb128 0xc
 4012 02db 49       		.uleb128 0x49
 4013 02dc 13       		.uleb128 0x13
 4014 02dd 3C       		.uleb128 0x3c
 4015 02de 0C       		.uleb128 0xc
 4016 02df 01       		.uleb128 0x1
 4017 02e0 13       		.uleb128 0x13
 4018 02e1 00       		.byte	0
 4019 02e2 00       		.byte	0
 4020 02e3 36       		.uleb128 0x36
 4021 02e4 2E       		.uleb128 0x2e
 4022 02e5 00       		.byte	0
 4023 02e6 3F       		.uleb128 0x3f
 4024 02e7 0C       		.uleb128 0xc
 4025 02e8 03       		.uleb128 0x3
 4026 02e9 0E       		.uleb128 0xe
 4027 02ea 3A       		.uleb128 0x3a
 4028 02eb 0B       		.uleb128 0xb
ARM GAS  /tmp/ccRfa0ZT.s 			page 72


 4029 02ec 3B       		.uleb128 0x3b
 4030 02ed 0B       		.uleb128 0xb
 4031 02ee 27       		.uleb128 0x27
 4032 02ef 0C       		.uleb128 0xc
 4033 02f0 3C       		.uleb128 0x3c
 4034 02f1 0C       		.uleb128 0xc
 4035 02f2 00       		.byte	0
 4036 02f3 00       		.byte	0
 4037 02f4 37       		.uleb128 0x37
 4038 02f5 2E       		.uleb128 0x2e
 4039 02f6 00       		.byte	0
 4040 02f7 3F       		.uleb128 0x3f
 4041 02f8 0C       		.uleb128 0xc
 4042 02f9 03       		.uleb128 0x3
 4043 02fa 0E       		.uleb128 0xe
 4044 02fb 3A       		.uleb128 0x3a
 4045 02fc 0B       		.uleb128 0xb
 4046 02fd 3B       		.uleb128 0x3b
 4047 02fe 05       		.uleb128 0x5
 4048 02ff 27       		.uleb128 0x27
 4049 0300 0C       		.uleb128 0xc
 4050 0301 3C       		.uleb128 0x3c
 4051 0302 0C       		.uleb128 0xc
 4052 0303 00       		.byte	0
 4053 0304 00       		.byte	0
 4054 0305 00       		.byte	0
 4055              		.section	.debug_loc,"",%progbits
 4056              	.Ldebug_loc0:
 4057              	.LLST0:
 4058 0000 00000000 		.4byte	.LFB120
 4059 0004 06000000 		.4byte	.LCFI0
 4060 0008 0200     		.2byte	0x2
 4061 000a 7D       		.byte	0x7d
 4062 000b 00       		.sleb128 0
 4063 000c 06000000 		.4byte	.LCFI0
 4064 0010 44000000 		.4byte	.LFE120
 4065 0014 0200     		.2byte	0x2
 4066 0016 7D       		.byte	0x7d
 4067 0017 08       		.sleb128 8
 4068 0018 00000000 		.4byte	0
 4069 001c 00000000 		.4byte	0
 4070              	.LLST1:
 4071 0020 00000000 		.4byte	.LFB121
 4072 0024 02000000 		.4byte	.LCFI1
 4073 0028 0200     		.2byte	0x2
 4074 002a 7D       		.byte	0x7d
 4075 002b 00       		.sleb128 0
 4076 002c 02000000 		.4byte	.LCFI1
 4077 0030 64000000 		.4byte	.LFE121
 4078 0034 0200     		.2byte	0x2
 4079 0036 7D       		.byte	0x7d
 4080 0037 10       		.sleb128 16
 4081 0038 00000000 		.4byte	0
 4082 003c 00000000 		.4byte	0
 4083              	.LLST2:
 4084 0040 00000000 		.4byte	.LVL2
 4085 0044 12000000 		.4byte	.LVL3
ARM GAS  /tmp/ccRfa0ZT.s 			page 73


 4086 0048 0100     		.2byte	0x1
 4087 004a 50       		.byte	0x50
 4088 004b 12000000 		.4byte	.LVL3
 4089 004f 20000000 		.4byte	.LVL4
 4090 0053 0100     		.2byte	0x1
 4091 0055 54       		.byte	0x54
 4092 0056 20000000 		.4byte	.LVL4
 4093 005a 22000000 		.4byte	.LVL5
 4094 005e 0100     		.2byte	0x1
 4095 0060 50       		.byte	0x50
 4096 0061 22000000 		.4byte	.LVL5
 4097 0065 64000000 		.4byte	.LFE121
 4098 0069 0100     		.2byte	0x1
 4099 006b 54       		.byte	0x54
 4100 006c 00000000 		.4byte	0
 4101 0070 00000000 		.4byte	0
 4102              	.LLST3:
 4103 0074 2C000000 		.4byte	.LVL6
 4104 0078 2E000000 		.4byte	.LVL7
 4105 007c 0100     		.2byte	0x1
 4106 007e 50       		.byte	0x50
 4107 007f 4E000000 		.4byte	.LVL8
 4108 0083 50000000 		.4byte	.LVL9
 4109 0087 0100     		.2byte	0x1
 4110 0089 50       		.byte	0x50
 4111 008a 00000000 		.4byte	0
 4112 008e 00000000 		.4byte	0
 4113              	.LLST4:
 4114 0092 00000000 		.4byte	.LFB122
 4115 0096 06000000 		.4byte	.LCFI2
 4116 009a 0200     		.2byte	0x2
 4117 009c 7D       		.byte	0x7d
 4118 009d 00       		.sleb128 0
 4119 009e 06000000 		.4byte	.LCFI2
 4120 00a2 38000000 		.4byte	.LFE122
 4121 00a6 0200     		.2byte	0x2
 4122 00a8 7D       		.byte	0x7d
 4123 00a9 08       		.sleb128 8
 4124 00aa 00000000 		.4byte	0
 4125 00ae 00000000 		.4byte	0
 4126              	.LLST5:
 4127 00b2 00000000 		.4byte	.LVL11
 4128 00b6 0A000000 		.4byte	.LVL12
 4129 00ba 0100     		.2byte	0x1
 4130 00bc 50       		.byte	0x50
 4131 00bd 0A000000 		.4byte	.LVL12
 4132 00c1 0C000000 		.4byte	.LVL13
 4133 00c5 0100     		.2byte	0x1
 4134 00c7 54       		.byte	0x54
 4135 00c8 0C000000 		.4byte	.LVL13
 4136 00cc 0E000000 		.4byte	.LVL14
 4137 00d0 0100     		.2byte	0x1
 4138 00d2 50       		.byte	0x50
 4139 00d3 0E000000 		.4byte	.LVL14
 4140 00d7 38000000 		.4byte	.LFE122
 4141 00db 0100     		.2byte	0x1
 4142 00dd 54       		.byte	0x54
ARM GAS  /tmp/ccRfa0ZT.s 			page 74


 4143 00de 00000000 		.4byte	0
 4144 00e2 00000000 		.4byte	0
 4145              	.LLST6:
 4146 00e6 00000000 		.4byte	.LFB123
 4147 00ea 0A000000 		.4byte	.LCFI3
 4148 00ee 0200     		.2byte	0x2
 4149 00f0 7D       		.byte	0x7d
 4150 00f1 00       		.sleb128 0
 4151 00f2 0A000000 		.4byte	.LCFI3
 4152 00f6 78000000 		.4byte	.LFE123
 4153 00fa 0200     		.2byte	0x2
 4154 00fc 7D       		.byte	0x7d
 4155 00fd 1C       		.sleb128 28
 4156 00fe 00000000 		.4byte	0
 4157 0102 00000000 		.4byte	0
 4158              	.LLST7:
 4159 0106 00000000 		.4byte	.LVL16
 4160 010a 4A000000 		.4byte	.LVL22
 4161 010e 0100     		.2byte	0x1
 4162 0110 50       		.byte	0x50
 4163 0111 4A000000 		.4byte	.LVL22
 4164 0115 78000000 		.4byte	.LFE123
 4165 0119 0400     		.2byte	0x4
 4166 011b F3       		.byte	0xf3
 4167 011c 01       		.uleb128 0x1
 4168 011d 50       		.byte	0x50
 4169 011e 9F       		.byte	0x9f
 4170 011f 00000000 		.4byte	0
 4171 0123 00000000 		.4byte	0
 4172              	.LLST8:
 4173 0127 04000000 		.4byte	.LVL18
 4174 012b 3A000000 		.4byte	.LVL21
 4175 012f 0100     		.2byte	0x1
 4176 0131 52       		.byte	0x52
 4177 0132 3A000000 		.4byte	.LVL21
 4178 0136 60000000 		.4byte	.LVL24
 4179 013a 0200     		.2byte	0x2
 4180 013c 71       		.byte	0x71
 4181 013d 00       		.sleb128 0
 4182 013e 60000000 		.4byte	.LVL24
 4183 0142 78000000 		.4byte	.LFE123
 4184 0146 0700     		.2byte	0x7
 4185 0148 F3       		.byte	0xf3
 4186 0149 01       		.uleb128 0x1
 4187 014a 50       		.byte	0x50
 4188 014b 23       		.byte	0x23
 4189 014c 2C       		.uleb128 0x2c
 4190 014d 06       		.byte	0x6
 4191 014e 06       		.byte	0x6
 4192 014f 00000000 		.4byte	0
 4193 0153 00000000 		.4byte	0
 4194              	.LLST9:
 4195 0157 02000000 		.4byte	.LVL17
 4196 015b 4E000000 		.4byte	.LVL23
 4197 015f 0100     		.2byte	0x1
 4198 0161 53       		.byte	0x53
 4199 0162 4E000000 		.4byte	.LVL23
ARM GAS  /tmp/ccRfa0ZT.s 			page 75


 4200 0166 78000000 		.4byte	.LFE123
 4201 016a 0500     		.2byte	0x5
 4202 016c F3       		.byte	0xf3
 4203 016d 01       		.uleb128 0x1
 4204 016e 50       		.byte	0x50
 4205 016f 23       		.byte	0x23
 4206 0170 10       		.uleb128 0x10
 4207 0171 00000000 		.4byte	0
 4208 0175 00000000 		.4byte	0
 4209              	.LLST10:
 4210 0179 00000000 		.4byte	.LFB124
 4211 017d 08000000 		.4byte	.LCFI4
 4212 0181 0200     		.2byte	0x2
 4213 0183 7D       		.byte	0x7d
 4214 0184 00       		.sleb128 0
 4215 0185 08000000 		.4byte	.LCFI4
 4216 0189 30000000 		.4byte	.LFE124
 4217 018d 0200     		.2byte	0x2
 4218 018f 7D       		.byte	0x7d
 4219 0190 04       		.sleb128 4
 4220 0191 00000000 		.4byte	0
 4221 0195 00000000 		.4byte	0
 4222              	.LLST11:
 4223 0199 00000000 		.4byte	.LVL25
 4224 019d 1E000000 		.4byte	.LVL26
 4225 01a1 0100     		.2byte	0x1
 4226 01a3 50       		.byte	0x50
 4227 01a4 1E000000 		.4byte	.LVL26
 4228 01a8 30000000 		.4byte	.LFE124
 4229 01ac 0400     		.2byte	0x4
 4230 01ae F3       		.byte	0xf3
 4231 01af 01       		.uleb128 0x1
 4232 01b0 50       		.byte	0x50
 4233 01b1 9F       		.byte	0x9f
 4234 01b2 00000000 		.4byte	0
 4235 01b6 00000000 		.4byte	0
 4236              	.LLST12:
 4237 01ba 00000000 		.4byte	.LFB118
 4238 01be 06000000 		.4byte	.LCFI5
 4239 01c2 0200     		.2byte	0x2
 4240 01c4 7D       		.byte	0x7d
 4241 01c5 00       		.sleb128 0
 4242 01c6 06000000 		.4byte	.LCFI5
 4243 01ca FC000000 		.4byte	.LFE118
 4244 01ce 0200     		.2byte	0x2
 4245 01d0 7D       		.byte	0x7d
 4246 01d1 10       		.sleb128 16
 4247 01d2 00000000 		.4byte	0
 4248 01d6 00000000 		.4byte	0
 4249              	.LLST13:
 4250 01da 00000000 		.4byte	.LVL27
 4251 01de 21000000 		.4byte	.LVL29-1
 4252 01e2 0100     		.2byte	0x1
 4253 01e4 50       		.byte	0x50
 4254 01e5 21000000 		.4byte	.LVL29-1
 4255 01e9 4E000000 		.4byte	.LVL33
 4256 01ed 0100     		.2byte	0x1
ARM GAS  /tmp/ccRfa0ZT.s 			page 76


 4257 01ef 54       		.byte	0x54
 4258 01f0 4E000000 		.4byte	.LVL33
 4259 01f4 51000000 		.4byte	.LVL34-1
 4260 01f8 0100     		.2byte	0x1
 4261 01fa 50       		.byte	0x50
 4262 01fb 51000000 		.4byte	.LVL34-1
 4263 01ff FC000000 		.4byte	.LFE118
 4264 0203 0100     		.2byte	0x1
 4265 0205 54       		.byte	0x54
 4266 0206 00000000 		.4byte	0
 4267 020a 00000000 		.4byte	0
 4268              	.LLST14:
 4269 020e 00000000 		.4byte	.LVL27
 4270 0212 1E000000 		.4byte	.LVL28
 4271 0216 0100     		.2byte	0x1
 4272 0218 51       		.byte	0x51
 4273 0219 1E000000 		.4byte	.LVL28
 4274 021d 30000000 		.4byte	.LVL30
 4275 0221 0100     		.2byte	0x1
 4276 0223 55       		.byte	0x55
 4277 0224 30000000 		.4byte	.LVL30
 4278 0228 4E000000 		.4byte	.LVL33
 4279 022c 0400     		.2byte	0x4
 4280 022e F3       		.byte	0xf3
 4281 022f 01       		.uleb128 0x1
 4282 0230 51       		.byte	0x51
 4283 0231 9F       		.byte	0x9f
 4284 0232 4E000000 		.4byte	.LVL33
 4285 0236 51000000 		.4byte	.LVL34-1
 4286 023a 0100     		.2byte	0x1
 4287 023c 51       		.byte	0x51
 4288 023d 51000000 		.4byte	.LVL34-1
 4289 0241 54000000 		.4byte	.LVL35
 4290 0245 0100     		.2byte	0x1
 4291 0247 55       		.byte	0x55
 4292 0248 54000000 		.4byte	.LVL35
 4293 024c A0000000 		.4byte	.LVL47
 4294 0250 0400     		.2byte	0x4
 4295 0252 F3       		.byte	0xf3
 4296 0253 01       		.uleb128 0x1
 4297 0254 51       		.byte	0x51
 4298 0255 9F       		.byte	0x9f
 4299 0256 A0000000 		.4byte	.LVL47
 4300 025a A8000000 		.4byte	.LVL49
 4301 025e 0100     		.2byte	0x1
 4302 0260 55       		.byte	0x55
 4303 0261 A8000000 		.4byte	.LVL49
 4304 0265 FC000000 		.4byte	.LFE118
 4305 0269 0400     		.2byte	0x4
 4306 026b F3       		.byte	0xf3
 4307 026c 01       		.uleb128 0x1
 4308 026d 51       		.byte	0x51
 4309 026e 9F       		.byte	0x9f
 4310 026f 00000000 		.4byte	0
 4311 0273 00000000 		.4byte	0
 4312              	.LLST15:
 4313 0277 40000000 		.4byte	.LVL31
ARM GAS  /tmp/ccRfa0ZT.s 			page 77


 4314 027b 4B000000 		.4byte	.LVL32-1
 4315 027f 0100     		.2byte	0x1
 4316 0281 52       		.byte	0x52
 4317 0282 00000000 		.4byte	0
 4318 0286 00000000 		.4byte	0
 4319              	.LLST16:
 4320 028a 40000000 		.4byte	.LVL31
 4321 028e 4B000000 		.4byte	.LVL32-1
 4322 0292 0F00     		.2byte	0xf
 4323 0294 74       		.byte	0x74
 4324 0295 10       		.sleb128 16
 4325 0296 06       		.byte	0x6
 4326 0297 23       		.byte	0x23
 4327 0298 04       		.uleb128 0x4
 4328 0299 94       		.byte	0x94
 4329 029a 02       		.byte	0x2
 4330 029b 0A       		.byte	0xa
 4331 029c FFFF     		.2byte	0xffff
 4332 029e 1A       		.byte	0x1a
 4333 029f 72       		.byte	0x72
 4334 02a0 00       		.sleb128 0
 4335 02a1 1E       		.byte	0x1e
 4336 02a2 9F       		.byte	0x9f
 4337 02a3 00000000 		.4byte	0
 4338 02a7 00000000 		.4byte	0
 4339              	.LLST17:
 4340 02ab 76000000 		.4byte	.LVL38
 4341 02af 79000000 		.4byte	.LVL39-1
 4342 02b3 0100     		.2byte	0x1
 4343 02b5 53       		.byte	0x53
 4344 02b6 00000000 		.4byte	0
 4345 02ba 00000000 		.4byte	0
 4346              	.LLST18:
 4347 02be 7E000000 		.4byte	.LVL40
 4348 02c2 8B000000 		.4byte	.LVL41-1
 4349 02c6 0100     		.2byte	0x1
 4350 02c8 53       		.byte	0x53
 4351 02c9 00000000 		.4byte	0
 4352 02cd 00000000 		.4byte	0
 4353              	.LLST19:
 4354 02d1 96000000 		.4byte	.LVL44
 4355 02d5 98000000 		.4byte	.LVL45
 4356 02d9 0100     		.2byte	0x1
 4357 02db 53       		.byte	0x53
 4358 02dc 00000000 		.4byte	0
 4359 02e0 00000000 		.4byte	0
 4360              	.LLST20:
 4361 02e4 BC000000 		.4byte	.LVL50
 4362 02e8 C7000000 		.4byte	.LVL51-1
 4363 02ec 0100     		.2byte	0x1
 4364 02ee 52       		.byte	0x52
 4365 02ef 00000000 		.4byte	0
 4366 02f3 00000000 		.4byte	0
 4367              	.LLST21:
 4368 02f7 BC000000 		.4byte	.LVL50
 4369 02fb C7000000 		.4byte	.LVL51-1
 4370 02ff 0F00     		.2byte	0xf
ARM GAS  /tmp/ccRfa0ZT.s 			page 78


 4371 0301 74       		.byte	0x74
 4372 0302 10       		.sleb128 16
 4373 0303 06       		.byte	0x6
 4374 0304 23       		.byte	0x23
 4375 0305 04       		.uleb128 0x4
 4376 0306 94       		.byte	0x94
 4377 0307 02       		.byte	0x2
 4378 0308 0A       		.byte	0xa
 4379 0309 FFFF     		.2byte	0xffff
 4380 030b 1A       		.byte	0x1a
 4381 030c 72       		.byte	0x72
 4382 030d 00       		.sleb128 0
 4383 030e 1E       		.byte	0x1e
 4384 030f 9F       		.byte	0x9f
 4385 0310 00000000 		.4byte	0
 4386 0314 00000000 		.4byte	0
 4387              	.LLST22:
 4388 0318 D8000000 		.4byte	.LVL53
 4389 031c DB000000 		.4byte	.LVL54-1
 4390 0320 0100     		.2byte	0x1
 4391 0322 53       		.byte	0x53
 4392 0323 00000000 		.4byte	0
 4393 0327 00000000 		.4byte	0
 4394              	.LLST23:
 4395 032b E2000000 		.4byte	.LVL55
 4396 032f EB000000 		.4byte	.LVL56-1
 4397 0333 0100     		.2byte	0x1
 4398 0335 51       		.byte	0x51
 4399 0336 00000000 		.4byte	0
 4400 033a 00000000 		.4byte	0
 4401              	.LLST24:
 4402 033e 00000000 		.4byte	.LFB119
 4403 0342 02000000 		.4byte	.LCFI6
 4404 0346 0200     		.2byte	0x2
 4405 0348 7D       		.byte	0x7d
 4406 0349 00       		.sleb128 0
 4407 034a 02000000 		.4byte	.LCFI6
 4408 034e 84000000 		.4byte	.LFE119
 4409 0352 0200     		.2byte	0x2
 4410 0354 7D       		.byte	0x7d
 4411 0355 10       		.sleb128 16
 4412 0356 00000000 		.4byte	0
 4413 035a 00000000 		.4byte	0
 4414              	.LLST25:
 4415 035e 12000000 		.4byte	.LVL59
 4416 0362 20000000 		.4byte	.LVL60
 4417 0366 0100     		.2byte	0x1
 4418 0368 52       		.byte	0x52
 4419 0369 00000000 		.4byte	0
 4420 036d 00000000 		.4byte	0
 4421              	.LLST26:
 4422 0371 4C000000 		.4byte	.LVL64
 4423 0375 4F000000 		.4byte	.LVL65-1
 4424 0379 0100     		.2byte	0x1
 4425 037b 53       		.byte	0x53
 4426 037c 00000000 		.4byte	0
 4427 0380 00000000 		.4byte	0
ARM GAS  /tmp/ccRfa0ZT.s 			page 79


 4428              	.LLST27:
 4429 0384 54000000 		.4byte	.LVL66
 4430 0388 61000000 		.4byte	.LVL67-1
 4431 038c 0100     		.2byte	0x1
 4432 038e 50       		.byte	0x50
 4433 038f 00000000 		.4byte	0
 4434 0393 00000000 		.4byte	0
 4435              	.LLST28:
 4436 0397 6C000000 		.4byte	.LVL70
 4437 039b 6F000000 		.4byte	.LVL71-1
 4438 039f 0100     		.2byte	0x1
 4439 03a1 53       		.byte	0x53
 4440 03a2 00000000 		.4byte	0
 4441 03a6 00000000 		.4byte	0
 4442              		.section	.debug_aranges,"",%progbits
 4443 0000 6C000000 		.4byte	0x6c
 4444 0004 0200     		.2byte	0x2
 4445 0006 00000000 		.4byte	.Ldebug_info0
 4446 000a 04       		.byte	0x4
 4447 000b 00       		.byte	0
 4448 000c 0000     		.2byte	0
 4449 000e 0000     		.2byte	0
 4450 0010 00000000 		.4byte	.LFB120
 4451 0014 44000000 		.4byte	.LFE120-.LFB120
 4452 0018 00000000 		.4byte	.LFB121
 4453 001c 64000000 		.4byte	.LFE121-.LFB121
 4454 0020 00000000 		.4byte	.LFB122
 4455 0024 38000000 		.4byte	.LFE122-.LFB122
 4456 0028 00000000 		.4byte	.LFB123
 4457 002c 78000000 		.4byte	.LFE123-.LFB123
 4458 0030 00000000 		.4byte	.LFB124
 4459 0034 30000000 		.4byte	.LFE124-.LFB124
 4460 0038 00000000 		.4byte	.LFB118
 4461 003c FC000000 		.4byte	.LFE118-.LFB118
 4462 0040 00000000 		.4byte	.LFB119
 4463 0044 84000000 		.4byte	.LFE119-.LFB119
 4464 0048 00000000 		.4byte	.LFB125
 4465 004c 12000000 		.4byte	.LFE125-.LFB125
 4466 0050 00000000 		.4byte	.LFB126
 4467 0054 12000000 		.4byte	.LFE126-.LFB126
 4468 0058 00000000 		.4byte	.LFB127
 4469 005c 12000000 		.4byte	.LFE127-.LFB127
 4470 0060 00000000 		.4byte	.LFB128
 4471 0064 12000000 		.4byte	.LFE128-.LFB128
 4472 0068 00000000 		.4byte	0
 4473 006c 00000000 		.4byte	0
 4474              		.section	.debug_ranges,"",%progbits
 4475              	.Ldebug_ranges0:
 4476 0000 00000000 		.4byte	.LFB120
 4477 0004 44000000 		.4byte	.LFE120
 4478 0008 00000000 		.4byte	.LFB121
 4479 000c 64000000 		.4byte	.LFE121
 4480 0010 00000000 		.4byte	.LFB122
 4481 0014 38000000 		.4byte	.LFE122
 4482 0018 00000000 		.4byte	.LFB123
 4483 001c 78000000 		.4byte	.LFE123
 4484 0020 00000000 		.4byte	.LFB124
ARM GAS  /tmp/ccRfa0ZT.s 			page 80


 4485 0024 30000000 		.4byte	.LFE124
 4486 0028 00000000 		.4byte	.LFB118
 4487 002c FC000000 		.4byte	.LFE118
 4488 0030 00000000 		.4byte	.LFB119
 4489 0034 84000000 		.4byte	.LFE119
 4490 0038 00000000 		.4byte	.LFB125
 4491 003c 12000000 		.4byte	.LFE125
 4492 0040 00000000 		.4byte	.LFB126
 4493 0044 12000000 		.4byte	.LFE126
 4494 0048 00000000 		.4byte	.LFB127
 4495 004c 12000000 		.4byte	.LFE127
 4496 0050 00000000 		.4byte	.LFB128
 4497 0054 12000000 		.4byte	.LFE128
 4498 0058 00000000 		.4byte	0
 4499 005c 00000000 		.4byte	0
 4500              		.section	.debug_line,"",%progbits
 4501              	.Ldebug_line0:
 4502 0000 B1040000 		.section	.debug_str,"MS",%progbits,1
 4502      0200BD02 
 4502      00000201 
 4502      FB0E0D00 
 4502      01010101 
 4503              	.LASF169:
 4504 0000 4D314152 		.ascii	"M1AR\000"
 4504      00
 4505              	.LASF2:
 4506 0005 73697A65 		.ascii	"size_t\000"
 4506      5F7400
 4507              	.LASF113:
 4508 000c 54494D38 		.ascii	"TIM8_UP_TIM13_IRQn\000"
 4508      5F55505F 
 4508      54494D31 
 4508      335F4952 
 4508      516E00
 4509              	.LASF236:
 4510 001f 73717231 		.ascii	"sqr1\000"
 4510      00
 4511              	.LASF237:
 4512 0024 73717232 		.ascii	"sqr2\000"
 4512      00
 4513              	.LASF51:
 4514 0029 73697A65 		.ascii	"sizetype\000"
 4514      74797065 
 4514      00
 4515              	.LASF243:
 4516 0032 6164635F 		.ascii	"adc_lld_start\000"
 4516      6C6C645F 
 4516      73746172 
 4516      7400
 4517              	.LASF23:
 4518 0040 73797374 		.ascii	"systime_t\000"
 4518      696D655F 
 4518      7400
 4519              	.LASF197:
 4520 004a 504C4C49 		.ascii	"PLLI2SCFGR\000"
 4520      32534346 
 4520      475200
ARM GAS  /tmp/ccRfa0ZT.s 			page 81


 4521              	.LASF28:
 4522 0055 705F6374 		.ascii	"p_ctx\000"
 4522      7800
 4523              	.LASF20:
 4524 005b 74707269 		.ascii	"tprio_t\000"
 4524      6F5F7400 
 4525              	.LASF228:
 4526 0063 61646363 		.ascii	"adccallback_t\000"
 4526      616C6C62 
 4526      61636B5F 
 4526      7400
 4527              	.LASF157:
 4528 0071 53515231 		.ascii	"SQR1\000"
 4528      00
 4529              	.LASF158:
 4530 0076 53515232 		.ascii	"SQR2\000"
 4530      00
 4531              	.LASF159:
 4532 007b 53515233 		.ascii	"SQR3\000"
 4532      00
 4533              	.LASF39:
 4534 0080 705F6D73 		.ascii	"p_msgqueue\000"
 4534      67717565 
 4534      756500
 4535              	.LASF8:
 4536 008b 696E7433 		.ascii	"int32_t\000"
 4536      325F7400 
 4537              	.LASF212:
 4538 0093 61646373 		.ascii	"adcstate_t\000"
 4538      74617465 
 4538      5F7400
 4539              	.LASF263:
 4540 009e 646D6153 		.ascii	"dmaStreamRelease\000"
 4540      74726561 
 4540      6D52656C 
 4540      65617365 
 4540      00
 4541              	.LASF215:
 4542 00af 4144435F 		.ascii	"ADC_ERR_DMAFAILURE\000"
 4542      4552525F 
 4542      444D4146 
 4542      41494C55 
 4542      524500
 4543              	.LASF265:
 4544 00c2 63685363 		.ascii	"chSchReadyI\000"
 4544      68526561 
 4544      64794900 
 4545              	.LASF126:
 4546 00ce 444D4132 		.ascii	"DMA2_Stream1_IRQn\000"
 4546      5F537472 
 4546      65616D31 
 4546      5F495251 
 4546      6E00
 4547              	.LASF120:
 4548 00e0 53504933 		.ascii	"SPI3_IRQn\000"
 4548      5F495251 
 4548      6E00
ARM GAS  /tmp/ccRfa0ZT.s 			page 82


 4549              	.LASF73:
 4550 00ea 464C4153 		.ascii	"FLASH_IRQn\000"
 4550      485F4952 
 4550      516E00
 4551              	.LASF147:
 4552 00f5 44434D49 		.ascii	"DCMI_IRQn\000"
 4552      5F495251 
 4552      6E00
 4553              	.LASF220:
 4554 00ff 636F6E66 		.ascii	"config\000"
 4554      696700
 4555              	.LASF219:
 4556 0106 73746174 		.ascii	"state\000"
 4556      6500
 4557              	.LASF272:
 4558 010c 2F686F6D 		.ascii	"/home/gokul/ChibiOS_2.5.0/os/hal/platforms/STM32F4x"
 4558      652F676F 
 4558      6B756C2F 
 4558      43686962 
 4558      694F535F 
 4559 013f 782F6164 		.ascii	"x/adc_lld.c\000"
 4559      635F6C6C 
 4559      642E6300 
 4560              	.LASF97:
 4561 014b 54494D32 		.ascii	"TIM2_IRQn\000"
 4561      5F495251 
 4561      6E00
 4562              	.LASF256:
 4563 0155 61646353 		.ascii	"adcSTM32DisableVBATE\000"
 4563      544D3332 
 4563      44697361 
 4563      626C6556 
 4563      42415445 
 4564              	.LASF233:
 4565 016a 6572726F 		.ascii	"error_cb\000"
 4565      725F6362 
 4565      00
 4566              	.LASF133:
 4567 0173 43414E32 		.ascii	"CAN2_RX0_IRQn\000"
 4567      5F525830 
 4567      5F495251 
 4567      6E00
 4568              	.LASF140:
 4569 0181 55534152 		.ascii	"USART6_IRQn\000"
 4569      54365F49 
 4569      52516E00 
 4570              	.LASF54:
 4571 018d 6D5F6F77 		.ascii	"m_owner\000"
 4571      6E657200 
 4572              	.LASF164:
 4573 0195 4A445234 		.ascii	"JDR4\000"
 4573      00
 4574              	.LASF232:
 4575 019a 656E645F 		.ascii	"end_cb\000"
 4575      636200
 4576              	.LASF57:
 4577 01a1 65786974 		.ascii	"exitcode\000"
ARM GAS  /tmp/ccRfa0ZT.s 			page 83


 4577      636F6465 
 4577      00
 4578              	.LASF145:
 4579 01aa 4F54475F 		.ascii	"OTG_HS_WKUP_IRQn\000"
 4579      48535F57 
 4579      4B55505F 
 4579      4952516E 
 4579      00
 4580              	.LASF59:
 4581 01bb 65776D61 		.ascii	"ewmask\000"
 4581      736B00
 4582              	.LASF112:
 4583 01c2 54494D38 		.ascii	"TIM8_BRK_TIM12_IRQn\000"
 4583      5F42524B 
 4583      5F54494D 
 4583      31325F49 
 4583      52516E00 
 4584              	.LASF188:
 4585 01d6 41484232 		.ascii	"AHB2LPENR\000"
 4585      4C50454E 
 4585      5200
 4586              	.LASF29:
 4587 01e0 705F6E65 		.ascii	"p_newer\000"
 4587      77657200 
 4588              	.LASF9:
 4589 01e8 6C6F6E67 		.ascii	"long int\000"
 4589      20696E74 
 4589      00
 4590              	.LASF25:
 4591 01f1 705F6E65 		.ascii	"p_next\000"
 4591      787400
 4592              	.LASF26:
 4593 01f8 705F7072 		.ascii	"p_prev\000"
 4593      657600
 4594              	.LASF227:
 4595 01ff 646D616D 		.ascii	"dmamode\000"
 4595      6F646500 
 4596              	.LASF137:
 4597 0207 444D4132 		.ascii	"DMA2_Stream5_IRQn\000"
 4597      5F537472 
 4597      65616D35 
 4597      5F495251 
 4597      6E00
 4598              	.LASF17:
 4599 0219 74737461 		.ascii	"tstate_t\000"
 4599      74655F74 
 4599      00
 4600              	.LASF252:
 4601 0222 56656374 		.ascii	"Vector88\000"
 4601      6F723838 
 4601      00
 4602              	.LASF42:
 4603 022b 705F6D74 		.ascii	"p_mtxlist\000"
 4603      786C6973 
 4603      7400
 4604              	.LASF95:
 4605 0235 54494D31 		.ascii	"TIM1_TRG_COM_TIM11_IRQn\000"
ARM GAS  /tmp/ccRfa0ZT.s 			page 84


 4605      5F545247 
 4605      5F434F4D 
 4605      5F54494D 
 4605      31315F49 
 4606              	.LASF47:
 4607 024d 72656761 		.ascii	"regarm_t\000"
 4607      726D5F74 
 4607      00
 4608              	.LASF244:
 4609 0256 6164635F 		.ascii	"adc_lld_stop\000"
 4609      6C6C645F 
 4609      73746F70 
 4609      00
 4610              	.LASF185:
 4611 0263 41504232 		.ascii	"APB2ENR\000"
 4611      454E5200 
 4612              	.LASF187:
 4613 026b 41484231 		.ascii	"AHB1LPENR\000"
 4613      4C50454E 
 4613      5200
 4614              	.LASF68:
 4615 0275 53797354 		.ascii	"SysTick_IRQn\000"
 4615      69636B5F 
 4615      4952516E 
 4615      00
 4616              	.LASF108:
 4617 0282 55534152 		.ascii	"USART3_IRQn\000"
 4617      54335F49 
 4617      52516E00 
 4618              	.LASF253:
 4619 028e 61646353 		.ascii	"adcSTM32EnableTSVREFE\000"
 4619      544D3332 
 4619      456E6162 
 4619      6C655453 
 4619      56524546 
 4620              	.LASF1:
 4621 02a4 7369676E 		.ascii	"signed char\000"
 4621      65642063 
 4621      68617200 
 4622              	.LASF36:
 4623 02b0 705F7072 		.ascii	"p_preempt\000"
 4623      65656D70 
 4623      7400
 4624              	.LASF3:
 4625 02ba 75696E74 		.ascii	"uint8_t\000"
 4625      385F7400 
 4626              	.LASF22:
 4627 02c2 6576656E 		.ascii	"eventmask_t\000"
 4627      746D6173 
 4627      6B5F7400 
 4628              	.LASF50:
 4629 02ce 636F6E74 		.ascii	"context\000"
 4629      65787400 
 4630              	.LASF82:
 4631 02d6 444D4131 		.ascii	"DMA1_Stream2_IRQn\000"
 4631      5F537472 
 4631      65616D32 
ARM GAS  /tmp/ccRfa0ZT.s 			page 85


 4631      5F495251 
 4631      6E00
 4632              	.LASF176:
 4633 02e8 52455345 		.ascii	"RESERVED0\000"
 4633      52564544 
 4633      3000
 4634              	.LASF179:
 4635 02f2 52455345 		.ascii	"RESERVED1\000"
 4635      52564544 
 4635      3100
 4636              	.LASF4:
 4637 02fc 756E7369 		.ascii	"unsigned char\000"
 4637      676E6564 
 4637      20636861 
 4637      7200
 4638              	.LASF129:
 4639 030a 444D4132 		.ascii	"DMA2_Stream4_IRQn\000"
 4639      5F537472 
 4639      65616D34 
 4639      5F495251 
 4639      6E00
 4640              	.LASF190:
 4641 031c 52455345 		.ascii	"RESERVED4\000"
 4641      52564544 
 4641      3400
 4642              	.LASF193:
 4643 0326 52455345 		.ascii	"RESERVED5\000"
 4643      52564544 
 4643      3500
 4644              	.LASF195:
 4645 0330 52455345 		.ascii	"RESERVED6\000"
 4645      52564544 
 4645      3600
 4646              	.LASF271:
 4647 033a 474E5520 		.ascii	"GNU C 4.7.3 20130312 (release) [ARM/embedded-4_7-br"
 4647      4320342E 
 4647      372E3320 
 4647      32303133 
 4647      30333132 
 4648 036d 616E6368 		.ascii	"anch revision 196615]\000"
 4648      20726576 
 4648      6973696F 
 4648      6E203139 
 4648      36363135 
 4649              	.LASF262:
 4650 0383 63684462 		.ascii	"chDbgPanic\000"
 4650      6750616E 
 4650      696300
 4651              	.LASF217:
 4652 038e 61646365 		.ascii	"adcerror_t\000"
 4652      72726F72 
 4652      5F7400
 4653              	.LASF101:
 4654 0399 49324331 		.ascii	"I2C1_ER_IRQn\000"
 4654      5F45525F 
 4654      4952516E 
 4654      00
ARM GAS  /tmp/ccRfa0ZT.s 			page 86


 4655              	.LASF206:
 4656 03a6 4144435F 		.ascii	"ADC_UNINIT\000"
 4656      554E494E 
 4656      495400
 4657              	.LASF135:
 4658 03b1 43414E32 		.ascii	"CAN2_SCE_IRQn\000"
 4658      5F534345 
 4658      5F495251 
 4658      6E00
 4659              	.LASF208:
 4660 03bf 4144435F 		.ascii	"ADC_READY\000"
 4660      52454144 
 4660      5900
 4661              	.LASF183:
 4662 03c9 52455345 		.ascii	"RESERVED2\000"
 4662      52564544 
 4662      3200
 4663              	.LASF186:
 4664 03d3 52455345 		.ascii	"RESERVED3\000"
 4664      52564544 
 4664      3300
 4665              	.LASF119:
 4666 03dd 54494D35 		.ascii	"TIM5_IRQn\000"
 4666      5F495251 
 4666      6E00
 4667              	.LASF213:
 4668 03e7 61646373 		.ascii	"adcsample_t\000"
 4668      616D706C 
 4668      655F7400 
 4669              	.LASF64:
 4670 03f3 55736167 		.ascii	"UsageFault_IRQn\000"
 4670      65466175 
 4670      6C745F49 
 4670      52516E00 
 4671              	.LASF60:
 4672 0403 63686172 		.ascii	"char\000"
 4672      00
 4673              	.LASF201:
 4674 0408 69736869 		.ascii	"ishift\000"
 4674      667400
 4675              	.LASF27:
 4676 040f 705F7072 		.ascii	"p_prio\000"
 4676      696F00
 4677              	.LASF181:
 4678 0416 41484232 		.ascii	"AHB2ENR\000"
 4678      454E5200 
 4679              	.LASF58:
 4680 041e 77746F62 		.ascii	"wtobjp\000"
 4680      6A7000
 4681              	.LASF89:
 4682 0425 43414E31 		.ascii	"CAN1_RX0_IRQn\000"
 4682      5F525830 
 4682      5F495251 
 4682      6E00
 4683              	.LASF211:
 4684 0433 4144435F 		.ascii	"ADC_ERROR\000"
 4684      4552524F 
ARM GAS  /tmp/ccRfa0ZT.s 			page 87


 4684      5200
 4685              	.LASF249:
 4686 043d 666C6167 		.ascii	"flags\000"
 4686      7300
 4687              	.LASF48:
 4688 0443 73746B61 		.ascii	"stkalign_t\000"
 4688      6C69676E 
 4688      5F7400
 4689              	.LASF238:
 4690 044e 73717233 		.ascii	"sqr3\000"
 4690      00
 4691              	.LASF230:
 4692 0453 63697263 		.ascii	"circular\000"
 4692      756C6172 
 4692      00
 4693              	.LASF99:
 4694 045c 54494D34 		.ascii	"TIM4_IRQn\000"
 4694      5F495251 
 4694      6E00
 4695              	.LASF107:
 4696 0466 55534152 		.ascii	"USART2_IRQn\000"
 4696      54325F49 
 4696      52516E00 
 4697              	.LASF199:
 4698 0472 73747265 		.ascii	"stream\000"
 4698      616D00
 4699              	.LASF266:
 4700 0479 6462675F 		.ascii	"dbg_check_lock_from_isr\000"
 4700      63686563 
 4700      6B5F6C6F 
 4700      636B5F66 
 4700      726F6D5F 
 4701              	.LASF264:
 4702 0491 646D6153 		.ascii	"dmaStreamAllocate\000"
 4702      74726561 
 4702      6D416C6C 
 4702      6F636174 
 4702      6500
 4703              	.LASF194:
 4704 04a3 42444352 		.ascii	"BDCR\000"
 4704      00
 4705              	.LASF221:
 4706 04a8 73616D70 		.ascii	"samples\000"
 4706      6C657300 
 4707              	.LASF100:
 4708 04b0 49324331 		.ascii	"I2C1_EV_IRQn\000"
 4708      5F45565F 
 4708      4952516E 
 4708      00
 4709              	.LASF165:
 4710 04bd 4144435F 		.ascii	"ADC_TypeDef\000"
 4710      54797065 
 4710      44656600 
 4711              	.LASF268:
 4712 04c9 6462675F 		.ascii	"dbg_check_enter_isr\000"
 4712      63686563 
 4712      6B5F656E 
ARM GAS  /tmp/ccRfa0ZT.s 			page 88


 4712      7465725F 
 4712      69737200 
 4713              	.LASF49:
 4714 04dd 696E7463 		.ascii	"intctx\000"
 4714      747800
 4715              	.LASF41:
 4716 04e4 705F6570 		.ascii	"p_epending\000"
 4716      656E6469 
 4716      6E6700
 4717              	.LASF172:
 4718 04ef 43464752 		.ascii	"CFGR\000"
 4718      00
 4719              	.LASF96:
 4720 04f4 54494D31 		.ascii	"TIM1_CC_IRQn\000"
 4720      5F43435F 
 4720      4952516E 
 4720      00
 4721              	.LASF149:
 4722 0501 48415348 		.ascii	"HASH_RNG_IRQn\000"
 4722      5F524E47 
 4722      5F495251 
 4722      6E00
 4723              	.LASF76:
 4724 050f 45585449 		.ascii	"EXTI1_IRQn\000"
 4724      315F4952 
 4724      516E00
 4725              	.LASF88:
 4726 051a 43414E31 		.ascii	"CAN1_TX_IRQn\000"
 4726      5F54585F 
 4726      4952516E 
 4726      00
 4727              	.LASF85:
 4728 0527 444D4131 		.ascii	"DMA1_Stream5_IRQn\000"
 4728      5F537472 
 4728      65616D35 
 4728      5F495251 
 4728      6E00
 4729              	.LASF114:
 4730 0539 54494D38 		.ascii	"TIM8_TRG_COM_TIM14_IRQn\000"
 4730      5F545247 
 4730      5F434F4D 
 4730      5F54494D 
 4730      31345F49 
 4731              	.LASF139:
 4732 0551 444D4132 		.ascii	"DMA2_Stream7_IRQn\000"
 4732      5F537472 
 4732      65616D37 
 4732      5F495251 
 4732      6E00
 4733              	.LASF136:
 4734 0563 4F54475F 		.ascii	"OTG_FS_IRQn\000"
 4734      46535F49 
 4734      52516E00 
 4735              	.LASF61:
 4736 056f 4E6F6E4D 		.ascii	"NonMaskableInt_IRQn\000"
 4736      61736B61 
 4736      626C6549 
ARM GAS  /tmp/ccRfa0ZT.s 			page 89


 4736      6E745F49 
 4736      52516E00 
 4737              	.LASF69:
 4738 0583 57574447 		.ascii	"WWDG_IRQn\000"
 4738      5F495251 
 4738      6E00
 4739              	.LASF11:
 4740 058d 6C6F6E67 		.ascii	"long unsigned int\000"
 4740      20756E73 
 4740      69676E65 
 4740      6420696E 
 4740      7400
 4741              	.LASF184:
 4742 059f 41504231 		.ascii	"APB1ENR\000"
 4742      454E5200 
 4743              	.LASF226:
 4744 05a7 646D6173 		.ascii	"dmastp\000"
 4744      747000
 4745              	.LASF62:
 4746 05ae 4D656D6F 		.ascii	"MemoryManagement_IRQn\000"
 4746      72794D61 
 4746      6E616765 
 4746      6D656E74 
 4746      5F495251 
 4747              	.LASF71:
 4748 05c4 54414D50 		.ascii	"TAMP_STAMP_IRQn\000"
 4748      5F535441 
 4748      4D505F49 
 4748      52516E00 
 4749              	.LASF91:
 4750 05d4 43414E31 		.ascii	"CAN1_SCE_IRQn\000"
 4750      5F534345 
 4750      5F495251 
 4750      6E00
 4751              	.LASF258:
 4752 05e2 5F73746D 		.ascii	"_stm32_dma_streams\000"
 4752      33325F64 
 4752      6D615F73 
 4752      74726561 
 4752      6D7300
 4753              	.LASF125:
 4754 05f5 444D4132 		.ascii	"DMA2_Stream0_IRQn\000"
 4754      5F537472 
 4754      65616D30 
 4754      5F495251 
 4754      6E00
 4755              	.LASF151:
 4756 0607 534D5052 		.ascii	"SMPR1\000"
 4756      3100
 4757              	.LASF152:
 4758 060d 534D5052 		.ascii	"SMPR2\000"
 4758      3200
 4759              	.LASF204:
 4760 0613 73746D33 		.ascii	"stm32_dma_stream_t\000"
 4760      325F646D 
 4760      615F7374 
 4760      7265616D 
ARM GAS  /tmp/ccRfa0ZT.s 			page 90


 4760      5F7400
 4761              	.LASF103:
 4762 0626 49324332 		.ascii	"I2C2_ER_IRQn\000"
 4762      5F45525F 
 4762      4952516E 
 4762      00
 4763              	.LASF239:
 4764 0633 41444343 		.ascii	"ADCConversionGroup\000"
 4764      6F6E7665 
 4764      7273696F 
 4764      6E47726F 
 4764      757000
 4765              	.LASF210:
 4766 0646 4144435F 		.ascii	"ADC_COMPLETE\000"
 4766      434F4D50 
 4766      4C455445 
 4766      00
 4767              	.LASF234:
 4768 0653 736D7072 		.ascii	"smpr1\000"
 4768      3100
 4769              	.LASF235:
 4770 0659 736D7072 		.ascii	"smpr2\000"
 4770      3200
 4771              	.LASF246:
 4772 065f 6164635F 		.ascii	"adc_lld_start_conversion\000"
 4772      6C6C645F 
 4772      73746172 
 4772      745F636F 
 4772      6E766572 
 4773              	.LASF63:
 4774 0678 42757346 		.ascii	"BusFault_IRQn\000"
 4774      61756C74 
 4774      5F495251 
 4774      6E00
 4775              	.LASF171:
 4776 0686 504C4C43 		.ascii	"PLLCFGR\000"
 4776      46475200 
 4777              	.LASF122:
 4778 068e 55415254 		.ascii	"UART5_IRQn\000"
 4778      355F4952 
 4778      516E00
 4779              	.LASF93:
 4780 0699 54494D31 		.ascii	"TIM1_BRK_TIM9_IRQn\000"
 4780      5F42524B 
 4780      5F54494D 
 4780      395F4952 
 4780      516E00
 4781              	.LASF52:
 4782 06ac 4D757465 		.ascii	"Mutex\000"
 4782      7800
 4783              	.LASF124:
 4784 06b2 54494D37 		.ascii	"TIM7_IRQn\000"
 4784      5F495251 
 4784      6E00
 4785              	.LASF12:
 4786 06bc 6C6F6E67 		.ascii	"long long int\000"
 4786      206C6F6E 
ARM GAS  /tmp/ccRfa0ZT.s 			page 91


 4786      6720696E 
 4786      7400
 4787              	.LASF131:
 4788 06ca 4554485F 		.ascii	"ETH_WKUP_IRQn\000"
 4788      574B5550 
 4788      5F495251 
 4788      6E00
 4789              	.LASF105:
 4790 06d8 53504932 		.ascii	"SPI2_IRQn\000"
 4790      5F495251 
 4790      6E00
 4791              	.LASF146:
 4792 06e2 4F54475F 		.ascii	"OTG_HS_IRQn\000"
 4792      48535F49 
 4792      52516E00 
 4793              	.LASF53:
 4794 06ee 6D5F7175 		.ascii	"m_queue\000"
 4794      65756500 
 4795              	.LASF196:
 4796 06f6 53534347 		.ascii	"SSCGR\000"
 4796      5200
 4797              	.LASF104:
 4798 06fc 53504931 		.ascii	"SPI1_IRQn\000"
 4798      5F495251 
 4798      6E00
 4799              	.LASF245:
 4800 0706 61646370 		.ascii	"adcp\000"
 4800      00
 4801              	.LASF229:
 4802 070b 61646365 		.ascii	"adcerrorcallback_t\000"
 4802      72726F72 
 4802      63616C6C 
 4802      6261636B 
 4802      5F7400
 4803              	.LASF65:
 4804 071e 53564361 		.ascii	"SVCall_IRQn\000"
 4804      6C6C5F49 
 4804      52516E00 
 4805              	.LASF178:
 4806 072a 41504232 		.ascii	"APB2RSTR\000"
 4806      52535452 
 4806      00
 4807              	.LASF222:
 4808 0733 64657074 		.ascii	"depth\000"
 4808      6800
 4809              	.LASF267:
 4810 0739 6462675F 		.ascii	"dbg_check_unlock_from_isr\000"
 4810      63686563 
 4810      6B5F756E 
 4810      6C6F636B 
 4810      5F66726F 
 4811              	.LASF225:
 4812 0753 6D757465 		.ascii	"mutex\000"
 4812      7800
 4813              	.LASF150:
 4814 0759 4650555F 		.ascii	"FPU_IRQn\000"
 4814      4952516E 
ARM GAS  /tmp/ccRfa0ZT.s 			page 92


 4814      00
 4815              	.LASF121:
 4816 0762 55415254 		.ascii	"UART4_IRQn\000"
 4816      345F4952 
 4816      516E00
 4817              	.LASF192:
 4818 076d 41504232 		.ascii	"APB2LPENR\000"
 4818      4C50454E 
 4818      5200
 4819              	.LASF38:
 4820 0777 705F7761 		.ascii	"p_waiting\000"
 4820      6974696E 
 4820      6700
 4821              	.LASF111:
 4822 0781 4F54475F 		.ascii	"OTG_FS_WKUP_IRQn\000"
 4822      46535F57 
 4822      4B55505F 
 4822      4952516E 
 4822      00
 4823              	.LASF34:
 4824 0792 705F666C 		.ascii	"p_flags\000"
 4824      61677300 
 4825              	.LASF202:
 4826 079a 73656C66 		.ascii	"selfindex\000"
 4826      696E6465 
 4826      7800
 4827              	.LASF0:
 4828 07a4 756E7369 		.ascii	"unsigned int\000"
 4828      676E6564 
 4828      20696E74 
 4828      00
 4829              	.LASF123:
 4830 07b1 54494D36 		.ascii	"TIM6_DAC_IRQn\000"
 4830      5F444143 
 4830      5F495251 
 4830      6E00
 4831              	.LASF214:
 4832 07bf 6164635F 		.ascii	"adc_channels_num_t\000"
 4832      6368616E 
 4832      6E656C73 
 4832      5F6E756D 
 4832      5F7400
 4833              	.LASF44:
 4834 07d2 705F6D70 		.ascii	"p_mpool\000"
 4834      6F6F6C00 
 4835              	.LASF102:
 4836 07da 49324332 		.ascii	"I2C2_EV_IRQn\000"
 4836      5F45565F 
 4836      4952516E 
 4836      00
 4837              	.LASF35:
 4838 07e7 705F7265 		.ascii	"p_refs\000"
 4838      667300
 4839              	.LASF231:
 4840 07ee 6E756D5F 		.ascii	"num_channels\000"
 4840      6368616E 
 4840      6E656C73 
ARM GAS  /tmp/ccRfa0ZT.s 			page 93


 4840      00
 4841              	.LASF270:
 4842 07fb 5F706F72 		.ascii	"_port_irq_epilogue\000"
 4842      745F6972 
 4842      715F6570 
 4842      696C6F67 
 4842      756500
 4843              	.LASF46:
 4844 080e 54687265 		.ascii	"ThreadsList\000"
 4844      6164734C 
 4844      69737400 
 4845              	.LASF259:
 4846 081a 41444344 		.ascii	"ADCD1\000"
 4846      3100
 4847              	.LASF191:
 4848 0820 41504231 		.ascii	"APB1LPENR\000"
 4848      4C50454E 
 4848      5200
 4849              	.LASF81:
 4850 082a 444D4131 		.ascii	"DMA1_Stream1_IRQn\000"
 4850      5F537472 
 4850      65616D31 
 4850      5F495251 
 4850      6E00
 4851              	.LASF128:
 4852 083c 444D4132 		.ascii	"DMA2_Stream3_IRQn\000"
 4852      5F537472 
 4852      65616D33 
 4852      5F495251 
 4852      6E00
 4853              	.LASF132:
 4854 084e 43414E32 		.ascii	"CAN2_TX_IRQn\000"
 4854      5F54585F 
 4854      4952516E 
 4854      00
 4855              	.LASF248:
 4856 085b 6164635F 		.ascii	"adc_lld_stop_conversion\000"
 4856      6C6C645F 
 4856      73746F70 
 4856      5F636F6E 
 4856      76657273 
 4857              	.LASF170:
 4858 0873 444D415F 		.ascii	"DMA_Stream_TypeDef\000"
 4858      53747265 
 4858      616D5F54 
 4858      79706544 
 4858      656600
 4859              	.LASF37:
 4860 0886 705F7469 		.ascii	"p_time\000"
 4860      6D6500
 4861              	.LASF273:
 4862 088d 4952516E 		.ascii	"IRQn\000"
 4862      00
 4863              	.LASF86:
 4864 0892 444D4131 		.ascii	"DMA1_Stream6_IRQn\000"
 4864      5F537472 
 4864      65616D36 
ARM GAS  /tmp/ccRfa0ZT.s 			page 94


 4864      5F495251 
 4864      6E00
 4865              	.LASF175:
 4866 08a4 41484233 		.ascii	"AHB3RSTR\000"
 4866      52535452 
 4866      00
 4867              	.LASF43:
 4868 08ad 705F7265 		.ascii	"p_realprio\000"
 4868      616C7072 
 4868      696F00
 4869              	.LASF209:
 4870 08b8 4144435F 		.ascii	"ADC_ACTIVE\000"
 4870      41435449 
 4870      564500
 4871              	.LASF80:
 4872 08c3 444D4131 		.ascii	"DMA1_Stream0_IRQn\000"
 4872      5F537472 
 4872      65616D30 
 4872      5F495251 
 4872      6E00
 4873              	.LASF177:
 4874 08d5 41504231 		.ascii	"APB1RSTR\000"
 4874      52535452 
 4874      00
 4875              	.LASF205:
 4876 08de 73746D33 		.ascii	"stm32_dmaisr_t\000"
 4876      325F646D 
 4876      61697372 
 4876      5F7400
 4877              	.LASF110:
 4878 08ed 5254435F 		.ascii	"RTC_Alarm_IRQn\000"
 4878      416C6172 
 4878      6D5F4952 
 4878      516E00
 4879              	.LASF142:
 4880 08fc 49324333 		.ascii	"I2C3_ER_IRQn\000"
 4880      5F45525F 
 4880      4952516E 
 4880      00
 4881              	.LASF269:
 4882 0909 6462675F 		.ascii	"dbg_check_leave_isr\000"
 4882      63686563 
 4882      6B5F6C65 
 4882      6176655F 
 4882      69737200 
 4883              	.LASF148:
 4884 091d 43525950 		.ascii	"CRYP_IRQn\000"
 4884      5F495251 
 4884      6E00
 4885              	.LASF109:
 4886 0927 45585449 		.ascii	"EXTI15_10_IRQn\000"
 4886      31355F31 
 4886      305F4952 
 4886      516E00
 4887              	.LASF14:
 4888 0936 6C6F6E67 		.ascii	"long long unsigned int\000"
 4888      206C6F6E 
ARM GAS  /tmp/ccRfa0ZT.s 			page 95


 4888      6720756E 
 4888      7369676E 
 4888      65642069 
 4889              	.LASF30:
 4890 094d 705F6F6C 		.ascii	"p_older\000"
 4890      64657200 
 4891              	.LASF6:
 4892 0955 75696E74 		.ascii	"uint16_t\000"
 4892      31365F74 
 4892      00
 4893              	.LASF21:
 4894 095e 6D73675F 		.ascii	"msg_t\000"
 4894      7400
 4895              	.LASF98:
 4896 0964 54494D33 		.ascii	"TIM3_IRQn\000"
 4896      5F495251 
 4896      6E00
 4897              	.LASF106:
 4898 096e 55534152 		.ascii	"USART1_IRQn\000"
 4898      54315F49 
 4898      52516E00 
 4899              	.LASF19:
 4900 097a 74736C69 		.ascii	"tslices_t\000"
 4900      6365735F 
 4900      7400
 4901              	.LASF251:
 4902 0984 68616C66 		.ascii	"half_index\000"
 4902      5F696E64 
 4902      657800
 4903              	.LASF77:
 4904 098f 45585449 		.ascii	"EXTI2_IRQn\000"
 4904      325F4952 
 4904      516E00
 4905              	.LASF218:
 4906 099a 41444344 		.ascii	"ADCDriver\000"
 4906      72697665 
 4906      7200
 4907              	.LASF242:
 4908 09a4 6164635F 		.ascii	"adc_lld_init\000"
 4908      6C6C645F 
 4908      696E6974 
 4908      00
 4909              	.LASF134:
 4910 09b1 43414E32 		.ascii	"CAN2_RX1_IRQn\000"
 4910      5F525831 
 4910      5F495251 
 4910      6E00
 4911              	.LASF203:
 4912 09bf 76656374 		.ascii	"vector\000"
 4912      6F7200
 4913              	.LASF87:
 4914 09c6 4144435F 		.ascii	"ADC_IRQn\000"
 4914      4952516E 
 4914      00
 4915              	.LASF216:
 4916 09cf 4144435F 		.ascii	"ADC_ERR_OVERFLOW\000"
 4916      4552525F 
ARM GAS  /tmp/ccRfa0ZT.s 			page 96


 4916      4F564552 
 4916      464C4F57 
 4916      00
 4917              	.LASF250:
 4918 09e0 68616C66 		.ascii	"half\000"
 4918      00
 4919              	.LASF189:
 4920 09e5 41484233 		.ascii	"AHB3LPENR\000"
 4920      4C50454E 
 4920      5200
 4921              	.LASF255:
 4922 09ef 61646353 		.ascii	"adcSTM32EnableVBATE\000"
 4922      544D3332 
 4922      456E6162 
 4922      6C655642 
 4922      41544500 
 4923              	.LASF70:
 4924 0a03 5056445F 		.ascii	"PVD_IRQn\000"
 4924      4952516E 
 4924      00
 4925              	.LASF117:
 4926 0a0c 46534D43 		.ascii	"FSMC_IRQn\000"
 4926      5F495251 
 4926      6E00
 4927              	.LASF75:
 4928 0a16 45585449 		.ascii	"EXTI0_IRQn\000"
 4928      305F4952 
 4928      516E00
 4929              	.LASF16:
 4930 0a21 746D6F64 		.ascii	"tmode_t\000"
 4930      655F7400 
 4931              	.LASF84:
 4932 0a29 444D4131 		.ascii	"DMA1_Stream4_IRQn\000"
 4932      5F537472 
 4932      65616D34 
 4932      5F495251 
 4932      6E00
 4933              	.LASF240:
 4934 0a3b 64756D6D 		.ascii	"dummy\000"
 4934      7900
 4935              	.LASF207:
 4936 0a41 4144435F 		.ascii	"ADC_STOP\000"
 4936      53544F50 
 4936      00
 4937              	.LASF138:
 4938 0a4a 444D4132 		.ascii	"DMA2_Stream6_IRQn\000"
 4938      5F537472 
 4938      65616D36 
 4938      5F495251 
 4938      6E00
 4939              	.LASF180:
 4940 0a5c 41484231 		.ascii	"AHB1ENR\000"
 4940      454E5200 
 4941              	.LASF66:
 4942 0a64 44656275 		.ascii	"DebugMonitor_IRQn\000"
 4942      674D6F6E 
 4942      69746F72 
ARM GAS  /tmp/ccRfa0ZT.s 			page 97


 4942      5F495251 
 4942      6E00
 4943              	.LASF141:
 4944 0a76 49324333 		.ascii	"I2C3_EV_IRQn\000"
 4944      5F45565F 
 4944      4952516E 
 4944      00
 4945              	.LASF223:
 4946 0a83 67727070 		.ascii	"grpp\000"
 4946      00
 4947              	.LASF174:
 4948 0a88 41484232 		.ascii	"AHB2RSTR\000"
 4948      52535452 
 4948      00
 4949              	.LASF224:
 4950 0a91 74687265 		.ascii	"thread\000"
 4950      616400
 4951              	.LASF168:
 4952 0a98 4D304152 		.ascii	"M0AR\000"
 4952      00
 4953              	.LASF130:
 4954 0a9d 4554485F 		.ascii	"ETH_IRQn\000"
 4954      4952516E 
 4954      00
 4955              	.LASF198:
 4956 0aa6 5243435F 		.ascii	"RCC_TypeDef\000"
 4956      54797065 
 4956      44656600 
 4957              	.LASF5:
 4958 0ab2 73686F72 		.ascii	"short int\000"
 4958      7420696E 
 4958      7400
 4959              	.LASF13:
 4960 0abc 75696E74 		.ascii	"uint64_t\000"
 4960      36345F74 
 4960      00
 4961              	.LASF74:
 4962 0ac5 5243435F 		.ascii	"RCC_IRQn\000"
 4962      4952516E 
 4962      00
 4963              	.LASF247:
 4964 0ace 6D6F6465 		.ascii	"mode\000"
 4964      00
 4965              	.LASF153:
 4966 0ad3 4A4F4652 		.ascii	"JOFR1\000"
 4966      3100
 4967              	.LASF154:
 4968 0ad9 4A4F4652 		.ascii	"JOFR2\000"
 4968      3200
 4969              	.LASF155:
 4970 0adf 4A4F4652 		.ascii	"JOFR3\000"
 4970      3300
 4971              	.LASF156:
 4972 0ae5 4A4F4652 		.ascii	"JOFR4\000"
 4972      3400
 4973              	.LASF83:
 4974 0aeb 444D4131 		.ascii	"DMA1_Stream3_IRQn\000"
ARM GAS  /tmp/ccRfa0ZT.s 			page 98


 4974      5F537472 
 4974      65616D33 
 4974      5F495251 
 4974      6E00
 4975              	.LASF15:
 4976 0afd 626F6F6C 		.ascii	"bool_t\000"
 4976      5F7400
 4977              	.LASF260:
 4978 0b04 6164634F 		.ascii	"adcObjectInit\000"
 4978      626A6563 
 4978      74496E69 
 4978      7400
 4979              	.LASF161:
 4980 0b12 4A445231 		.ascii	"JDR1\000"
 4980      00
 4981              	.LASF162:
 4982 0b17 4A445232 		.ascii	"JDR2\000"
 4982      00
 4983              	.LASF163:
 4984 0b1c 4A445233 		.ascii	"JDR3\000"
 4984      00
 4985              	.LASF24:
 4986 0b21 54687265 		.ascii	"Thread\000"
 4986      616400
 4987              	.LASF160:
 4988 0b28 4A535152 		.ascii	"JSQR\000"
 4988      00
 4989              	.LASF94:
 4990 0b2d 54494D31 		.ascii	"TIM1_UP_TIM10_IRQn\000"
 4990      5F55505F 
 4990      54494D31 
 4990      305F4952 
 4990      516E00
 4991              	.LASF257:
 4992 0b40 49544D5F 		.ascii	"ITM_RxBuffer\000"
 4992      52784275 
 4992      66666572 
 4992      00
 4993              	.LASF18:
 4994 0b4d 74726566 		.ascii	"trefs_t\000"
 4994      735F7400 
 4995              	.LASF143:
 4996 0b55 4F54475F 		.ascii	"OTG_HS_EP1_OUT_IRQn\000"
 4996      48535F45 
 4996      50315F4F 
 4996      55545F49 
 4996      52516E00 
 4997              	.LASF72:
 4998 0b69 5254435F 		.ascii	"RTC_WKUP_IRQn\000"
 4998      574B5550 
 4998      5F495251 
 4998      6E00
 4999              	.LASF167:
 5000 0b77 4E445452 		.ascii	"NDTR\000"
 5000      00
 5001              	.LASF261:
 5002 0b7c 6E766963 		.ascii	"nvicEnableVector\000"
ARM GAS  /tmp/ccRfa0ZT.s 			page 99


 5002      456E6162 
 5002      6C655665 
 5002      63746F72 
 5002      00
 5003              	.LASF10:
 5004 0b8d 75696E74 		.ascii	"uint32_t\000"
 5004      33325F74 
 5004      00
 5005              	.LASF90:
 5006 0b96 43414E31 		.ascii	"CAN1_RX1_IRQn\000"
 5006      5F525831 
 5006      5F495251 
 5006      6E00
 5007              	.LASF45:
 5008 0ba4 54687265 		.ascii	"ThreadsQueue\000"
 5008      61647351 
 5008      75657565 
 5008      00
 5009              	.LASF92:
 5010 0bb1 45585449 		.ascii	"EXTI9_5_IRQn\000"
 5010      395F355F 
 5010      4952516E 
 5010      00
 5011              	.LASF274:
 5012 0bbe 6164635F 		.ascii	"adc_lld_serve_rx_interrupt\000"
 5012      6C6C645F 
 5012      73657276 
 5012      655F7278 
 5012      5F696E74 
 5013              	.LASF56:
 5014 0bd9 7264796D 		.ascii	"rdymsg\000"
 5014      736700
 5015              	.LASF79:
 5016 0be0 45585449 		.ascii	"EXTI4_IRQn\000"
 5016      345F4952 
 5016      516E00
 5017              	.LASF7:
 5018 0beb 73686F72 		.ascii	"short unsigned int\000"
 5018      7420756E 
 5018      7369676E 
 5018      65642069 
 5018      6E7400
 5019              	.LASF115:
 5020 0bfe 54494D38 		.ascii	"TIM8_CC_IRQn\000"
 5020      5F43435F 
 5020      4952516E 
 5020      00
 5021              	.LASF118:
 5022 0c0b 5344494F 		.ascii	"SDIO_IRQn\000"
 5022      5F495251 
 5022      6E00
 5023              	.LASF78:
 5024 0c15 45585449 		.ascii	"EXTI3_IRQn\000"
 5024      335F4952 
 5024      516E00
 5025              	.LASF67:
 5026 0c20 50656E64 		.ascii	"PendSV_IRQn\000"
ARM GAS  /tmp/ccRfa0ZT.s 			page 100


 5026      53565F49 
 5026      52516E00 
 5027              	.LASF144:
 5028 0c2c 4F54475F 		.ascii	"OTG_HS_EP1_IN_IRQn\000"
 5028      48535F45 
 5028      50315F49 
 5028      4E5F4952 
 5028      516E00
 5029              	.LASF32:
 5030 0c3f 705F7374 		.ascii	"p_stklimit\000"
 5030      6B6C696D 
 5030      697400
 5031              	.LASF116:
 5032 0c4a 444D4131 		.ascii	"DMA1_Stream7_IRQn\000"
 5032      5F537472 
 5032      65616D37 
 5032      5F495251 
 5032      6E00
 5033              	.LASF173:
 5034 0c5c 41484231 		.ascii	"AHB1RSTR\000"
 5034      52535452 
 5034      00
 5035              	.LASF166:
 5036 0c65 4144435F 		.ascii	"ADC_Common_TypeDef\000"
 5036      436F6D6D 
 5036      6F6E5F54 
 5036      79706544 
 5036      656600
 5037              	.LASF200:
 5038 0c78 69666372 		.ascii	"ifcr\000"
 5038      00
 5039              	.LASF31:
 5040 0c7d 705F6E61 		.ascii	"p_name\000"
 5040      6D6500
 5041              	.LASF55:
 5042 0c84 6D5F6E65 		.ascii	"m_next\000"
 5042      787400
 5043              	.LASF254:
 5044 0c8b 61646353 		.ascii	"adcSTM32DisableTSVREFE\000"
 5044      544D3332 
 5044      44697361 
 5044      626C6554 
 5044      53565245 
 5045              	.LASF182:
 5046 0ca2 41484233 		.ascii	"AHB3ENR\000"
 5046      454E5200 
 5047              	.LASF127:
 5048 0caa 444D4132 		.ascii	"DMA2_Stream2_IRQn\000"
 5048      5F537472 
 5048      65616D32 
 5048      5F495251 
 5048      6E00
 5049              	.LASF40:
 5050 0cbc 705F6D73 		.ascii	"p_msg\000"
 5050      6700
 5051              	.LASF241:
 5052 0cc2 41444343 		.ascii	"ADCConfig\000"
ARM GAS  /tmp/ccRfa0ZT.s 			page 101


 5052      6F6E6669 
 5052      6700
 5053              	.LASF33:
 5054 0ccc 705F7374 		.ascii	"p_state\000"
 5054      61746500 
 5055              		.ident	"GCC: (GNU Tools for ARM Embedded Processors) 4.7.3 20130312 (release) [ARM/embedded-4_7-br
ARM GAS  /tmp/ccRfa0ZT.s 			page 102


DEFINED SYMBOLS
                            *ABS*:00000000 adc_lld.c
     /tmp/ccRfa0ZT.s:19     .text.adc_lld_init:00000000 $t
     /tmp/ccRfa0ZT.s:25     .text.adc_lld_init:00000000 adc_lld_init
     /tmp/ccRfa0ZT.s:863    .bss.ADCD1:00000000 .LANCHOR0
     /tmp/ccRfa0ZT.s:79     .text.adc_lld_init:00000040 $d
     /tmp/ccRfa0ZT.s:84     .text.adc_lld_start:00000000 $t
     /tmp/ccRfa0ZT.s:90     .text.adc_lld_start:00000000 adc_lld_start
     /tmp/ccRfa0ZT.s:172    .text.adc_lld_start:00000058 $d
     /tmp/ccRfa0ZT.s:422    .text.adc_lld_serve_rx_interrupt:00000000 adc_lld_serve_rx_interrupt
     /tmp/ccRfa0ZT.s:180    .text.adc_lld_stop:00000000 $t
     /tmp/ccRfa0ZT.s:186    .text.adc_lld_stop:00000000 adc_lld_stop
     /tmp/ccRfa0ZT.s:239    .text.adc_lld_stop:00000034 $d
     /tmp/ccRfa0ZT.s:244    .text.adc_lld_start_conversion:00000000 $t
     /tmp/ccRfa0ZT.s:250    .text.adc_lld_start_conversion:00000000 adc_lld_start_conversion
     /tmp/ccRfa0ZT.s:362    .text.adc_lld_stop_conversion:00000000 $t
     /tmp/ccRfa0ZT.s:368    .text.adc_lld_stop_conversion:00000000 adc_lld_stop_conversion
     /tmp/ccRfa0ZT.s:417    .text.adc_lld_serve_rx_interrupt:00000000 $t
     /tmp/ccRfa0ZT.s:641    .text.Vector88:00000000 $t
     /tmp/ccRfa0ZT.s:647    .text.Vector88:00000000 Vector88
     /tmp/ccRfa0ZT.s:760    .text.Vector88:00000080 $d
     /tmp/ccRfa0ZT.s:765    .text.adcSTM32EnableTSVREFE:00000000 $t
     /tmp/ccRfa0ZT.s:771    .text.adcSTM32EnableTSVREFE:00000000 adcSTM32EnableTSVREFE
     /tmp/ccRfa0ZT.s:789    .text.adcSTM32DisableTSVREFE:00000000 $t
     /tmp/ccRfa0ZT.s:795    .text.adcSTM32DisableTSVREFE:00000000 adcSTM32DisableTSVREFE
     /tmp/ccRfa0ZT.s:813    .text.adcSTM32EnableVBATE:00000000 $t
     /tmp/ccRfa0ZT.s:819    .text.adcSTM32EnableVBATE:00000000 adcSTM32EnableVBATE
     /tmp/ccRfa0ZT.s:837    .text.adcSTM32DisableVBATE:00000000 $t
     /tmp/ccRfa0ZT.s:843    .text.adcSTM32DisableVBATE:00000000 adcSTM32DisableVBATE
     /tmp/ccRfa0ZT.s:866    .bss.ADCD1:00000000 ADCD1
     /tmp/ccRfa0ZT.s:862    .bss.ADCD1:00000000 $d
     /tmp/ccRfa0ZT.s:869    .rodata.str1.4:00000000 $d
                     .debug_frame:00000010 $d
     /tmp/ccRfa0ZT.s:83     .text.adc_lld_init:00000044 $t
     /tmp/ccRfa0ZT.s:179    .text.adc_lld_start:00000064 $t
     /tmp/ccRfa0ZT.s:243    .text.adc_lld_stop:00000038 $t
     /tmp/ccRfa0ZT.s:764    .text.Vector88:00000084 $t

UNDEFINED SYMBOLS
adcObjectInit
nvicEnableVector
_stm32_dma_streams
dmaStreamAllocate
chDbgPanic
dmaStreamRelease
dbg_check_lock_from_isr
chSchReadyI
dbg_check_unlock_from_isr
dbg_check_enter_isr
dbg_check_leave_isr
_port_irq_epilogue
