ARM GAS  /tmp/ccRfa0ZT.s 			page 1


   1              		.syntax unified
   2              		.cpu cortex-m4
   3              		.fpu softvfp
   4              		.eabi_attribute 20, 1
   5              		.eabi_attribute 21, 1
   6              		.eabi_attribute 23, 3
   7              		.eabi_attribute 24, 1
   8              		.eabi_attribute 25, 1
   9              		.eabi_attribute 26, 1
  10              		.eabi_attribute 30, 2
  11              		.eabi_attribute 34, 1
  12              		.eabi_attribute 18, 4
  13              		.thumb
  14              		.file	"adc_lld.c"
  15              		.text
  16              	.Ltext0:
  17              		.cfi_sections	.debug_frame
  18              		.section	.text.adc_lld_init,"ax",%progbits
  19              		.align	2
  20              		.p2align 4,,15
  21              		.global	adc_lld_init
  22              		.thumb
  23              		.thumb_func
  24              		.type	adc_lld_init, %function
  25              	adc_lld_init:
  26              	.LFB120:
  27              		.file 1 "/home/gokul/ChibiOS_2.5.0/os/hal/platforms/STM32F4xx/adc_lld.c"
  28              		.loc 1 175 0
  29              		.cfi_startproc
  30              		@ args = 0, pretend = 0, frame = 0
  31              		@ frame_needed = 0, uses_anonymous_args = 0
  32              		.loc 1 177 0
  33 0000 4FF40C53 		mov	r3, #8960
  34              		.loc 1 175 0
  35 0004 10B5     		push	{r4, lr}
  36              	.LCFI0:
  37              		.cfi_def_cfa_offset 8
  38              		.cfi_offset 4, -8
  39              		.cfi_offset 14, -4
  40              		.loc 1 177 0
  41 0006 C4F20103 		movt	r3, 16385
  42              		.loc 1 181 0
  43 000a 40F20004 		movw	r4, #:lower16:.LANCHOR0
  44 000e C0F20004 		movt	r4, #:upper16:.LANCHOR0
  45              		.loc 1 177 0
  46 0012 0122     		movs	r2, #1
  47              		.loc 1 181 0
  48 0014 2046     		mov	r0, r4
  49              		.loc 1 177 0
  50 0016 5A60     		str	r2, [r3, #4]
  51              		.loc 1 181 0
  52 0018 FFF7FEFF 		bl	adcObjectInit
  53              	.LVL0:
  54              		.loc 1 182 0
  55 001c 4FF40052 		mov	r2, #8192
  56 0020 C4F20102 		movt	r2, 16385
  57 0024 A262     		str	r2, [r4, #40]
ARM GAS  /tmp/ccRfa0ZT.s 			page 2


  58              		.loc 1 184 0
  59 0026 42F61643 		movw	r3, #11286
  60              		.loc 1 183 0
  61 002a 054A     		ldr	r2, .L2
  62              		.loc 1 184 0
  63 002c C0F20203 		movt	r3, 2
  64              		.loc 1 220 0
  65 0030 1220     		movs	r0, #18
  66 0032 6021     		movs	r1, #96
  67              		.loc 1 183 0
  68 0034 E262     		str	r2, [r4, #44]
  69              		.loc 1 184 0
  70 0036 2363     		str	r3, [r4, #48]
  71              		.loc 1 221 0
  72 0038 BDE81040 		pop	{r4, lr}
  73              		.loc 1 220 0
  74 003c FFF7FEBF 		b	nvicEnableVector
  75              	.LVL1:
  76              	.L3:
  77              		.align	2
  78              	.L2:
  79 0040 90000000 		.word	_stm32_dma_streams+144
  80              		.cfi_endproc
  81              	.LFE120:
  82              		.size	adc_lld_init, .-adc_lld_init
  83 0044 AFF30080 		.section	.text.adc_lld_start,"ax",%progbits
  83      AFF30080 
  83      AFF30080 
  84              		.align	2
  85              		.p2align 4,,15
  86              		.global	adc_lld_start
  87              		.thumb
  88              		.thumb_func
  89              		.type	adc_lld_start, %function
  90              	adc_lld_start:
  91              	.LFB121:
  92              		.loc 1 230 0
  93              		.cfi_startproc
  94              		@ args = 0, pretend = 0, frame = 0
  95              		@ frame_needed = 0, uses_anonymous_args = 0
  96              	.LVL2:
  97 0000 38B5     		push	{r3, r4, r5, lr}
  98              	.LCFI1:
  99              		.cfi_def_cfa_offset 16
 100              		.cfi_offset 3, -16
 101              		.cfi_offset 4, -12
 102              		.cfi_offset 5, -8
 103              		.cfi_offset 14, -4
 104              		.loc 1 233 0
 105 0002 0378     		ldrb	r3, [r0, #0]	@ zero_extendqisi2
 106 0004 012B     		cmp	r3, #1
 107              		.loc 1 230 0
 108 0006 0446     		mov	r4, r0
 109              		.loc 1 233 0
 110 0008 00D0     		beq	.L12
 111 000a 38BD     		pop	{r3, r4, r5, pc}
 112              	.L12:
ARM GAS  /tmp/ccRfa0ZT.s 			page 3


 113              		.loc 1 235 0
 114 000c 124D     		ldr	r5, .L15
 115 000e A842     		cmp	r0, r5
 116 0010 06D0     		beq	.L13
 117              	.LVL3:
 118              	.L6:
 119              		.loc 1 275 0
 120 0012 A16A     		ldr	r1, [r4, #40]
 121 0014 0023     		movs	r3, #0
 122              		.loc 1 277 0
 123 0016 0120     		movs	r0, #1
 124              		.loc 1 275 0
 125 0018 4B60     		str	r3, [r1, #4]
 126              		.loc 1 276 0
 127 001a 8B60     		str	r3, [r1, #8]
 128              		.loc 1 277 0
 129 001c 8860     		str	r0, [r1, #8]
 130 001e 38BD     		pop	{r3, r4, r5, pc}
 131              	.LVL4:
 132              	.L13:
 133              	.LBB2:
 134              		.loc 1 237 0
 135 0020 C06A     		ldr	r0, [r0, #44]
 136              	.LVL5:
 137 0022 0E4A     		ldr	r2, .L15+4
 138 0024 0621     		movs	r1, #6
 139 0026 2346     		mov	r3, r4
 140 0028 FFF7FEFF 		bl	dmaStreamAllocate
 141              	.LVL6:
 142              		.loc 1 241 0
 143 002c 78B9     		cbnz	r0, .L14
 144              	.LVL7:
 145              	.L7:
 146              		.loc 1 242 0
 147 002e E86A     		ldr	r0, [r5, #44]
 148 0030 42F24C02 		movw	r2, #8268
 149 0034 0168     		ldr	r1, [r0, #0]
 150              		.loc 1 243 0
 151 0036 4FF46053 		mov	r3, #14336
 152 003a C4F20203 		movt	r3, 16386
 153              		.loc 1 242 0
 154 003e C4F20102 		movt	r2, 16385
 155 0042 8A60     		str	r2, [r1, #8]
 156              		.loc 1 243 0
 157 0044 586C     		ldr	r0, [r3, #68]
 158 0046 40F48072 		orr	r2, r0, #256
 159 004a 5A64     		str	r2, [r3, #68]
 160 004c E1E7     		b	.L6
 161              	.LVL8:
 162              	.L14:
 163              		.loc 1 241 0 discriminator 1
 164 004e 0448     		ldr	r0, .L15+8
 165              	.LVL9:
 166 0050 FFF7FEFF 		bl	chDbgPanic
 167              	.LVL10:
 168 0054 EBE7     		b	.L7
 169              	.L16:
ARM GAS  /tmp/ccRfa0ZT.s 			page 4


 170 0056 00BF     		.align	2
 171              	.L15:
 172 0058 00000000 		.word	.LANCHOR0
 173 005c 00000000 		.word	adc_lld_serve_rx_interrupt
 174 0060 00000000 		.word	.LC0
 175              	.LBE2:
 176              		.cfi_endproc
 177              	.LFE121:
 178              		.size	adc_lld_start, .-adc_lld_start
 179 0064 AFF30080 		.section	.text.adc_lld_stop,"ax",%progbits
 179      AFF30080 
 179      AFF30080 
 180              		.align	2
 181              		.p2align 4,,15
 182              		.global	adc_lld_stop
 183              		.thumb
 184              		.thumb_func
 185              		.type	adc_lld_stop, %function
 186              	adc_lld_stop:
 187              	.LFB122:
 188              		.loc 1 288 0
 189              		.cfi_startproc
 190              		@ args = 0, pretend = 0, frame = 0
 191              		@ frame_needed = 0, uses_anonymous_args = 0
 192              	.LVL11:
 193              		.loc 1 291 0
 194 0000 0378     		ldrb	r3, [r0, #0]	@ zero_extendqisi2
 195 0002 022B     		cmp	r3, #2
 196              		.loc 1 288 0
 197 0004 10B5     		push	{r4, lr}
 198              	.LCFI2:
 199              		.cfi_def_cfa_offset 8
 200              		.cfi_offset 4, -8
 201              		.cfi_offset 14, -4
 202              		.loc 1 288 0
 203 0006 0446     		mov	r4, r0
 204              		.loc 1 291 0
 205 0008 00D0     		beq	.L21
 206              	.LVL12:
 207              	.L17:
 208 000a 10BD     		pop	{r4, pc}
 209              	.LVL13:
 210              	.L21:
 211              		.loc 1 292 0
 212 000c C06A     		ldr	r0, [r0, #44]
 213              	.LVL14:
 214 000e FFF7FEFF 		bl	dmaStreamRelease
 215              	.LVL15:
 216              		.loc 1 297 0
 217 0012 0849     		ldr	r1, .L22
 218              		.loc 1 293 0
 219 0014 A06A     		ldr	r0, [r4, #40]
 220 0016 0022     		movs	r2, #0
 221              		.loc 1 297 0
 222 0018 8C42     		cmp	r4, r1
 223              		.loc 1 293 0
 224 001a 4260     		str	r2, [r0, #4]
ARM GAS  /tmp/ccRfa0ZT.s 			page 5


 225              		.loc 1 294 0
 226 001c 8260     		str	r2, [r0, #8]
 227              		.loc 1 297 0
 228 001e F4D1     		bne	.L17
 229              		.loc 1 298 0
 230 0020 4FF46053 		mov	r3, #14336
 231 0024 C4F20203 		movt	r3, 16386
 232 0028 586C     		ldr	r0, [r3, #68]
 233 002a 20F48072 		bic	r2, r0, #256
 234 002e 5A64     		str	r2, [r3, #68]
 235 0030 EBE7     		b	.L17
 236              	.L23:
 237 0032 00BF     		.align	2
 238              	.L22:
 239 0034 00000000 		.word	.LANCHOR0
 240              		.cfi_endproc
 241              	.LFE122:
 242              		.size	adc_lld_stop, .-adc_lld_stop
 243 0038 AFF30080 		.section	.text.adc_lld_start_conversion,"ax",%progbits
 243      AFF30080 
 244              		.align	2
 245              		.p2align 4,,15
 246              		.global	adc_lld_start_conversion
 247              		.thumb
 248              		.thumb_func
 249              		.type	adc_lld_start_conversion, %function
 250              	adc_lld_start_conversion:
 251              	.LFB123:
 252              		.loc 1 320 0
 253              		.cfi_startproc
 254              		@ args = 0, pretend = 0, frame = 0
 255              		@ frame_needed = 0, uses_anonymous_args = 0
 256              		@ link register save eliminated.
 257              	.LVL16:
 258              		.loc 1 322 0
 259 0000 0369     		ldr	r3, [r0, #16]
 260              	.LVL17:
 261              		.loc 1 325 0
 262 0002 026B     		ldr	r2, [r0, #48]
 263              	.LVL18:
 264              		.loc 1 326 0
 265 0004 1968     		ldr	r1, [r3, #0]
 266              		.loc 1 320 0
 267 0006 2DE9F007 		push	{r4, r5, r6, r7, r8, r9, sl}
 268              	.LCFI3:
 269              		.cfi_def_cfa_offset 28
 270              		.cfi_offset 4, -28
 271              		.cfi_offset 5, -24
 272              		.cfi_offset 6, -20
 273              		.cfi_offset 7, -16
 274              		.cfi_offset 8, -12
 275              		.cfi_offset 9, -8
 276              		.cfi_offset 10, -4
 277              		.loc 1 326 0
 278 000a 09B1     		cbz	r1, .L25
 279              		.loc 1 327 0
 280 000c 42F48072 		orr	r2, r2, #256
ARM GAS  /tmp/ccRfa0ZT.s 			page 6


 281              	.LVL19:
 282              	.L25:
 283              		.loc 1 329 0
 284 0010 C468     		ldr	r4, [r0, #12]
 285              		.loc 1 334 0
 286 0012 C56A     		ldr	r5, [r0, #44]
 287              		.loc 1 335 0
 288 0014 9E88     		ldrh	r6, [r3, #4]
 289              		.loc 1 334 0
 290 0016 2968     		ldr	r1, [r5, #0]
 291 0018 8768     		ldr	r7, [r0, #8]
 292              		.loc 1 350 0
 293 001a D3F81090 		ldr	r9, [r3, #16]
 294              		.loc 1 352 0
 295 001e D3F814A0 		ldr	sl, [r3, #20]
 296              		.loc 1 334 0
 297 0022 CF60     		str	r7, [r1, #12]
 298              		.loc 1 329 0
 299 0024 012C     		cmp	r4, #1
 300              		.loc 1 332 0
 301 0026 88BF     		it	hi
 302 0028 42F00802 		orrhi	r2, r2, #8
 303              	.LVL20:
 304              		.loc 1 335 0
 305 002c 04FB06F4 		mul	r4, r4, r6
 306 0030 4C60     		str	r4, [r1, #4]
 307              		.loc 1 337 0
 308 0032 0A60     		str	r2, [r1, #0]
 309              		.loc 1 338 0
 310 0034 D1F80080 		ldr	r8, [r1, #0]
 311              		.loc 1 341 0
 312 0038 826A     		ldr	r2, [r0, #40]
 313              	.LVL21:
 314              		.loc 1 342 0
 315 003a D3F818C0 		ldr	ip, [r3, #24]
 316              		.loc 1 343 0
 317 003e DF69     		ldr	r7, [r3, #28]
 318              		.loc 1 344 0
 319 0040 1E6A     		ldr	r6, [r3, #32]
 320              		.loc 1 345 0
 321 0042 5D6A     		ldr	r5, [r3, #36]
 322              		.loc 1 346 0
 323 0044 9C6A     		ldr	r4, [r3, #40]
 324              		.loc 1 350 0
 325 0046 49F08060 		orr	r0, r9, #67108864
 326              	.LVL22:
 327              		.loc 1 352 0
 328 004a 4AF44073 		orr	r3, sl, #768
 329              	.LVL23:
 330              		.loc 1 338 0
 331 004e 48F00108 		orr	r8, r8, #1
 332 0052 C1F80080 		str	r8, [r1, #0]
 333              		.loc 1 350 0
 334 0056 40F48070 		orr	r0, r0, #256
 335              		.loc 1 352 0
 336 005a 43F00303 		orr	r3, r3, #3
 337              		.loc 1 341 0
ARM GAS  /tmp/ccRfa0ZT.s 			page 7


 338 005e 0021     		movs	r1, #0
 339              	.LVL24:
 340 0060 1160     		str	r1, [r2, #0]
 341              		.loc 1 342 0
 342 0062 C2F80CC0 		str	ip, [r2, #12]
 343              		.loc 1 343 0
 344 0066 1761     		str	r7, [r2, #16]
 345              		.loc 1 344 0
 346 0068 D662     		str	r6, [r2, #44]
 347              		.loc 1 345 0
 348 006a 1563     		str	r5, [r2, #48]
 349              		.loc 1 346 0
 350 006c 5463     		str	r4, [r2, #52]
 351              		.loc 1 350 0
 352 006e 5060     		str	r0, [r2, #4]
 353              		.loc 1 351 0
 354 0070 9360     		str	r3, [r2, #8]
 355              		.loc 1 353 0
 356 0072 BDE8F007 		pop	{r4, r5, r6, r7, r8, r9, sl}
 357 0076 7047     		bx	lr
 358              		.cfi_endproc
 359              	.LFE123:
 360              		.size	adc_lld_start_conversion, .-adc_lld_start_conversion
 361 0078 AFF30080 		.section	.text.adc_lld_stop_conversion,"ax",%progbits
 361      AFF30080 
 362              		.align	2
 363              		.p2align 4,,15
 364              		.global	adc_lld_stop_conversion
 365              		.thumb
 366              		.thumb_func
 367              		.type	adc_lld_stop_conversion, %function
 368              	adc_lld_stop_conversion:
 369              	.LFB124:
 370              		.loc 1 362 0
 371              		.cfi_startproc
 372              		@ args = 0, pretend = 0, frame = 0
 373              		@ frame_needed = 0, uses_anonymous_args = 0
 374              		@ link register save eliminated.
 375              	.LVL25:
 376              		.loc 1 364 0
 377 0000 C16A     		ldr	r1, [r0, #44]
 378 0002 0A68     		ldr	r2, [r1, #0]
 379 0004 1368     		ldr	r3, [r2, #0]
 380              		.loc 1 362 0
 381 0006 10B4     		push	{r4}
 382              	.LCFI4:
 383              		.cfi_def_cfa_offset 4
 384              		.cfi_offset 4, -4
 385              		.loc 1 364 0
 386 0008 23F00104 		bic	r4, r3, #1
 387 000c 1460     		str	r4, [r2, #0]
 388              	.L31:
 389              		.loc 1 364 0 is_stmt 0 discriminator 1
 390 000e 1368     		ldr	r3, [r2, #0]
 391 0010 13F00103 		ands	r3, r3, #1
 392 0014 FBD1     		bne	.L31
 393              		.loc 1 364 0 discriminator 2
ARM GAS  /tmp/ccRfa0ZT.s 			page 8


 394 0016 0C7A     		ldrb	r4, [r1, #8]	@ zero_extendqisi2
 395              		.loc 1 365 0 is_stmt 1 discriminator 2
 396 0018 826A     		ldr	r2, [r0, #40]
 397              		.loc 1 364 0 discriminator 2
 398 001a 4968     		ldr	r1, [r1, #4]
 399 001c 3D20     		movs	r0, #61
 400              	.LVL26:
 401 001e 00FA04F0 		lsl	r0, r0, r4
 402 0022 0860     		str	r0, [r1, #0]
 403              		.loc 1 365 0 discriminator 2
 404 0024 5360     		str	r3, [r2, #4]
 405              		.loc 1 366 0 discriminator 2
 406 0026 9360     		str	r3, [r2, #8]
 407              		.loc 1 367 0 discriminator 2
 408 0028 0123     		movs	r3, #1
 409 002a 9360     		str	r3, [r2, #8]
 410              		.loc 1 368 0 discriminator 2
 411 002c 10BC     		pop	{r4}
 412 002e 7047     		bx	lr
 413              		.cfi_endproc
 414              	.LFE124:
 415              		.size	adc_lld_stop_conversion, .-adc_lld_stop_conversion
 416              		.section	.text.adc_lld_serve_rx_interrupt,"ax",%progbits
 417              		.align	2
 418              		.p2align 4,,15
 419              		.thumb
 420              		.thumb_func
 421              		.type	adc_lld_serve_rx_interrupt, %function
 422              	adc_lld_serve_rx_interrupt:
 423              	.LFB118:
 424              		.loc 1 80 0
 425              		.cfi_startproc
 426              		@ args = 0, pretend = 0, frame = 0
 427              		@ frame_needed = 0, uses_anonymous_args = 0
 428              	.LVL27:
 429              		.loc 1 83 0
 430 0000 11F00C0F 		tst	r1, #12
 431              		.loc 1 80 0
 432 0004 38B5     		push	{r3, r4, r5, lr}
 433              	.LCFI5:
 434              		.cfi_def_cfa_offset 16
 435              		.cfi_offset 3, -16
 436              		.cfi_offset 4, -12
 437              		.cfi_offset 5, -8
 438              		.cfi_offset 14, -4
 439              		.loc 1 80 0
 440 0006 0D46     		mov	r5, r1
 441 0008 0446     		mov	r4, r0
 442              		.loc 1 83 0
 443 000a 20D1     		bne	.L68
 444              		.loc 1 91 0
 445 000c 0369     		ldr	r3, [r0, #16]
 446 000e 002B     		cmp	r3, #0
 447 0010 41D0     		beq	.L33
 448              		.loc 1 92 0
 449 0012 CA06     		lsls	r2, r1, #27
 450 0014 05D5     		bpl	.L41
ARM GAS  /tmp/ccRfa0ZT.s 			page 9


 451              		.loc 1 94 0
 452 0016 9B68     		ldr	r3, [r3, #8]
 453 0018 1BB1     		cbz	r3, .L41
 454              		.loc 1 94 0 is_stmt 0 discriminator 1
 455 001a C268     		ldr	r2, [r0, #12]
 456 001c 8168     		ldr	r1, [r0, #8]
 457              	.LVL28:
 458 001e 5208     		lsrs	r2, r2, #1
 459 0020 9847     		blx	r3
 460              	.LVL29:
 461              	.L41:
 462              		.loc 1 96 0 is_stmt 1
 463 0022 AB06     		lsls	r3, r5, #26
 464 0024 37D5     		bpl	.L33
 465              		.loc 1 98 0
 466 0026 2069     		ldr	r0, [r4, #16]
 467 0028 0168     		ldr	r1, [r0, #0]
 468 002a 0029     		cmp	r1, #0
 469 002c 38D0     		beq	.L43
 470              		.loc 1 98 0 is_stmt 0 discriminator 1
 471 002e 8568     		ldr	r5, [r0, #8]
 472              	.LVL30:
 473 0030 002D     		cmp	r5, #0
 474 0032 30D0     		beq	.L33
 475              		.loc 1 98 0 discriminator 3
 476 0034 E268     		ldr	r2, [r4, #12]
 477 0036 012A     		cmp	r2, #1
 478 0038 2ED9     		bls	.L44
 479              	.LBB3:
 480              		.loc 1 98 0 discriminator 4
 481 003a 8088     		ldrh	r0, [r0, #4]
 482 003c A368     		ldr	r3, [r4, #8]
 483 003e 5208     		lsrs	r2, r2, #1
 484              	.LVL31:
 485 0040 00FB02F1 		mul	r1, r0, r2
 486 0044 03EB4101 		add	r1, r3, r1, lsl #1
 487 0048 2046     		mov	r0, r4
 488 004a A847     		blx	r5
 489              	.LVL32:
 490 004c 38BD     		pop	{r3, r4, r5, pc}
 491              	.LVL33:
 492              	.L68:
 493              	.LBE3:
 494              		.loc 1 86 0 is_stmt 1
 495 004e FFF7FEFF 		bl	adc_lld_stop_conversion
 496              	.LVL34:
 497 0052 2569     		ldr	r5, [r4, #16]
 498              	.LVL35:
 499 0054 EB68     		ldr	r3, [r5, #12]
 500 0056 4BB1     		cbz	r3, .L36
 501              		.loc 1 86 0 is_stmt 0 discriminator 1
 502 0058 0522     		movs	r2, #5
 503 005a 2046     		mov	r0, r4
 504 005c 0021     		movs	r1, #0
 505 005e 2270     		strb	r2, [r4, #0]
 506 0060 9847     		blx	r3
 507              	.LVL36:
ARM GAS  /tmp/ccRfa0ZT.s 			page 10


 508 0062 2078     		ldrb	r0, [r4, #0]	@ zero_extendqisi2
 509 0064 0528     		cmp	r0, #5
 510 0066 01D1     		bne	.L36
 511              		.loc 1 86 0 discriminator 3
 512 0068 0221     		movs	r1, #2
 513 006a 2170     		strb	r1, [r4, #0]
 514              	.L36:
 515              		.loc 1 86 0 discriminator 2
 516 006c 0025     		movs	r5, #0
 517 006e 2561     		str	r5, [r4, #16]
 518              	.LBB4:
 519 0070 2023     		movs	r3, #32
 520              	.LVL37:
 521              	@ 86 "/home/gokul/ChibiOS_2.5.0/os/hal/platforms/STM32F4xx/adc_lld.c" 1
 522 0072 83F31188 		msr     BASEPRI, r3
 523              	@ 0 "" 2
 524              	.LVL38:
 525              		.thumb
 526              	.LBE4:
 527 0076 FFF7FEFF 		bl	dbg_check_lock_from_isr
 528              	.LVL39:
 529 007a 6369     		ldr	r3, [r4, #20]
 530 007c 33B1     		cbz	r3, .L49
 531              	.LVL40:
 532              	.LBB5:
 533              		.loc 1 86 0 discriminator 4
 534 007e 4FF0FF32 		mov	r2, #-1
 535 0082 6561     		str	r5, [r4, #20]
 536 0084 1846     		mov	r0, r3
 537 0086 9A62     		str	r2, [r3, #40]
 538 0088 FFF7FEFF 		bl	chSchReadyI
 539              	.LVL41:
 540              	.L49:
 541              	.LBE5:
 542              		.loc 1 98 0 is_stmt 1 discriminator 14
 543 008c FFF7FEFF 		bl	dbg_check_unlock_from_isr
 544              	.LVL42:
 545              	.LBB6:
 546 0090 0023     		movs	r3, #0
 547              	.LVL43:
 548              	@ 98 "/home/gokul/ChibiOS_2.5.0/os/hal/platforms/STM32F4xx/adc_lld.c" 1
 549 0092 83F31188 		msr     BASEPRI, r3
 550              	@ 0 "" 2
 551              	.LVL44:
 552              		.thumb
 553              	.L33:
 554 0096 38BD     		pop	{r3, r4, r5, pc}
 555              	.LVL45:
 556              	.L44:
 557              	.LBE6:
 558              		.loc 1 98 0 is_stmt 0 discriminator 5
 559 0098 2046     		mov	r0, r4
 560 009a A168     		ldr	r1, [r4, #8]
 561 009c A847     		blx	r5
 562              	.LVL46:
 563 009e 38BD     		pop	{r3, r4, r5, pc}
 564              	.LVL47:
ARM GAS  /tmp/ccRfa0ZT.s 			page 11


 565              	.L43:
 566              		.loc 1 98 0 discriminator 2
 567 00a0 2046     		mov	r0, r4
 568 00a2 FFF7FEFF 		bl	adc_lld_stop_conversion
 569              	.LVL48:
 570 00a6 2569     		ldr	r5, [r4, #16]
 571              	.LVL49:
 572 00a8 AB68     		ldr	r3, [r5, #8]
 573 00aa 03B3     		cbz	r3, .L45
 574              		.loc 1 98 0 discriminator 6
 575 00ac E268     		ldr	r2, [r4, #12]
 576 00ae 0420     		movs	r0, #4
 577 00b0 012A     		cmp	r2, #1
 578 00b2 2070     		strb	r0, [r4, #0]
 579 00b4 1ED9     		bls	.L46
 580              	.LBB7:
 581              		.loc 1 98 0 discriminator 8
 582 00b6 AD88     		ldrh	r5, [r5, #4]
 583 00b8 A168     		ldr	r1, [r4, #8]
 584 00ba 5208     		lsrs	r2, r2, #1
 585              	.LVL50:
 586 00bc 05FB02F5 		mul	r5, r5, r2
 587 00c0 2046     		mov	r0, r4
 588 00c2 01EB4501 		add	r1, r1, r5, lsl #1
 589 00c6 9847     		blx	r3
 590              	.LVL51:
 591              	.L47:
 592              	.LBE7:
 593              		.loc 1 98 0 discriminator 10
 594 00c8 2278     		ldrb	r2, [r4, #0]	@ zero_extendqisi2
 595 00ca 042A     		cmp	r2, #4
 596 00cc 0FD0     		beq	.L45
 597              	.L48:
 598              		.loc 1 98 0 discriminator 12
 599 00ce 0025     		movs	r5, #0
 600 00d0 2561     		str	r5, [r4, #16]
 601              	.LBB8:
 602 00d2 2023     		movs	r3, #32
 603              	.LVL52:
 604              	@ 98 "/home/gokul/ChibiOS_2.5.0/os/hal/platforms/STM32F4xx/adc_lld.c" 1
 605 00d4 83F31188 		msr     BASEPRI, r3
 606              	@ 0 "" 2
 607              	.LVL53:
 608              		.thumb
 609              	.LBE8:
 610 00d8 FFF7FEFF 		bl	dbg_check_lock_from_isr
 611              	.LVL54:
 612 00dc 6169     		ldr	r1, [r4, #20]
 613 00de 0029     		cmp	r1, #0
 614 00e0 D4D0     		beq	.L49
 615              	.LVL55:
 616              	.LBB9:
 617              		.loc 1 98 0 discriminator 13
 618 00e2 6561     		str	r5, [r4, #20]
 619 00e4 0846     		mov	r0, r1
 620 00e6 8D62     		str	r5, [r1, #40]
 621 00e8 FFF7FEFF 		bl	chSchReadyI
ARM GAS  /tmp/ccRfa0ZT.s 			page 12


 622              	.LVL56:
 623 00ec CEE7     		b	.L49
 624              	.L45:
 625              	.LBE9:
 626              		.loc 1 98 0 discriminator 7
 627 00ee 0223     		movs	r3, #2
 628 00f0 2370     		strb	r3, [r4, #0]
 629 00f2 ECE7     		b	.L48
 630              	.L46:
 631              		.loc 1 98 0 discriminator 9
 632 00f4 2046     		mov	r0, r4
 633 00f6 A168     		ldr	r1, [r4, #8]
 634 00f8 9847     		blx	r3
 635              	.LVL57:
 636 00fa E5E7     		b	.L47
 637              		.cfi_endproc
 638              	.LFE118:
 639              		.size	adc_lld_serve_rx_interrupt, .-adc_lld_serve_rx_interrupt
 640 00fc AFF30080 		.section	.text.Vector88,"ax",%progbits
 641              		.align	2
 642              		.p2align 4,,15
 643              		.global	Vector88
 644              		.thumb
 645              		.thumb_func
 646              		.type	Vector88, %function
 647              	Vector88:
 648              	.LFB119:
 649              		.loc 1 115 0 is_stmt 1
 650              		.cfi_startproc
 651              		@ args = 0, pretend = 0, frame = 0
 652              		@ frame_needed = 0, uses_anonymous_args = 0
 653 0000 38B5     		push	{r3, r4, r5, lr}
 654              	.LCFI6:
 655              		.cfi_def_cfa_offset 16
 656              		.cfi_offset 3, -16
 657              		.cfi_offset 4, -12
 658              		.cfi_offset 5, -8
 659              		.cfi_offset 14, -4
 660              		.loc 1 118 0
 661 0002 FFF7FEFF 		bl	dbg_check_enter_isr
 662              	.LVL58:
 663              		.loc 1 121 0
 664 0006 4FF40053 		mov	r3, #8192
 665 000a C4F20103 		movt	r3, 16385
 666              		.loc 1 122 0
 667 000e 0021     		movs	r1, #0
 668              		.loc 1 121 0
 669 0010 1A68     		ldr	r2, [r3, #0]
 670              	.LVL59:
 671              		.loc 1 122 0
 672 0012 1960     		str	r1, [r3, #0]
 673              		.loc 1 125 0
 674 0014 9106     		lsls	r1, r2, #26
 675 0016 29D5     		bpl	.L70
 676              		.loc 1 125 0 is_stmt 0 discriminator 1
 677 0018 194C     		ldr	r4, .L88
 678 001a E06A     		ldr	r0, [r4, #44]
ARM GAS  /tmp/ccRfa0ZT.s 			page 13


 679 001c 0368     		ldr	r3, [r0, #0]
 680 001e 5A68     		ldr	r2, [r3, #4]
 681              	.LVL60:
 682 0020 22B3     		cbz	r2, .L70
 683              		.loc 1 128 0 is_stmt 1
 684 0022 2169     		ldr	r1, [r4, #16]
 685 0024 11B3     		cbz	r1, .L70
 686              		.loc 1 129 0
 687 0026 2046     		mov	r0, r4
 688 0028 FFF7FEFF 		bl	adc_lld_stop_conversion
 689              	.LVL61:
 690 002c 2569     		ldr	r5, [r4, #16]
 691 002e EB68     		ldr	r3, [r5, #12]
 692 0030 3BB1     		cbz	r3, .L72
 693              		.loc 1 129 0 is_stmt 0 discriminator 1
 694 0032 0520     		movs	r0, #5
 695 0034 2070     		strb	r0, [r4, #0]
 696 0036 0121     		movs	r1, #1
 697 0038 2046     		mov	r0, r4
 698 003a 9847     		blx	r3
 699              	.LVL62:
 700 003c 2278     		ldrb	r2, [r4, #0]	@ zero_extendqisi2
 701 003e 052A     		cmp	r2, #5
 702 0040 1AD0     		beq	.L87
 703              	.L72:
 704              		.loc 1 129 0 discriminator 2
 705 0042 0025     		movs	r5, #0
 706 0044 2561     		str	r5, [r4, #16]
 707              	.LBB10:
 708 0046 2023     		movs	r3, #32
 709              	.LVL63:
 710              	@ 129 "/home/gokul/ChibiOS_2.5.0/os/hal/platforms/STM32F4xx/adc_lld.c" 1
 711 0048 83F31188 		msr     BASEPRI, r3
 712              	@ 0 "" 2
 713              	.LVL64:
 714              		.thumb
 715              	.LBE10:
 716 004c FFF7FEFF 		bl	dbg_check_lock_from_isr
 717              	.LVL65:
 718 0050 6069     		ldr	r0, [r4, #20]
 719 0052 30B1     		cbz	r0, .L74
 720              	.LVL66:
 721              	.LBB11:
 722              		.loc 1 129 0 discriminator 4
 723 0054 4FF0FF33 		mov	r3, #-1
 724 0058 094A     		ldr	r2, .L88
 725 005a 8362     		str	r3, [r0, #40]
 726 005c 5561     		str	r5, [r2, #20]
 727 005e FFF7FEFF 		bl	chSchReadyI
 728              	.LVL67:
 729              	.L74:
 730              	.LBE11:
 731              		.loc 1 129 0 discriminator 5
 732 0062 FFF7FEFF 		bl	dbg_check_unlock_from_isr
 733              	.LVL68:
 734              	.LBB12:
 735 0066 0023     		movs	r3, #0
ARM GAS  /tmp/ccRfa0ZT.s 			page 14


 736              	.LVL69:
 737              	@ 129 "/home/gokul/ChibiOS_2.5.0/os/hal/platforms/STM32F4xx/adc_lld.c" 1
 738 0068 83F31188 		msr     BASEPRI, r3
 739              	@ 0 "" 2
 740              	.LVL70:
 741              		.thumb
 742              	.L70:
 743              	.LBE12:
 744              		.loc 1 162 0 is_stmt 1
 745 006c FFF7FEFF 		bl	dbg_check_leave_isr
 746              	.LVL71:
 747              		.loc 1 163 0
 748 0070 BDE83840 		pop	{r3, r4, r5, lr}
 749              		.loc 1 162 0
 750 0074 FFF7FEBF 		b	_port_irq_epilogue
 751              	.LVL72:
 752              	.L87:
 753              		.loc 1 129 0 discriminator 3
 754 0078 0221     		movs	r1, #2
 755 007a 2170     		strb	r1, [r4, #0]
 756 007c E1E7     		b	.L72
 757              	.L89:
 758 007e 00BF     		.align	2
 759              	.L88:
 760 0080 00000000 		.word	.LANCHOR0
 761              		.cfi_endproc
 762              	.LFE119:
 763              		.size	Vector88, .-Vector88
 764 0084 AFF30080 		.section	.text.adcSTM32EnableTSVREFE,"ax",%progbits
 764      AFF30080 
 764      AFF30080 
 765              		.align	2
 766              		.p2align 4,,15
 767              		.global	adcSTM32EnableTSVREFE
 768              		.thumb
 769              		.thumb_func
 770              		.type	adcSTM32EnableTSVREFE, %function
 771              	adcSTM32EnableTSVREFE:
 772              	.LFB125:
 773              		.loc 1 376 0
 774              		.cfi_startproc
 775              		@ args = 0, pretend = 0, frame = 0
 776              		@ frame_needed = 0, uses_anonymous_args = 0
 777              		@ link register save eliminated.
 778              		.loc 1 378 0
 779 0000 4FF40C53 		mov	r3, #8960
 780 0004 C4F20103 		movt	r3, 16385
 781 0008 5A68     		ldr	r2, [r3, #4]
 782 000a 42F40000 		orr	r0, r2, #8388608
 783 000e 5860     		str	r0, [r3, #4]
 784 0010 7047     		bx	lr
 785              		.cfi_endproc
 786              	.LFE125:
 787              		.size	adcSTM32EnableTSVREFE, .-adcSTM32EnableTSVREFE
 788              		.section	.text.adcSTM32DisableTSVREFE,"ax",%progbits
 789              		.align	2
 790              		.p2align 4,,15
ARM GAS  /tmp/ccRfa0ZT.s 			page 15


 791              		.global	adcSTM32DisableTSVREFE
 792              		.thumb
 793              		.thumb_func
 794              		.type	adcSTM32DisableTSVREFE, %function
 795              	adcSTM32DisableTSVREFE:
 796              	.LFB126:
 797              		.loc 1 387 0
 798              		.cfi_startproc
 799              		@ args = 0, pretend = 0, frame = 0
 800              		@ frame_needed = 0, uses_anonymous_args = 0
 801              		@ link register save eliminated.
 802              		.loc 1 389 0
 803 0000 4FF40C53 		mov	r3, #8960
 804 0004 C4F20103 		movt	r3, 16385
 805 0008 5A68     		ldr	r2, [r3, #4]
 806 000a 22F40000 		bic	r0, r2, #8388608
 807 000e 5860     		str	r0, [r3, #4]
 808 0010 7047     		bx	lr
 809              		.cfi_endproc
 810              	.LFE126:
 811              		.size	adcSTM32DisableTSVREFE, .-adcSTM32DisableTSVREFE
 812              		.section	.text.adcSTM32EnableVBATE,"ax",%progbits
 813              		.align	2
 814              		.p2align 4,,15
 815              		.global	adcSTM32EnableVBATE
 816              		.thumb
 817              		.thumb_func
 818              		.type	adcSTM32EnableVBATE, %function
 819              	adcSTM32EnableVBATE:
 820              	.LFB127:
 821              		.loc 1 397 0
 822              		.cfi_startproc
 823              		@ args = 0, pretend = 0, frame = 0
 824              		@ frame_needed = 0, uses_anonymous_args = 0
 825              		@ link register save eliminated.
 826              		.loc 1 399 0
 827 0000 4FF40C53 		mov	r3, #8960
 828 0004 C4F20103 		movt	r3, 16385
 829 0008 5A68     		ldr	r2, [r3, #4]
 830 000a 42F48000 		orr	r0, r2, #4194304
 831 000e 5860     		str	r0, [r3, #4]
 832 0010 7047     		bx	lr
 833              		.cfi_endproc
 834              	.LFE127:
 835              		.size	adcSTM32EnableVBATE, .-adcSTM32EnableVBATE
 836              		.section	.text.adcSTM32DisableVBATE,"ax",%progbits
 837              		.align	2
 838              		.p2align 4,,15
 839              		.global	adcSTM32DisableVBATE
 840              		.thumb
 841              		.thumb_func
 842              		.type	adcSTM32DisableVBATE, %function
 843              	adcSTM32DisableVBATE:
 844              	.LFB128:
 845              		.loc 1 407 0
 846              		.cfi_startproc
 847              		@ args = 0, pretend = 0, frame = 0
ARM GAS  /tmp/ccRfa0ZT.s 			page 16


 848              		@ frame_needed = 0, uses_anonymous_args = 0
 849              		@ link register save eliminated.
 850              		.loc 1 409 0
 851 0000 4FF40C53 		mov	r3, #8960
 852 0004 C4F20103 		movt	r3, 16385
 853 0008 5A68     		ldr	r2, [r3, #4]
 854 000a 22F48000 		bic	r0, r2, #4194304
 855 000e 5860     		str	r0, [r3, #4]
 856 0010 7047     		bx	lr
 857              		.cfi_endproc
 858              	.LFE128:
 859              		.size	adcSTM32DisableVBATE, .-adcSTM32DisableVBATE
 860              		.global	ADCD1
 861 0012 00BFAFF3 		.section	.bss.ADCD1,"aw",%nobits
 861      0080AFF3 
 861      0080AFF3 
 861      0080
 862              		.align	2
 863              		.set	.LANCHOR0,. + 0
 864              		.type	ADCD1, %object
 865              		.size	ADCD1, 52
 866              	ADCD1:
 867 0000 00000000 		.space	52
 867      00000000 
 867      00000000 
 867      00000000 
 867      00000000 
 868              		.section	.rodata.str1.4,"aMS",%progbits,1
 869              		.align	2
 870              	.LC0:
 871 0000 6164635F 		.ascii	"adc_lld_start(), #1\000"
 871      6C6C645F 
 871      73746172 
 871      7428292C 
 871      20233100 
 872              		.text
 873              	.Letext0:
 874              		.file 2 "/opt/gcc-arm-none-eabi-4_7-2013q1/bin/../lib/gcc/arm-none-eabi/4.7.3/include/stddef.h"
 875              		.file 3 "/opt/gcc-arm-none-eabi-4_7-2013q1/bin/../lib/gcc/arm-none-eabi/4.7.3/../../../../arm-none
 876              		.file 4 "/home/gokul/ChibiOS_2.5.0/os/ports/GCC/ARMCMx/chtypes.h"
 877              		.file 5 "/home/gokul/ChibiOS_2.5.0/os/kernel/include/chlists.h"
 878              		.file 6 "/home/gokul/ChibiOS_2.5.0/os/kernel/include/chthreads.h"
 879              		.file 7 "/home/gokul/ChibiOS_2.5.0/os/ports/GCC/ARMCMx/chcore_v7m.h"
 880              		.file 8 "/home/gokul/ChibiOS_2.5.0/os/kernel/include/chmtx.h"
 881              		.file 9 "/home/gokul/ChibiOS_2.5.0/os/hal/platforms/STM32F4xx/stm32f4xx.h"
 882              		.file 10 "/home/gokul/ChibiOS_2.5.0/os/hal/platforms/STM32F4xx/stm32_dma.h"
 883              		.file 11 "/home/gokul/ChibiOS_2.5.0/os/hal/include/adc.h"
 884              		.file 12 "/home/gokul/ChibiOS_2.5.0/os/hal/platforms/STM32F4xx/adc_lld.h"
 885              		.file 13 "/home/gokul/ChibiOS_2.5.0/os/ports/common/ARMCMx/CMSIS/include/core_cm4.h"
 886              		.file 14 "/home/gokul/ChibiOS_2.5.0/os/ports/common/ARMCMx/nvic.h"
 887              		.file 15 "/home/gokul/ChibiOS_2.5.0/os/kernel/include/chdebug.h"
 888              		.file 16 "/home/gokul/ChibiOS_2.5.0/os/kernel/include/chschd.h"