ARM GAS  /tmp/cclBIhyK.s 			page 1


   1              		.syntax unified
   2              		.cpu cortex-m4
   3              		.fpu softvfp
   4              		.eabi_attribute 20, 1
   5              		.eabi_attribute 21, 1
   6              		.eabi_attribute 23, 3
   7              		.eabi_attribute 24, 1
   8              		.eabi_attribute 25, 1
   9              		.eabi_attribute 26, 1
  10              		.eabi_attribute 30, 2
  11              		.eabi_attribute 34, 1
  12              		.eabi_attribute 18, 4
  13              		.thumb
  14              		.file	"chcond.c"
  15              		.text
  16              	.Ltext0:
  17              		.cfi_sections	.debug_frame
  18              		.section	.text.chCondInit,"ax",%progbits
  19              		.align	2
  20              		.p2align 4,,15
  21              		.global	chCondInit
  22              		.thumb
  23              		.thumb_func
  24              		.type	chCondInit, %function
  25              	chCondInit:
  26              	.LFB7:
  27              		.file 1 "/home/gokul/ChibiOS_2.5.0/os/kernel/src/chcond.c"
  28              		.loc 1 52 0
  29              		.cfi_startproc
  30              		@ args = 0, pretend = 0, frame = 0
  31              		@ frame_needed = 0, uses_anonymous_args = 0
  32              	.LVL0:
  33 0000 10B5     		push	{r4, lr}
  34              	.LCFI0:
  35              		.cfi_def_cfa_offset 8
  36              		.cfi_offset 4, -8
  37              		.cfi_offset 14, -4
  38              		.loc 1 54 0
  39 0002 0446     		mov	r4, r0
  40 0004 10B1     		cbz	r0, .L4
  41              	.LVL1:
  42              	.L2:
  43              		.loc 1 56 0
  44 0006 6460     		str	r4, [r4, #4]
  45 0008 2460     		str	r4, [r4, #0]
  46 000a 10BD     		pop	{r4, pc}
  47              	.LVL2:
  48              	.L4:
  49              		.loc 1 54 0 discriminator 1
  50 000c 0148     		ldr	r0, .L5
  51              	.LVL3:
  52 000e FFF7FEFF 		bl	chDbgPanic
  53              	.LVL4:
  54 0012 F8E7     		b	.L2
  55              	.L6:
  56              		.align	2
  57              	.L5:
ARM GAS  /tmp/cclBIhyK.s 			page 2


  58 0014 00000000 		.word	.LC0
  59              		.cfi_endproc
  60              	.LFE7:
  61              		.size	chCondInit, .-chCondInit
  62 0018 AFF30080 		.section	.text.chCondSignal,"ax",%progbits
  62      AFF30080 
  63              		.align	2
  64              		.p2align 4,,15
  65              		.global	chCondSignal
  66              		.thumb
  67              		.thumb_func
  68              		.type	chCondSignal, %function
  69              	chCondSignal:
  70              	.LFB8:
  71              		.loc 1 66 0
  72              		.cfi_startproc
  73              		@ args = 0, pretend = 0, frame = 0
  74              		@ frame_needed = 0, uses_anonymous_args = 0
  75              	.LVL5:
  76 0000 10B5     		push	{r4, lr}
  77              	.LCFI1:
  78              		.cfi_def_cfa_offset 8
  79              		.cfi_offset 4, -8
  80              		.cfi_offset 14, -4
  81              		.loc 1 68 0
  82 0002 0446     		mov	r4, r0
  83 0004 98B1     		cbz	r0, .L10
  84              	.LVL6:
  85              	.L8:
  86              	.LBB14:
  87              		.loc 1 70 0
  88 0006 2023     		movs	r3, #32
  89              	.LVL7:
  90              	@ 70 "/home/gokul/ChibiOS_2.5.0/os/kernel/src/chcond.c" 1
  91 0008 83F31188 		msr     BASEPRI, r3
  92              	@ 0 "" 2
  93              	.LVL8:
  94              		.thumb
  95              	.LBE14:
  96 000c FFF7FEFF 		bl	dbg_check_lock
  97              	.LVL9:
  98              		.loc 1 71 0
  99 0010 2068     		ldr	r0, [r4, #0]
 100 0012 A042     		cmp	r0, r4
 101 0014 05D0     		beq	.L9
 102              	.LVL10:
 103              	.LBB15:
 104              	.LBB16:
 105              		.file 2 "/home/gokul/ChibiOS_2.5.0/os/kernel/include/chinline.h"
 106              		.loc 2 55 0
 107 0016 0368     		ldr	r3, [r0, #0]
 108              	.LBE16:
 109              	.LBE15:
 110              		.loc 1 72 0
 111 0018 0021     		movs	r1, #0
 112              	.LBB18:
 113              	.LBB17:
ARM GAS  /tmp/cclBIhyK.s 			page 3


 114              		.loc 2 55 0
 115 001a 2360     		str	r3, [r4, #0]
 116 001c 5C60     		str	r4, [r3, #4]
 117              	.LBE17:
 118              	.LBE18:
 119              		.loc 1 72 0
 120 001e FFF7FEFF 		bl	chSchWakeupS
 121              	.LVL11:
 122              	.L9:
 123              		.loc 1 73 0
 124 0022 FFF7FEFF 		bl	dbg_check_unlock
 125              	.LVL12:
 126              	.LBB19:
 127 0026 0023     		movs	r3, #0
 128              	.LVL13:
 129              	@ 73 "/home/gokul/ChibiOS_2.5.0/os/kernel/src/chcond.c" 1
 130 0028 83F31188 		msr     BASEPRI, r3
 131              	@ 0 "" 2
 132              	.LVL14:
 133              		.thumb
 134 002c 10BD     		pop	{r4, pc}
 135              	.LVL15:
 136              	.L10:
 137              	.LBE19:
 138              		.loc 1 68 0 discriminator 1
 139 002e 0248     		ldr	r0, .L11
 140              	.LVL16:
 141 0030 FFF7FEFF 		bl	chDbgPanic
 142              	.LVL17:
 143 0034 E7E7     		b	.L8
 144              	.L12:
 145 0036 00BF     		.align	2
 146              	.L11:
 147 0038 10000000 		.word	.LC1
 148              		.cfi_endproc
 149              	.LFE8:
 150              		.size	chCondSignal, .-chCondSignal
 151 003c AFF30080 		.section	.text.chCondSignalI,"ax",%progbits
 152              		.align	2
 153              		.p2align 4,,15
 154              		.global	chCondSignalI
 155              		.thumb
 156              		.thumb_func
 157              		.type	chCondSignalI, %function
 158              	chCondSignalI:
 159              	.LFB9:
 160              		.loc 1 87 0
 161              		.cfi_startproc
 162              		@ args = 0, pretend = 0, frame = 0
 163              		@ frame_needed = 0, uses_anonymous_args = 0
 164              	.LVL18:
 165 0000 10B5     		push	{r4, lr}
 166              	.LCFI2:
 167              		.cfi_def_cfa_offset 8
 168              		.cfi_offset 4, -8
 169              		.cfi_offset 14, -4
 170              		.loc 1 87 0
ARM GAS  /tmp/cclBIhyK.s 			page 4


 171 0002 0446     		mov	r4, r0
 172              		.loc 1 89 0
 173 0004 FFF7FEFF 		bl	chDbgCheckClassI
 174              	.LVL19:
 175              		.loc 1 90 0
 176 0008 54B1     		cbz	r4, .L16
 177              	.L14:
 178              		.loc 1 92 0
 179 000a 2068     		ldr	r0, [r4, #0]
 180 000c A042     		cmp	r0, r4
 181 000e 06D0     		beq	.L13
 182              	.LVL20:
 183              	.LBB20:
 184              	.LBB21:
 185              		.loc 2 55 0
 186 0010 0368     		ldr	r3, [r0, #0]
 187 0012 2360     		str	r3, [r4, #0]
 188 0014 5C60     		str	r4, [r3, #4]
 189              	.LBE21:
 190              	.LBE20:
 191              		.loc 1 93 0
 192 0016 FFF7FEFF 		bl	chSchReadyI
 193              	.LVL21:
 194 001a 0021     		movs	r1, #0
 195 001c 8162     		str	r1, [r0, #40]
 196              	.LVL22:
 197              	.L13:
 198 001e 10BD     		pop	{r4, pc}
 199              	.L16:
 200              		.loc 1 90 0 discriminator 1
 201 0020 0148     		ldr	r0, .L17
 202 0022 FFF7FEFF 		bl	chDbgPanic
 203              	.LVL23:
 204 0026 F0E7     		b	.L14
 205              	.L18:
 206              		.align	2
 207              	.L17:
 208 0028 24000000 		.word	.LC2
 209              		.cfi_endproc
 210              	.LFE9:
 211              		.size	chCondSignalI, .-chCondSignalI
 212 002c AFF30080 		.section	.text.chCondBroadcastI,"ax",%progbits
 213              		.align	2
 214              		.p2align 4,,15
 215              		.global	chCondBroadcastI
 216              		.thumb
 217              		.thumb_func
 218              		.type	chCondBroadcastI, %function
 219              	chCondBroadcastI:
 220              	.LFB11:
 221              		.loc 1 122 0
 222              		.cfi_startproc
 223              		@ args = 0, pretend = 0, frame = 0
 224              		@ frame_needed = 0, uses_anonymous_args = 0
 225              	.LVL24:
 226 0000 38B5     		push	{r3, r4, r5, lr}
 227              	.LCFI3:
ARM GAS  /tmp/cclBIhyK.s 			page 5


 228              		.cfi_def_cfa_offset 16
 229              		.cfi_offset 3, -16
 230              		.cfi_offset 4, -12
 231              		.cfi_offset 5, -8
 232              		.cfi_offset 14, -4
 233              		.loc 1 122 0
 234 0002 0446     		mov	r4, r0
 235              		.loc 1 124 0
 236 0004 FFF7FEFF 		bl	chDbgCheckClassI
 237              	.LVL25:
 238              		.loc 1 125 0
 239 0008 74B1     		cbz	r4, .L26
 240              	.L20:
 241              		.loc 1 130 0 discriminator 1
 242 000a 2068     		ldr	r0, [r4, #0]
 243 000c A042     		cmp	r0, r4
 244 000e 0AD0     		beq	.L19
 245              		.loc 1 131 0
 246 0010 6FF00105 		mvn	r5, #1
 247              	.L24:
 248              	.LVL26:
 249              	.LBB22:
 250              	.LBB23:
 251              		.loc 2 55 0
 252 0014 0368     		ldr	r3, [r0, #0]
 253 0016 2360     		str	r3, [r4, #0]
 254 0018 5C60     		str	r4, [r3, #4]
 255              	.LBE23:
 256              	.LBE22:
 257              		.loc 1 131 0
 258 001a FFF7FEFF 		bl	chSchReadyI
 259              	.LVL27:
 260 001e 8562     		str	r5, [r0, #40]
 261              		.loc 1 130 0
 262 0020 2068     		ldr	r0, [r4, #0]
 263 0022 A042     		cmp	r0, r4
 264 0024 F6D1     		bne	.L24
 265              	.LVL28:
 266              	.L19:
 267 0026 38BD     		pop	{r3, r4, r5, pc}
 268              	.L26:
 269              		.loc 1 125 0 discriminator 1
 270 0028 0148     		ldr	r0, .L27
 271 002a FFF7FEFF 		bl	chDbgPanic
 272              	.LVL29:
 273 002e ECE7     		b	.L20
 274              	.L28:
 275              		.align	2
 276              	.L27:
 277 0030 38000000 		.word	.LC3
 278              		.cfi_endproc
 279              	.LFE11:
 280              		.size	chCondBroadcastI, .-chCondBroadcastI
 281 0034 AFF30080 		.section	.text.chCondBroadcast,"ax",%progbits
 281      AFF30080 
 281      AFF30080 
 282              		.align	2
ARM GAS  /tmp/cclBIhyK.s 			page 6


 283              		.p2align 4,,15
 284              		.global	chCondBroadcast
 285              		.thumb
 286              		.thumb_func
 287              		.type	chCondBroadcast, %function
 288              	chCondBroadcast:
 289              	.LFB10:
 290              		.loc 1 103 0
 291              		.cfi_startproc
 292              		@ args = 0, pretend = 0, frame = 0
 293              		@ frame_needed = 0, uses_anonymous_args = 0
 294              	.LVL30:
 295 0000 10B5     		push	{r4, lr}
 296              	.LCFI4:
 297              		.cfi_def_cfa_offset 8
 298              		.cfi_offset 4, -8
 299              		.cfi_offset 14, -4
 300              	.LBB24:
 301              		.loc 1 105 0
 302 0002 2023     		movs	r3, #32
 303              	.LVL31:
 304              	.LBE24:
 305              		.loc 1 103 0
 306 0004 0446     		mov	r4, r0
 307              	.LBB25:
 308              		.loc 1 105 0
 309              	@ 105 "/home/gokul/ChibiOS_2.5.0/os/kernel/src/chcond.c" 1
 310 0006 83F31188 		msr     BASEPRI, r3
 311              	@ 0 "" 2
 312              	.LVL32:
 313              		.thumb
 314              	.LBE25:
 315 000a FFF7FEFF 		bl	dbg_check_lock
 316              	.LVL33:
 317              		.loc 1 106 0
 318 000e 2046     		mov	r0, r4
 319 0010 FFF7FEFF 		bl	chCondBroadcastI
 320              	.LVL34:
 321              		.loc 1 107 0
 322 0014 FFF7FEFF 		bl	chSchRescheduleS
 323              	.LVL35:
 324              		.loc 1 108 0
 325 0018 FFF7FEFF 		bl	dbg_check_unlock
 326              	.LVL36:
 327              	.LBB26:
 328 001c 0023     		movs	r3, #0
 329              	.LVL37:
 330              	@ 108 "/home/gokul/ChibiOS_2.5.0/os/kernel/src/chcond.c" 1
 331 001e 83F31188 		msr     BASEPRI, r3
 332              	@ 0 "" 2
 333              	.LVL38:
 334              		.thumb
 335 0022 10BD     		pop	{r4, pc}
 336              	.LBE26:
 337              		.cfi_endproc
 338              	.LFE10:
 339              		.size	chCondBroadcast, .-chCondBroadcast
ARM GAS  /tmp/cclBIhyK.s 			page 7


 340 0024 AFF30080 		.section	.text.chCondWaitS,"ax",%progbits
 340      AFF30080 
 340      AFF30080 
 341              		.align	2
 342              		.p2align 4,,15
 343              		.global	chCondWaitS
 344              		.thumb
 345              		.thumb_func
 346              		.type	chCondWaitS, %function
 347              	chCondWaitS:
 348              	.LFB13:
 349              		.loc 1 177 0
 350              		.cfi_startproc
 351              		@ args = 0, pretend = 0, frame = 0
 352              		@ frame_needed = 0, uses_anonymous_args = 0
 353              	.LVL39:
 354 0000 F8B5     		push	{r3, r4, r5, r6, r7, lr}
 355              	.LCFI5:
 356              		.cfi_def_cfa_offset 24
 357              		.cfi_offset 3, -24
 358              		.cfi_offset 4, -20
 359              		.cfi_offset 5, -16
 360              		.cfi_offset 6, -12
 361              		.cfi_offset 7, -8
 362              		.cfi_offset 14, -4
 363              		.loc 1 178 0
 364 0002 174B     		ldr	r3, .L42
 365              		.loc 1 177 0
 366 0004 0546     		mov	r5, r0
 367              		.loc 1 178 0
 368 0006 9C69     		ldr	r4, [r3, #24]
 369              	.LVL40:
 370              		.loc 1 182 0
 371 0008 FFF7FEFF 		bl	chDbgCheckClassS
 372              	.LVL41:
 373              		.loc 1 183 0
 374 000c 1DB3     		cbz	r5, .L38
 375              	.L31:
 376              		.loc 1 184 0
 377 000e 206C     		ldr	r0, [r4, #64]
 378 0010 E8B1     		cbz	r0, .L39
 379              	.L32:
 380              		.loc 1 188 0
 381 0012 FFF7FEFF 		bl	chMtxUnlockS
 382              	.LVL42:
 383              		.loc 1 190 0
 384 0016 2E46     		mov	r6, r5
 385              		.loc 1 188 0
 386 0018 0746     		mov	r7, r0
 387              	.LVL43:
 388              		.loc 1 189 0
 389 001a A562     		str	r5, [r4, #40]
 390              		.loc 2 36 0
 391 001c 2B46     		mov	r3, r5
 392 001e 03E0     		b	.L34
 393              	.LVL44:
 394              	.L41:
ARM GAS  /tmp/cclBIhyK.s 			page 8


 395              	.LBB27:
 396              	.LBB28:
 397              		.loc 2 39 0
 398 0020 9968     		ldr	r1, [r3, #8]
 399 0022 A268     		ldr	r2, [r4, #8]
 400 0024 9142     		cmp	r1, r2
 401 0026 10D3     		bcc	.L40
 402              	.L34:
 403              		.loc 2 38 0
 404 0028 1B68     		ldr	r3, [r3, #0]
 405              	.LVL45:
 406              		.loc 2 39 0
 407 002a 9D42     		cmp	r5, r3
 408 002c F8D1     		bne	.L41
 409              	.L35:
 410              		.loc 2 41 0
 411 002e 7068     		ldr	r0, [r6, #4]
 412              	.LVL46:
 413              		.loc 2 40 0
 414 0030 2660     		str	r6, [r4, #0]
 415              		.loc 2 41 0
 416 0032 6060     		str	r0, [r4, #4]
 417              		.loc 2 42 0
 418 0034 0460     		str	r4, [r0, #0]
 419 0036 7460     		str	r4, [r6, #4]
 420              	.LBE28:
 421              	.LBE27:
 422              		.loc 1 191 0
 423 0038 0520     		movs	r0, #5
 424 003a FFF7FEFF 		bl	chSchGoSleepS
 425              	.LVL47:
 426              		.loc 1 192 0
 427 003e A46A     		ldr	r4, [r4, #40]
 428              	.LVL48:
 429              		.loc 1 193 0
 430 0040 3846     		mov	r0, r7
 431 0042 FFF7FEFF 		bl	chMtxLockS
 432              	.LVL49:
 433              		.loc 1 195 0
 434 0046 2046     		mov	r0, r4
 435 0048 F8BD     		pop	{r3, r4, r5, r6, r7, pc}
 436              	.LVL50:
 437              	.L40:
 438              	.LBB30:
 439              	.LBB29:
 440              		.loc 2 39 0
 441 004a 1E46     		mov	r6, r3
 442 004c EFE7     		b	.L35
 443              	.LVL51:
 444              	.L39:
 445              	.LBE29:
 446              	.LBE30:
 447              		.loc 1 184 0 discriminator 1
 448 004e 0548     		ldr	r0, .L42+4
 449 0050 FFF7FEFF 		bl	chDbgPanic
 450              	.LVL52:
 451 0054 DDE7     		b	.L32
ARM GAS  /tmp/cclBIhyK.s 			page 9


 452              	.L38:
 453              		.loc 1 183 0 discriminator 1
 454 0056 0448     		ldr	r0, .L42+8
 455 0058 FFF7FEFF 		bl	chDbgPanic
 456              	.LVL53:
 457 005c D7E7     		b	.L31
 458              	.L43:
 459 005e 00BF     		.align	2
 460              	.L42:
 461 0060 00000000 		.word	rlist
 462 0064 60000000 		.word	.LC5
 463 0068 50000000 		.word	.LC4
 464              		.cfi_endproc
 465              	.LFE13:
 466              		.size	chCondWaitS, .-chCondWaitS
 467 006c AFF30080 		.section	.text.chCondWait,"ax",%progbits
 468              		.align	2
 469              		.p2align 4,,15
 470              		.global	chCondWait
 471              		.thumb
 472              		.thumb_func
 473              		.type	chCondWait, %function
 474              	chCondWait:
 475              	.LFB12:
 476              		.loc 1 151 0
 477              		.cfi_startproc
 478              		@ args = 0, pretend = 0, frame = 0
 479              		@ frame_needed = 0, uses_anonymous_args = 0
 480              	.LVL54:
 481 0000 10B5     		push	{r4, lr}
 482              	.LCFI6:
 483              		.cfi_def_cfa_offset 8
 484              		.cfi_offset 4, -8
 485              		.cfi_offset 14, -4
 486              	.LBB31:
 487              		.loc 1 154 0
 488 0002 2023     		movs	r3, #32
 489              	.LVL55:
 490              	.LBE31:
 491              		.loc 1 151 0
 492 0004 0446     		mov	r4, r0
 493              	.LBB32:
 494              		.loc 1 154 0
 495              	@ 154 "/home/gokul/ChibiOS_2.5.0/os/kernel/src/chcond.c" 1
 496 0006 83F31188 		msr     BASEPRI, r3
 497              	@ 0 "" 2
 498              	.LVL56:
 499              		.thumb
 500              	.LBE32:
 501 000a FFF7FEFF 		bl	dbg_check_lock
 502              	.LVL57:
 503              		.loc 1 155 0
 504 000e 2046     		mov	r0, r4
 505 0010 FFF7FEFF 		bl	chCondWaitS
 506              	.LVL58:
 507 0014 0446     		mov	r4, r0
 508              	.LVL59:
ARM GAS  /tmp/cclBIhyK.s 			page 10


 509              		.loc 1 156 0
 510 0016 FFF7FEFF 		bl	dbg_check_unlock
 511              	.LVL60:
 512              	.LBB33:
 513 001a 0023     		movs	r3, #0
 514              	.LVL61:
 515              	@ 156 "/home/gokul/ChibiOS_2.5.0/os/kernel/src/chcond.c" 1
 516 001c 83F31188 		msr     BASEPRI, r3
 517              	@ 0 "" 2
 518              	.LVL62:
 519              		.thumb
 520              	.LBE33:
 521              		.loc 1 158 0
 522 0020 2046     		mov	r0, r4
 523 0022 10BD     		pop	{r4, pc}
 524              		.cfi_endproc
 525              	.LFE12:
 526              		.size	chCondWait, .-chCondWait
 527 0024 AFF30080 		.section	.text.chCondWaitTimeoutS,"ax",%progbits
 527      AFF30080 
 527      AFF30080 
 528              		.align	2
 529              		.p2align 4,,15
 530              		.global	chCondWaitTimeoutS
 531              		.thumb
 532              		.thumb_func
 533              		.type	chCondWaitTimeoutS, %function
 534              	chCondWaitTimeoutS:
 535              	.LFB15:
 536              		.loc 1 263 0
 537              		.cfi_startproc
 538              		@ args = 0, pretend = 0, frame = 0
 539              		@ frame_needed = 0, uses_anonymous_args = 0
 540              	.LVL63:
 541 0000 F8B5     		push	{r3, r4, r5, r6, r7, lr}
 542              	.LCFI7:
 543              		.cfi_def_cfa_offset 24
 544              		.cfi_offset 3, -24
 545              		.cfi_offset 4, -20
 546              		.cfi_offset 5, -16
 547              		.cfi_offset 6, -12
 548              		.cfi_offset 7, -8
 549              		.cfi_offset 14, -4
 550              		.loc 1 263 0
 551 0002 0646     		mov	r6, r0
 552 0004 0D46     		mov	r5, r1
 553              		.loc 1 267 0
 554 0006 FFF7FEFF 		bl	chDbgCheckClassS
 555              	.LVL64:
 556              		.loc 1 268 0
 557 000a 16B3     		cbz	r6, .L46
 558              		.loc 1 268 0 is_stmt 0 discriminator 2
 559 000c 0DB3     		cbz	r5, .L46
 560              	.L47:
 561              		.loc 1 269 0 is_stmt 1
 562 000e 154C     		ldr	r4, .L59
 563 0010 A369     		ldr	r3, [r4, #24]
ARM GAS  /tmp/cclBIhyK.s 			page 11


 564 0012 186C     		ldr	r0, [r3, #64]
 565 0014 08B3     		cbz	r0, .L58
 566              	.L48:
 567              		.loc 1 273 0
 568 0016 FFF7FEFF 		bl	chMtxUnlockS
 569              	.LVL65:
 570              		.loc 1 274 0
 571 001a A269     		ldr	r2, [r4, #24]
 572              		.loc 1 273 0
 573 001c 0746     		mov	r7, r0
 574              	.LVL66:
 575              		.loc 2 36 0
 576 001e 3346     		mov	r3, r6
 577              		.loc 1 274 0
 578 0020 9662     		str	r6, [r2, #40]
 579              	.LVL67:
 580              	.L52:
 581              	.LBB34:
 582              	.LBB35:
 583              		.loc 2 38 0
 584 0022 1B68     		ldr	r3, [r3, #0]
 585              	.LVL68:
 586              		.loc 2 39 0
 587 0024 9E42     		cmp	r6, r3
 588 0026 03D0     		beq	.L53
 589 0028 9968     		ldr	r1, [r3, #8]
 590 002a 9468     		ldr	r4, [r2, #8]
 591 002c A142     		cmp	r1, r4
 592 002e F8D2     		bcs	.L52
 593              	.L53:
 594              		.loc 2 41 0
 595 0030 5868     		ldr	r0, [r3, #4]
 596              	.LVL69:
 597              		.loc 2 40 0
 598 0032 1360     		str	r3, [r2, #0]
 599              		.loc 2 41 0
 600 0034 5060     		str	r0, [r2, #4]
 601              		.loc 2 42 0
 602 0036 0260     		str	r2, [r0, #0]
 603 0038 5A60     		str	r2, [r3, #4]
 604              	.LBE35:
 605              	.LBE34:
 606              		.loc 1 276 0
 607 003a 0520     		movs	r0, #5
 608 003c 2946     		mov	r1, r5
 609 003e FFF7FEFF 		bl	chSchGoSleepTimeoutS
 610              	.LVL70:
 611              		.loc 1 277 0
 612 0042 431C     		adds	r3, r0, #1
 613              		.loc 1 276 0
 614 0044 0446     		mov	r4, r0
 615              	.LVL71:
 616              		.loc 1 277 0
 617 0046 02D0     		beq	.L51
 618              		.loc 1 278 0
 619 0048 3846     		mov	r0, r7
 620              	.LVL72:
ARM GAS  /tmp/cclBIhyK.s 			page 12


 621 004a FFF7FEFF 		bl	chMtxLockS
 622              	.LVL73:
 623              	.L51:
 624              		.loc 1 280 0
 625 004e 2046     		mov	r0, r4
 626 0050 F8BD     		pop	{r3, r4, r5, r6, r7, pc}
 627              	.LVL74:
 628              	.L46:
 629              		.loc 1 268 0 discriminator 1
 630 0052 0548     		ldr	r0, .L59+4
 631 0054 FFF7FEFF 		bl	chDbgPanic
 632              	.LVL75:
 633 0058 D9E7     		b	.L47
 634              	.L58:
 635              		.loc 1 269 0 discriminator 1
 636 005a 0448     		ldr	r0, .L59+8
 637 005c FFF7FEFF 		bl	chDbgPanic
 638              	.LVL76:
 639 0060 D9E7     		b	.L48
 640              	.L60:
 641 0062 00BF     		.align	2
 642              	.L59:
 643 0064 00000000 		.word	rlist
 644 0068 74000000 		.word	.LC6
 645 006c 8C000000 		.word	.LC7
 646              		.cfi_endproc
 647              	.LFE15:
 648              		.size	chCondWaitTimeoutS, .-chCondWaitTimeoutS
 649              		.section	.text.chCondWaitTimeout,"ax",%progbits
 650              		.align	2
 651              		.p2align 4,,15
 652              		.global	chCondWaitTimeout
 653              		.thumb
 654              		.thumb_func
 655              		.type	chCondWaitTimeout, %function
 656              	chCondWaitTimeout:
 657              	.LFB14:
 658              		.loc 1 226 0
 659              		.cfi_startproc
 660              		@ args = 0, pretend = 0, frame = 0
 661              		@ frame_needed = 0, uses_anonymous_args = 0
 662              	.LVL77:
 663 0000 38B5     		push	{r3, r4, r5, lr}
 664              	.LCFI8:
 665              		.cfi_def_cfa_offset 16
 666              		.cfi_offset 3, -16
 667              		.cfi_offset 4, -12
 668              		.cfi_offset 5, -8
 669              		.cfi_offset 14, -4
 670              		.loc 1 226 0
 671 0002 0546     		mov	r5, r0
 672 0004 0C46     		mov	r4, r1
 673              	.LBB36:
 674              		.loc 1 229 0
 675 0006 2023     		movs	r3, #32
 676              	.LVL78:
 677              	@ 229 "/home/gokul/ChibiOS_2.5.0/os/kernel/src/chcond.c" 1
ARM GAS  /tmp/cclBIhyK.s 			page 13


 678 0008 83F31188 		msr     BASEPRI, r3
 679              	@ 0 "" 2
 680              	.LVL79:
 681              		.thumb
 682              	.LBE36:
 683 000c FFF7FEFF 		bl	dbg_check_lock
 684              	.LVL80:
 685              		.loc 1 230 0
 686 0010 2146     		mov	r1, r4
 687 0012 2846     		mov	r0, r5
 688 0014 FFF7FEFF 		bl	chCondWaitTimeoutS
 689              	.LVL81:
 690 0018 0446     		mov	r4, r0
 691              	.LVL82:
 692              		.loc 1 231 0
 693 001a FFF7FEFF 		bl	dbg_check_unlock
 694              	.LVL83:
 695              	.LBB37:
 696 001e 0023     		movs	r3, #0
 697              	.LVL84:
 698              	@ 231 "/home/gokul/ChibiOS_2.5.0/os/kernel/src/chcond.c" 1
 699 0020 83F31188 		msr     BASEPRI, r3
 700              	@ 0 "" 2
 701              	.LVL85:
 702              		.thumb
 703              	.LBE37:
 704              		.loc 1 233 0
 705 0024 2046     		mov	r0, r4
 706 0026 38BD     		pop	{r3, r4, r5, pc}
 707              		.cfi_endproc
 708              	.LFE14:
 709              		.size	chCondWaitTimeout, .-chCondWaitTimeout
 710 0028 AFF30080 		.section	.rodata.str1.4,"aMS",%progbits,1
 710      AFF30080 
 711              		.align	2
 712              	.LC0:
 713 0000 22636843 		.ascii	"\"chCondInit\"()\000"
 713      6F6E6449 
 713      6E697422 
 713      282900
 714 000f 00       		.space	1
 715              	.LC1:
 716 0010 22636843 		.ascii	"\"chCondSignal\"()\000"
 716      6F6E6453 
 716      69676E61 
 716      6C222829 
 716      00
 717 0021 000000   		.space	3
 718              	.LC2:
 719 0024 22636843 		.ascii	"\"chCondSignalI\"()\000"
 719      6F6E6453 
 719      69676E61 
 719      6C492228 
 719      2900
 720 0036 0000     		.space	2
 721              	.LC3:
 722 0038 22636843 		.ascii	"\"chCondBroadcastI\"()\000"
ARM GAS  /tmp/cclBIhyK.s 			page 14


 722      6F6E6442 
 722      726F6164 
 722      63617374 
 722      49222829 
 723 004d 000000   		.space	3
 724              	.LC4:
 725 0050 22636843 		.ascii	"\"chCondWaitS\"()\000"
 725      6F6E6457 
 725      61697453 
 725      22282900 
 726              	.LC5:
 727 0060 6368436F 		.ascii	"chCondWaitS(), #1\000"
 727      6E645761 
 727      69745328 
 727      292C2023 
 727      3100
 728 0072 0000     		.space	2
 729              	.LC6:
 730 0074 22636843 		.ascii	"\"chCondWaitTimeoutS\"()\000"
 730      6F6E6457 
 730      61697454 
 730      696D656F 
 730      75745322 
 731 008b 00       		.space	1
 732              	.LC7:
 733 008c 6368436F 		.ascii	"chCondWaitTimeoutS(), #1\000"
 733      6E645761 
 733      69745469 
 733      6D656F75 
 733      74532829 
 734 00a5 000000   		.text
 735              	.Letext0:
 736              		.file 3 "/opt/gcc-arm-none-eabi-4_7-2013q1/bin/../lib/gcc/arm-none-eabi/4.7.3/../../../../arm-none
 737              		.file 4 "/home/gokul/ChibiOS_2.5.0/os/ports/GCC/ARMCMx/chtypes.h"
 738              		.file 5 "/home/gokul/ChibiOS_2.5.0/os/kernel/include/chlists.h"
 739              		.file 6 "/home/gokul/ChibiOS_2.5.0/os/kernel/include/chthreads.h"
 740              		.file 7 "/home/gokul/ChibiOS_2.5.0/os/ports/GCC/ARMCMx/chcore_v7m.h"
 741              		.file 8 "/home/gokul/ChibiOS_2.5.0/os/kernel/include/chschd.h"
 742              		.file 9 "/home/gokul/ChibiOS_2.5.0/os/kernel/include/chmtx.h"
 743              		.file 10 "/home/gokul/ChibiOS_2.5.0/os/kernel/include/chcond.h"
 744              		.file 11 "/home/gokul/ChibiOS_2.5.0/os/kernel/include/chdebug.h"