ARM GAS  /tmp/cclBIhyK.s 			page 1


   1              		.syntax unified
   2              		.cpu cortex-m4
   3              		.fpu softvfp
   4              		.eabi_attribute 20, 1
   5              		.eabi_attribute 21, 1
   6              		.eabi_attribute 23, 3
   7              		.eabi_attribute 24, 1
   8              		.eabi_attribute 25, 1
   9              		.eabi_attribute 26, 1
  10              		.eabi_attribute 30, 2
  11              		.eabi_attribute 34, 1
  12              		.eabi_attribute 18, 4
  13              		.thumb
  14              		.file	"chcond.c"
  15              		.text
  16              	.Ltext0:
  17              		.cfi_sections	.debug_frame
  18              		.section	.text.chCondInit,"ax",%progbits
  19              		.align	2
  20              		.p2align 4,,15
  21              		.global	chCondInit
  22              		.thumb
  23              		.thumb_func
  24              		.type	chCondInit, %function
  25              	chCondInit:
  26              	.LFB7:
  27              		.file 1 "/home/gokul/ChibiOS_2.5.0/os/kernel/src/chcond.c"
  28              		.loc 1 52 0
  29              		.cfi_startproc
  30              		@ args = 0, pretend = 0, frame = 0
  31              		@ frame_needed = 0, uses_anonymous_args = 0
  32              	.LVL0:
  33 0000 10B5     		push	{r4, lr}
  34              	.LCFI0:
  35              		.cfi_def_cfa_offset 8
  36              		.cfi_offset 4, -8
  37              		.cfi_offset 14, -4
  38              		.loc 1 54 0
  39 0002 0446     		mov	r4, r0
  40 0004 10B1     		cbz	r0, .L4
  41              	.LVL1:
  42              	.L2:
  43              		.loc 1 56 0
  44 0006 6460     		str	r4, [r4, #4]
  45 0008 2460     		str	r4, [r4, #0]
  46 000a 10BD     		pop	{r4, pc}
  47              	.LVL2:
  48              	.L4:
  49              		.loc 1 54 0 discriminator 1
  50 000c 0148     		ldr	r0, .L5
  51              	.LVL3:
  52 000e FFF7FEFF 		bl	chDbgPanic
  53              	.LVL4:
  54 0012 F8E7     		b	.L2
  55              	.L6:
  56              		.align	2
  57              	.L5:
ARM GAS  /tmp/cclBIhyK.s 			page 2


  58 0014 00000000 		.word	.LC0
  59              		.cfi_endproc
  60              	.LFE7:
  61              		.size	chCondInit, .-chCondInit
  62 0018 AFF30080 		.section	.text.chCondSignal,"ax",%progbits
  62      AFF30080 
  63              		.align	2
  64              		.p2align 4,,15
  65              		.global	chCondSignal
  66              		.thumb
  67              		.thumb_func
  68              		.type	chCondSignal, %function
  69              	chCondSignal:
  70              	.LFB8:
  71              		.loc 1 66 0
  72              		.cfi_startproc
  73              		@ args = 0, pretend = 0, frame = 0
  74              		@ frame_needed = 0, uses_anonymous_args = 0
  75              	.LVL5:
  76 0000 10B5     		push	{r4, lr}
  77              	.LCFI1:
  78              		.cfi_def_cfa_offset 8
  79              		.cfi_offset 4, -8
  80              		.cfi_offset 14, -4
  81              		.loc 1 68 0
  82 0002 0446     		mov	r4, r0
  83 0004 98B1     		cbz	r0, .L10
  84              	.LVL6:
  85              	.L8:
  86              	.LBB14:
  87              		.loc 1 70 0
  88 0006 2023     		movs	r3, #32
  89              	.LVL7:
  90              	@ 70 "/home/gokul/ChibiOS_2.5.0/os/kernel/src/chcond.c" 1
  91 0008 83F31188 		msr     BASEPRI, r3
  92              	@ 0 "" 2
  93              	.LVL8:
  94              		.thumb
  95              	.LBE14:
  96 000c FFF7FEFF 		bl	dbg_check_lock
  97              	.LVL9:
  98              		.loc 1 71 0
  99 0010 2068     		ldr	r0, [r4, #0]
 100 0012 A042     		cmp	r0, r4
 101 0014 05D0     		beq	.L9
 102              	.LVL10:
 103              	.LBB15:
 104              	.LBB16:
 105              		.file 2 "/home/gokul/ChibiOS_2.5.0/os/kernel/include/chinline.h"
 106              		.loc 2 55 0
 107 0016 0368     		ldr	r3, [r0, #0]
 108              	.LBE16:
 109              	.LBE15:
 110              		.loc 1 72 0
 111 0018 0021     		movs	r1, #0
 112              	.LBB18:
 113              	.LBB17:
ARM GAS  /tmp/cclBIhyK.s 			page 3


 114              		.loc 2 55 0
 115 001a 2360     		str	r3, [r4, #0]
 116 001c 5C60     		str	r4, [r3, #4]
 117              	.LBE17:
 118              	.LBE18:
 119              		.loc 1 72 0
 120 001e FFF7FEFF 		bl	chSchWakeupS
 121              	.LVL11:
 122              	.L9:
 123              		.loc 1 73 0
 124 0022 FFF7FEFF 		bl	dbg_check_unlock
 125              	.LVL12:
 126              	.LBB19:
 127 0026 0023     		movs	r3, #0
 128              	.LVL13:
 129              	@ 73 "/home/gokul/ChibiOS_2.5.0/os/kernel/src/chcond.c" 1
 130 0028 83F31188 		msr     BASEPRI, r3
 131              	@ 0 "" 2
 132              	.LVL14:
 133              		.thumb
 134 002c 10BD     		pop	{r4, pc}
 135              	.LVL15:
 136              	.L10:
 137              	.LBE19:
 138              		.loc 1 68 0 discriminator 1
 139 002e 0248     		ldr	r0, .L11
 140              	.LVL16:
 141 0030 FFF7FEFF 		bl	chDbgPanic
 142              	.LVL17:
 143 0034 E7E7     		b	.L8
 144              	.L12:
 145 0036 00BF     		.align	2
 146              	.L11:
 147 0038 10000000 		.word	.LC1
 148              		.cfi_endproc
 149              	.LFE8:
 150              		.size	chCondSignal, .-chCondSignal
 151 003c AFF30080 		.section	.text.chCondSignalI,"ax",%progbits
 152              		.align	2
 153              		.p2align 4,,15
 154              		.global	chCondSignalI
 155              		.thumb
 156              		.thumb_func
 157              		.type	chCondSignalI, %function
 158              	chCondSignalI:
 159              	.LFB9:
 160              		.loc 1 87 0
 161              		.cfi_startproc
 162              		@ args = 0, pretend = 0, frame = 0
 163              		@ frame_needed = 0, uses_anonymous_args = 0
 164              	.LVL18:
 165 0000 10B5     		push	{r4, lr}
 166              	.LCFI2:
 167              		.cfi_def_cfa_offset 8
 168              		.cfi_offset 4, -8
 169              		.cfi_offset 14, -4
 170              		.loc 1 87 0
ARM GAS  /tmp/cclBIhyK.s 			page 4


 171 0002 0446     		mov	r4, r0
 172              		.loc 1 89 0
 173 0004 FFF7FEFF 		bl	chDbgCheckClassI
 174              	.LVL19:
 175              		.loc 1 90 0
 176 0008 54B1     		cbz	r4, .L16
 177              	.L14:
 178              		.loc 1 92 0
 179 000a 2068     		ldr	r0, [r4, #0]
 180 000c A042     		cmp	r0, r4
 181 000e 06D0     		beq	.L13
 182              	.LVL20:
 183              	.LBB20:
 184              	.LBB21:
 185              		.loc 2 55 0
 186 0010 0368     		ldr	r3, [r0, #0]
 187 0012 2360     		str	r3, [r4, #0]
 188 0014 5C60     		str	r4, [r3, #4]
 189              	.LBE21:
 190              	.LBE20:
 191              		.loc 1 93 0
 192 0016 FFF7FEFF 		bl	chSchReadyI
 193              	.LVL21:
 194 001a 0021     		movs	r1, #0
 195 001c 8162     		str	r1, [r0, #40]
 196              	.LVL22:
 197              	.L13:
 198 001e 10BD     		pop	{r4, pc}
 199              	.L16:
 200              		.loc 1 90 0 discriminator 1
 201 0020 0148     		ldr	r0, .L17
 202 0022 FFF7FEFF 		bl	chDbgPanic
 203              	.LVL23:
 204 0026 F0E7     		b	.L14
 205              	.L18:
 206              		.align	2
 207              	.L17:
 208 0028 24000000 		.word	.LC2
 209              		.cfi_endproc
 210              	.LFE9:
 211              		.size	chCondSignalI, .-chCondSignalI
 212 002c AFF30080 		.section	.text.chCondBroadcastI,"ax",%progbits
 213              		.align	2
 214              		.p2align 4,,15
 215              		.global	chCondBroadcastI
 216              		.thumb
 217              		.thumb_func
 218              		.type	chCondBroadcastI, %function
 219              	chCondBroadcastI:
 220              	.LFB11:
 221              		.loc 1 122 0
 222              		.cfi_startproc
 223              		@ args = 0, pretend = 0, frame = 0
 224              		@ frame_needed = 0, uses_anonymous_args = 0
 225              	.LVL24:
 226 0000 38B5     		push	{r3, r4, r5, lr}
 227              	.LCFI3:
ARM GAS  /tmp/cclBIhyK.s 			page 5


 228              		.cfi_def_cfa_offset 16
 229              		.cfi_offset 3, -16
 230              		.cfi_offset 4, -12
 231              		.cfi_offset 5, -8
 232              		.cfi_offset 14, -4
 233              		.loc 1 122 0
 234 0002 0446     		mov	r4, r0
 235              		.loc 1 124 0
 236 0004 FFF7FEFF 		bl	chDbgCheckClassI
 237              	.LVL25:
 238              		.loc 1 125 0
 239 0008 74B1     		cbz	r4, .L26
 240              	.L20:
 241              		.loc 1 130 0 discriminator 1
 242 000a 2068     		ldr	r0, [r4, #0]
 243 000c A042     		cmp	r0, r4
 244 000e 0AD0     		beq	.L19
 245              		.loc 1 131 0
 246 0010 6FF00105 		mvn	r5, #1
 247              	.L24:
 248              	.LVL26:
 249              	.LBB22:
 250              	.LBB23:
 251              		.loc 2 55 0
 252 0014 0368     		ldr	r3, [r0, #0]
 253 0016 2360     		str	r3, [r4, #0]
 254 0018 5C60     		str	r4, [r3, #4]
 255              	.LBE23:
 256              	.LBE22:
 257              		.loc 1 131 0
 258 001a FFF7FEFF 		bl	chSchReadyI
 259              	.LVL27:
 260 001e 8562     		str	r5, [r0, #40]
 261              		.loc 1 130 0
 262 0020 2068     		ldr	r0, [r4, #0]
 263 0022 A042     		cmp	r0, r4
 264 0024 F6D1     		bne	.L24
 265              	.LVL28:
 266              	.L19:
 267 0026 38BD     		pop	{r3, r4, r5, pc}
 268              	.L26:
 269              		.loc 1 125 0 discriminator 1
 270 0028 0148     		ldr	r0, .L27
 271 002a FFF7FEFF 		bl	chDbgPanic
 272              	.LVL29:
 273 002e ECE7     		b	.L20
 274              	.L28:
 275              		.align	2
 276              	.L27:
 277 0030 38000000 		.word	.LC3
 278              		.cfi_endproc
 279              	.LFE11:
 280              		.size	chCondBroadcastI, .-chCondBroadcastI
 281 0034 AFF30080 		.section	.text.chCondBroadcast,"ax",%progbits
 281      AFF30080 
 281      AFF30080 
 282              		.align	2
ARM GAS  /tmp/cclBIhyK.s 			page 6


 283              		.p2align 4,,15
 284              		.global	chCondBroadcast
 285              		.thumb
 286              		.thumb_func
 287              		.type	chCondBroadcast, %function
 288              	chCondBroadcast:
 289              	.LFB10:
 290              		.loc 1 103 0
 291              		.cfi_startproc
 292              		@ args = 0, pretend = 0, frame = 0
 293              		@ frame_needed = 0, uses_anonymous_args = 0
 294              	.LVL30:
 295 0000 10B5     		push	{r4, lr}
 296              	.LCFI4:
 297              		.cfi_def_cfa_offset 8
 298              		.cfi_offset 4, -8
 299              		.cfi_offset 14, -4
 300              	.LBB24:
 301              		.loc 1 105 0
 302 0002 2023     		movs	r3, #32
 303              	.LVL31:
 304              	.LBE24:
 305              		.loc 1 103 0
 306 0004 0446     		mov	r4, r0
 307              	.LBB25:
 308              		.loc 1 105 0
 309              	@ 105 "/home/gokul/ChibiOS_2.5.0/os/kernel/src/chcond.c" 1
 310 0006 83F31188 		msr     BASEPRI, r3
 311              	@ 0 "" 2
 312              	.LVL32:
 313              		.thumb
 314              	.LBE25:
 315 000a FFF7FEFF 		bl	dbg_check_lock
 316              	.LVL33:
 317              		.loc 1 106 0
 318 000e 2046     		mov	r0, r4
 319 0010 FFF7FEFF 		bl	chCondBroadcastI
 320              	.LVL34:
 321              		.loc 1 107 0
 322 0014 FFF7FEFF 		bl	chSchRescheduleS
 323              	.LVL35:
 324              		.loc 1 108 0
 325 0018 FFF7FEFF 		bl	dbg_check_unlock
 326              	.LVL36:
 327              	.LBB26:
 328 001c 0023     		movs	r3, #0
 329              	.LVL37:
 330              	@ 108 "/home/gokul/ChibiOS_2.5.0/os/kernel/src/chcond.c" 1
 331 001e 83F31188 		msr     BASEPRI, r3
 332              	@ 0 "" 2
 333              	.LVL38:
 334              		.thumb
 335 0022 10BD     		pop	{r4, pc}
 336              	.LBE26:
 337              		.cfi_endproc
 338              	.LFE10:
 339              		.size	chCondBroadcast, .-chCondBroadcast
ARM GAS  /tmp/cclBIhyK.s 			page 7


 340 0024 AFF30080 		.section	.text.chCondWaitS,"ax",%progbits
 340      AFF30080 
 340      AFF30080 
 341              		.align	2
 342              		.p2align 4,,15
 343              		.global	chCondWaitS
 344              		.thumb
 345              		.thumb_func
 346              		.type	chCondWaitS, %function
 347              	chCondWaitS:
 348              	.LFB13:
 349              		.loc 1 177 0
 350              		.cfi_startproc
 351              		@ args = 0, pretend = 0, frame = 0
 352              		@ frame_needed = 0, uses_anonymous_args = 0
 353              	.LVL39:
 354 0000 F8B5     		push	{r3, r4, r5, r6, r7, lr}
 355              	.LCFI5:
 356              		.cfi_def_cfa_offset 24
 357              		.cfi_offset 3, -24
 358              		.cfi_offset 4, -20
 359              		.cfi_offset 5, -16
 360              		.cfi_offset 6, -12
 361              		.cfi_offset 7, -8
 362              		.cfi_offset 14, -4
 363              		.loc 1 178 0
 364 0002 174B     		ldr	r3, .L42
 365              		.loc 1 177 0
 366 0004 0546     		mov	r5, r0
 367              		.loc 1 178 0
 368 0006 9C69     		ldr	r4, [r3, #24]
 369              	.LVL40:
 370              		.loc 1 182 0
 371 0008 FFF7FEFF 		bl	chDbgCheckClassS
 372              	.LVL41:
 373              		.loc 1 183 0
 374 000c 1DB3     		cbz	r5, .L38
 375              	.L31:
 376              		.loc 1 184 0
 377 000e 206C     		ldr	r0, [r4, #64]
 378 0010 E8B1     		cbz	r0, .L39
 379              	.L32:
 380              		.loc 1 188 0
 381 0012 FFF7FEFF 		bl	chMtxUnlockS
 382              	.LVL42:
 383              		.loc 1 190 0
 384 0016 2E46     		mov	r6, r5
 385              		.loc 1 188 0
 386 0018 0746     		mov	r7, r0
 387              	.LVL43:
 388              		.loc 1 189 0
 389 001a A562     		str	r5, [r4, #40]
 390              		.loc 2 36 0
 391 001c 2B46     		mov	r3, r5
 392 001e 03E0     		b	.L34
 393              	.LVL44:
 394              	.L41:
ARM GAS  /tmp/cclBIhyK.s 			page 8


 395              	.LBB27:
 396              	.LBB28:
 397              		.loc 2 39 0
 398 0020 9968     		ldr	r1, [r3, #8]
 399 0022 A268     		ldr	r2, [r4, #8]
 400 0024 9142     		cmp	r1, r2
 401 0026 10D3     		bcc	.L40
 402              	.L34:
 403              		.loc 2 38 0
 404 0028 1B68     		ldr	r3, [r3, #0]
 405              	.LVL45:
 406              		.loc 2 39 0
 407 002a 9D42     		cmp	r5, r3
 408 002c F8D1     		bne	.L41
 409              	.L35:
 410              		.loc 2 41 0
 411 002e 7068     		ldr	r0, [r6, #4]
 412              	.LVL46:
 413              		.loc 2 40 0
 414 0030 2660     		str	r6, [r4, #0]
 415              		.loc 2 41 0
 416 0032 6060     		str	r0, [r4, #4]
 417              		.loc 2 42 0
 418 0034 0460     		str	r4, [r0, #0]
 419 0036 7460     		str	r4, [r6, #4]
 420              	.LBE28:
 421              	.LBE27:
 422              		.loc 1 191 0
 423 0038 0520     		movs	r0, #5
 424 003a FFF7FEFF 		bl	chSchGoSleepS
 425              	.LVL47:
 426              		.loc 1 192 0
 427 003e A46A     		ldr	r4, [r4, #40]
 428              	.LVL48:
 429              		.loc 1 193 0
 430 0040 3846     		mov	r0, r7
 431 0042 FFF7FEFF 		bl	chMtxLockS
 432              	.LVL49:
 433              		.loc 1 195 0
 434 0046 2046     		mov	r0, r4
 435 0048 F8BD     		pop	{r3, r4, r5, r6, r7, pc}
 436              	.LVL50:
 437              	.L40:
 438              	.LBB30:
 439              	.LBB29:
 440              		.loc 2 39 0
 441 004a 1E46     		mov	r6, r3
 442 004c EFE7     		b	.L35
 443              	.LVL51:
 444              	.L39:
 445              	.LBE29:
 446              	.LBE30:
 447              		.loc 1 184 0 discriminator 1
 448 004e 0548     		ldr	r0, .L42+4
 449 0050 FFF7FEFF 		bl	chDbgPanic
 450              	.LVL52:
 451 0054 DDE7     		b	.L32
ARM GAS  /tmp/cclBIhyK.s 			page 9


 452              	.L38:
 453              		.loc 1 183 0 discriminator 1
 454 0056 0448     		ldr	r0, .L42+8
 455 0058 FFF7FEFF 		bl	chDbgPanic
 456              	.LVL53:
 457 005c D7E7     		b	.L31
 458              	.L43:
 459 005e 00BF     		.align	2
 460              	.L42:
 461 0060 00000000 		.word	rlist
 462 0064 60000000 		.word	.LC5
 463 0068 50000000 		.word	.LC4
 464              		.cfi_endproc
 465              	.LFE13:
 466              		.size	chCondWaitS, .-chCondWaitS
 467 006c AFF30080 		.section	.text.chCondWait,"ax",%progbits
 468              		.align	2
 469              		.p2align 4,,15
 470              		.global	chCondWait
 471              		.thumb
 472              		.thumb_func
 473              		.type	chCondWait, %function
 474              	chCondWait:
 475              	.LFB12:
 476              		.loc 1 151 0
 477              		.cfi_startproc
 478              		@ args = 0, pretend = 0, frame = 0
 479              		@ frame_needed = 0, uses_anonymous_args = 0
 480              	.LVL54:
 481 0000 10B5     		push	{r4, lr}
 482              	.LCFI6:
 483              		.cfi_def_cfa_offset 8
 484              		.cfi_offset 4, -8
 485              		.cfi_offset 14, -4
 486              	.LBB31:
 487              		.loc 1 154 0
 488 0002 2023     		movs	r3, #32
 489              	.LVL55:
 490              	.LBE31:
 491              		.loc 1 151 0
 492 0004 0446     		mov	r4, r0
 493              	.LBB32:
 494              		.loc 1 154 0
 495              	@ 154 "/home/gokul/ChibiOS_2.5.0/os/kernel/src/chcond.c" 1
 496 0006 83F31188 		msr     BASEPRI, r3
 497              	@ 0 "" 2
 498              	.LVL56:
 499              		.thumb
 500              	.LBE32:
 501 000a FFF7FEFF 		bl	dbg_check_lock
 502              	.LVL57:
 503              		.loc 1 155 0
 504 000e 2046     		mov	r0, r4
 505 0010 FFF7FEFF 		bl	chCondWaitS
 506              	.LVL58:
 507 0014 0446     		mov	r4, r0
 508              	.LVL59:
ARM GAS  /tmp/cclBIhyK.s 			page 10


 509              		.loc 1 156 0
 510 0016 FFF7FEFF 		bl	dbg_check_unlock
 511              	.LVL60:
 512              	.LBB33:
 513 001a 0023     		movs	r3, #0
 514              	.LVL61:
 515              	@ 156 "/home/gokul/ChibiOS_2.5.0/os/kernel/src/chcond.c" 1
 516 001c 83F31188 		msr     BASEPRI, r3
 517              	@ 0 "" 2
 518              	.LVL62:
 519              		.thumb
 520              	.LBE33:
 521              		.loc 1 158 0
 522 0020 2046     		mov	r0, r4
 523 0022 10BD     		pop	{r4, pc}
 524              		.cfi_endproc
 525              	.LFE12:
 526              		.size	chCondWait, .-chCondWait
 527 0024 AFF30080 		.section	.text.chCondWaitTimeoutS,"ax",%progbits
 527      AFF30080 
 527      AFF30080 
 528              		.align	2
 529              		.p2align 4,,15
 530              		.global	chCondWaitTimeoutS
 531              		.thumb
 532              		.thumb_func
 533              		.type	chCondWaitTimeoutS, %function
 534              	chCondWaitTimeoutS:
 535              	.LFB15:
 536              		.loc 1 263 0
 537              		.cfi_startproc
 538              		@ args = 0, pretend = 0, frame = 0
 539              		@ frame_needed = 0, uses_anonymous_args = 0
 540              	.LVL63:
 541 0000 F8B5     		push	{r3, r4, r5, r6, r7, lr}
 542              	.LCFI7:
 543              		.cfi_def_cfa_offset 24
 544              		.cfi_offset 3, -24
 545              		.cfi_offset 4, -20
 546              		.cfi_offset 5, -16
 547              		.cfi_offset 6, -12
 548              		.cfi_offset 7, -8
 549              		.cfi_offset 14, -4
 550              		.loc 1 263 0
 551 0002 0646     		mov	r6, r0
 552 0004 0D46     		mov	r5, r1
 553              		.loc 1 267 0
 554 0006 FFF7FEFF 		bl	chDbgCheckClassS
 555              	.LVL64:
 556              		.loc 1 268 0
 557 000a 16B3     		cbz	r6, .L46
 558              		.loc 1 268 0 is_stmt 0 discriminator 2
 559 000c 0DB3     		cbz	r5, .L46
 560              	.L47:
 561              		.loc 1 269 0 is_stmt 1
 562 000e 154C     		ldr	r4, .L59
 563 0010 A369     		ldr	r3, [r4, #24]
ARM GAS  /tmp/cclBIhyK.s 			page 11


 564 0012 186C     		ldr	r0, [r3, #64]
 565 0014 08B3     		cbz	r0, .L58
 566              	.L48:
 567              		.loc 1 273 0
 568 0016 FFF7FEFF 		bl	chMtxUnlockS
 569              	.LVL65:
 570              		.loc 1 274 0
 571 001a A269     		ldr	r2, [r4, #24]
 572              		.loc 1 273 0
 573 001c 0746     		mov	r7, r0
 574              	.LVL66:
 575              		.loc 2 36 0
 576 001e 3346     		mov	r3, r6
 577              		.loc 1 274 0
 578 0020 9662     		str	r6, [r2, #40]
 579              	.LVL67:
 580              	.L52:
 581              	.LBB34:
 582              	.LBB35:
 583              		.loc 2 38 0
 584 0022 1B68     		ldr	r3, [r3, #0]
 585              	.LVL68:
 586              		.loc 2 39 0
 587 0024 9E42     		cmp	r6, r3
 588 0026 03D0     		beq	.L53
 589 0028 9968     		ldr	r1, [r3, #8]
 590 002a 9468     		ldr	r4, [r2, #8]
 591 002c A142     		cmp	r1, r4
 592 002e F8D2     		bcs	.L52
 593              	.L53:
 594              		.loc 2 41 0
 595 0030 5868     		ldr	r0, [r3, #4]
 596              	.LVL69:
 597              		.loc 2 40 0
 598 0032 1360     		str	r3, [r2, #0]
 599              		.loc 2 41 0
 600 0034 5060     		str	r0, [r2, #4]
 601              		.loc 2 42 0
 602 0036 0260     		str	r2, [r0, #0]
 603 0038 5A60     		str	r2, [r3, #4]
 604              	.LBE35:
 605              	.LBE34:
 606              		.loc 1 276 0
 607 003a 0520     		movs	r0, #5
 608 003c 2946     		mov	r1, r5
 609 003e FFF7FEFF 		bl	chSchGoSleepTimeoutS
 610              	.LVL70:
 611              		.loc 1 277 0
 612 0042 431C     		adds	r3, r0, #1
 613              		.loc 1 276 0
 614 0044 0446     		mov	r4, r0
 615              	.LVL71:
 616              		.loc 1 277 0
 617 0046 02D0     		beq	.L51
 618              		.loc 1 278 0
 619 0048 3846     		mov	r0, r7
 620              	.LVL72:
ARM GAS  /tmp/cclBIhyK.s 			page 12


 621 004a FFF7FEFF 		bl	chMtxLockS
 622              	.LVL73:
 623              	.L51:
 624              		.loc 1 280 0
 625 004e 2046     		mov	r0, r4
 626 0050 F8BD     		pop	{r3, r4, r5, r6, r7, pc}
 627              	.LVL74:
 628              	.L46:
 629              		.loc 1 268 0 discriminator 1
 630 0052 0548     		ldr	r0, .L59+4
 631 0054 FFF7FEFF 		bl	chDbgPanic
 632              	.LVL75:
 633 0058 D9E7     		b	.L47
 634              	.L58:
 635              		.loc 1 269 0 discriminator 1
 636 005a 0448     		ldr	r0, .L59+8
 637 005c FFF7FEFF 		bl	chDbgPanic
 638              	.LVL76:
 639 0060 D9E7     		b	.L48
 640              	.L60:
 641 0062 00BF     		.align	2
 642              	.L59:
 643 0064 00000000 		.word	rlist
 644 0068 74000000 		.word	.LC6
 645 006c 8C000000 		.word	.LC7
 646              		.cfi_endproc
 647              	.LFE15:
 648              		.size	chCondWaitTimeoutS, .-chCondWaitTimeoutS
 649              		.section	.text.chCondWaitTimeout,"ax",%progbits
 650              		.align	2
 651              		.p2align 4,,15
 652              		.global	chCondWaitTimeout
 653              		.thumb
 654              		.thumb_func
 655              		.type	chCondWaitTimeout, %function
 656              	chCondWaitTimeout:
 657              	.LFB14:
 658              		.loc 1 226 0
 659              		.cfi_startproc
 660              		@ args = 0, pretend = 0, frame = 0
 661              		@ frame_needed = 0, uses_anonymous_args = 0
 662              	.LVL77:
 663 0000 38B5     		push	{r3, r4, r5, lr}
 664              	.LCFI8:
 665              		.cfi_def_cfa_offset 16
 666              		.cfi_offset 3, -16
 667              		.cfi_offset 4, -12
 668              		.cfi_offset 5, -8
 669              		.cfi_offset 14, -4
 670              		.loc 1 226 0
 671 0002 0546     		mov	r5, r0
 672 0004 0C46     		mov	r4, r1
 673              	.LBB36:
 674              		.loc 1 229 0
 675 0006 2023     		movs	r3, #32
 676              	.LVL78:
 677              	@ 229 "/home/gokul/ChibiOS_2.5.0/os/kernel/src/chcond.c" 1
ARM GAS  /tmp/cclBIhyK.s 			page 13


 678 0008 83F31188 		msr     BASEPRI, r3
 679              	@ 0 "" 2
 680              	.LVL79:
 681              		.thumb
 682              	.LBE36:
 683 000c FFF7FEFF 		bl	dbg_check_lock
 684              	.LVL80:
 685              		.loc 1 230 0
 686 0010 2146     		mov	r1, r4
 687 0012 2846     		mov	r0, r5
 688 0014 FFF7FEFF 		bl	chCondWaitTimeoutS
 689              	.LVL81:
 690 0018 0446     		mov	r4, r0
 691              	.LVL82:
 692              		.loc 1 231 0
 693 001a FFF7FEFF 		bl	dbg_check_unlock
 694              	.LVL83:
 695              	.LBB37:
 696 001e 0023     		movs	r3, #0
 697              	.LVL84:
 698              	@ 231 "/home/gokul/ChibiOS_2.5.0/os/kernel/src/chcond.c" 1
 699 0020 83F31188 		msr     BASEPRI, r3
 700              	@ 0 "" 2
 701              	.LVL85:
 702              		.thumb
 703              	.LBE37:
 704              		.loc 1 233 0
 705 0024 2046     		mov	r0, r4
 706 0026 38BD     		pop	{r3, r4, r5, pc}
 707              		.cfi_endproc
 708              	.LFE14:
 709              		.size	chCondWaitTimeout, .-chCondWaitTimeout
 710 0028 AFF30080 		.section	.rodata.str1.4,"aMS",%progbits,1
 710      AFF30080 
 711              		.align	2
 712              	.LC0:
 713 0000 22636843 		.ascii	"\"chCondInit\"()\000"
 713      6F6E6449 
 713      6E697422 
 713      282900
 714 000f 00       		.space	1
 715              	.LC1:
 716 0010 22636843 		.ascii	"\"chCondSignal\"()\000"
 716      6F6E6453 
 716      69676E61 
 716      6C222829 
 716      00
 717 0021 000000   		.space	3
 718              	.LC2:
 719 0024 22636843 		.ascii	"\"chCondSignalI\"()\000"
 719      6F6E6453 
 719      69676E61 
 719      6C492228 
 719      2900
 720 0036 0000     		.space	2
 721              	.LC3:
 722 0038 22636843 		.ascii	"\"chCondBroadcastI\"()\000"
ARM GAS  /tmp/cclBIhyK.s 			page 14


 722      6F6E6442 
 722      726F6164 
 722      63617374 
 722      49222829 
 723 004d 000000   		.space	3
 724              	.LC4:
 725 0050 22636843 		.ascii	"\"chCondWaitS\"()\000"
 725      6F6E6457 
 725      61697453 
 725      22282900 
 726              	.LC5:
 727 0060 6368436F 		.ascii	"chCondWaitS(), #1\000"
 727      6E645761 
 727      69745328 
 727      292C2023 
 727      3100
 728 0072 0000     		.space	2
 729              	.LC6:
 730 0074 22636843 		.ascii	"\"chCondWaitTimeoutS\"()\000"
 730      6F6E6457 
 730      61697454 
 730      696D656F 
 730      75745322 
 731 008b 00       		.space	1
 732              	.LC7:
 733 008c 6368436F 		.ascii	"chCondWaitTimeoutS(), #1\000"
 733      6E645761 
 733      69745469 
 733      6D656F75 
 733      74532829 
 734 00a5 000000   		.text
 735              	.Letext0:
 736              		.file 3 "/opt/gcc-arm-none-eabi-4_7-2013q1/bin/../lib/gcc/arm-none-eabi/4.7.3/../../../../arm-none
 737              		.file 4 "/home/gokul/ChibiOS_2.5.0/os/ports/GCC/ARMCMx/chtypes.h"
 738              		.file 5 "/home/gokul/ChibiOS_2.5.0/os/kernel/include/chlists.h"
 739              		.file 6 "/home/gokul/ChibiOS_2.5.0/os/kernel/include/chthreads.h"
 740              		.file 7 "/home/gokul/ChibiOS_2.5.0/os/ports/GCC/ARMCMx/chcore_v7m.h"
 741              		.file 8 "/home/gokul/ChibiOS_2.5.0/os/kernel/include/chschd.h"
 742              		.file 9 "/home/gokul/ChibiOS_2.5.0/os/kernel/include/chmtx.h"
 743              		.file 10 "/home/gokul/ChibiOS_2.5.0/os/kernel/include/chcond.h"
 744              		.file 11 "/home/gokul/ChibiOS_2.5.0/os/kernel/include/chdebug.h"
 745              		.section	.debug_info,"",%progbits
 746              	.Ldebug_info0:
 747 0000 7B0B0000 		.4byte	0xb7b
 748 0004 0200     		.2byte	0x2
 749 0006 00000000 		.4byte	.Ldebug_abbrev0
 750 000a 04       		.byte	0x4
 751 000b 01       		.uleb128 0x1
 752 000c 55020000 		.4byte	.LASF87
 753 0010 01       		.byte	0x1
 754 0011 9E010000 		.4byte	.LASF88
 755 0015 90000000 		.4byte	.Ldebug_ranges0+0x90
 756 0019 00000000 		.4byte	0
 757 001d 00000000 		.4byte	0
 758 0021 00000000 		.4byte	.Ldebug_line0
 759 0025 02       		.uleb128 0x2
 760 0026 04       		.byte	0x4
ARM GAS  /tmp/cclBIhyK.s 			page 15


 761 0027 05       		.byte	0x5
 762 0028 696E7400 		.ascii	"int\000"
 763 002c 03       		.uleb128 0x3
 764 002d 04       		.byte	0x4
 765 002e 07       		.byte	0x7
 766 002f FF000000 		.4byte	.LASF0
 767 0033 03       		.uleb128 0x3
 768 0034 01       		.byte	0x1
 769 0035 06       		.byte	0x6
 770 0036 72000000 		.4byte	.LASF1
 771 003a 04       		.uleb128 0x4
 772 003b D8030000 		.4byte	.LASF5
 773 003f 03       		.byte	0x3
 774 0040 2A       		.byte	0x2a
 775 0041 45000000 		.4byte	0x45
 776 0045 03       		.uleb128 0x3
 777 0046 01       		.byte	0x1
 778 0047 08       		.byte	0x8
 779 0048 B4020000 		.4byte	.LASF2
 780 004c 03       		.uleb128 0x3
 781 004d 02       		.byte	0x2
 782 004e 05       		.byte	0x5
 783 004f CC020000 		.4byte	.LASF3
 784 0053 03       		.uleb128 0x3
 785 0054 02       		.byte	0x2
 786 0055 07       		.byte	0x7
 787 0056 26010000 		.4byte	.LASF4
 788 005a 04       		.uleb128 0x4
 789 005b AC020000 		.4byte	.LASF6
 790 005f 03       		.byte	0x3
 791 0060 4F       		.byte	0x4f
 792 0061 65000000 		.4byte	0x65
 793 0065 03       		.uleb128 0x3
 794 0066 04       		.byte	0x4
 795 0067 05       		.byte	0x5
 796 0068 A0000000 		.4byte	.LASF7
 797 006c 04       		.uleb128 0x4
 798 006d 3A030000 		.4byte	.LASF8
 799 0071 03       		.byte	0x3
 800 0072 50       		.byte	0x50
 801 0073 77000000 		.4byte	0x77
 802 0077 03       		.uleb128 0x3
 803 0078 04       		.byte	0x4
 804 0079 07       		.byte	0x7
 805 007a 0C010000 		.4byte	.LASF9
 806 007e 03       		.uleb128 0x3
 807 007f 08       		.byte	0x8
 808 0080 05       		.byte	0x5
 809 0081 64000000 		.4byte	.LASF10
 810 0085 04       		.uleb128 0x4
 811 0086 23000000 		.4byte	.LASF11
 812 008a 03       		.byte	0x3
 813 008b 78       		.byte	0x78
 814 008c 90000000 		.4byte	0x90
 815 0090 03       		.uleb128 0x3
 816 0091 08       		.byte	0x8
 817 0092 07       		.byte	0x7
ARM GAS  /tmp/cclBIhyK.s 			page 16


 818 0093 2C000000 		.4byte	.LASF12
 819 0097 04       		.uleb128 0x4
 820 0098 5C010000 		.4byte	.LASF13
 821 009c 04       		.byte	0x4
 822 009d 28       		.byte	0x28
 823 009e 3A000000 		.4byte	0x3a
 824 00a2 04       		.uleb128 0x4
 825 00a3 A9000000 		.4byte	.LASF14
 826 00a7 04       		.byte	0x4
 827 00a8 29       		.byte	0x29
 828 00a9 3A000000 		.4byte	0x3a
 829 00ad 04       		.uleb128 0x4
 830 00ae 3E020000 		.4byte	.LASF15
 831 00b2 04       		.byte	0x4
 832 00b3 2A       		.byte	0x2a
 833 00b4 3A000000 		.4byte	0x3a
 834 00b8 04       		.uleb128 0x4
 835 00b9 8E000000 		.4byte	.LASF16
 836 00bd 04       		.byte	0x4
 837 00be 2B       		.byte	0x2b
 838 00bf 3A000000 		.4byte	0x3a
 839 00c3 04       		.uleb128 0x4
 840 00c4 4D020000 		.4byte	.LASF17
 841 00c8 04       		.byte	0x4
 842 00c9 2C       		.byte	0x2c
 843 00ca 6C000000 		.4byte	0x6c
 844 00ce 04       		.uleb128 0x4
 845 00cf 39010000 		.4byte	.LASF18
 846 00d3 04       		.byte	0x4
 847 00d4 2D       		.byte	0x2d
 848 00d5 5A000000 		.4byte	0x5a
 849 00d9 04       		.uleb128 0x4
 850 00da 81010000 		.4byte	.LASF19
 851 00de 04       		.byte	0x4
 852 00df 2F       		.byte	0x2f
 853 00e0 6C000000 		.4byte	0x6c
 854 00e4 04       		.uleb128 0x4
 855 00e5 7B030000 		.4byte	.LASF20
 856 00e9 04       		.byte	0x4
 857 00ea 30       		.byte	0x30
 858 00eb 6C000000 		.4byte	0x6c
 859 00ef 04       		.uleb128 0x4
 860 00f0 12030000 		.4byte	.LASF21
 861 00f4 05       		.byte	0x5
 862 00f5 23       		.byte	0x23
 863 00f6 FA000000 		.4byte	0xfa
 864 00fa 05       		.uleb128 0x5
 865 00fb 12030000 		.4byte	.LASF21
 866 00ff 4C       		.byte	0x4c
 867 0100 06       		.byte	0x6
 868 0101 57       		.byte	0x57
 869 0102 2D020000 		.4byte	0x22d
 870 0106 06       		.uleb128 0x6
 871 0107 F6020000 		.4byte	.LASF22
 872 010b 06       		.byte	0x6
 873 010c 58       		.byte	0x58
 874 010d 52020000 		.4byte	0x252
ARM GAS  /tmp/cclBIhyK.s 			page 17


 875 0111 02       		.byte	0x2
 876 0112 23       		.byte	0x23
 877 0113 00       		.uleb128 0
 878 0114 06       		.uleb128 0x6
 879 0115 46020000 		.4byte	.LASF23
 880 0119 06       		.byte	0x6
 881 011a 5A       		.byte	0x5a
 882 011b 52020000 		.4byte	0x252
 883 011f 02       		.byte	0x2
 884 0120 23       		.byte	0x23
 885 0121 04       		.uleb128 0x4
 886 0122 06       		.uleb128 0x6
 887 0123 5D000000 		.4byte	.LASF24
 888 0127 06       		.byte	0x6
 889 0128 5C       		.byte	0x5c
 890 0129 C3000000 		.4byte	0xc3
 891 012d 02       		.byte	0x2
 892 012e 23       		.byte	0x23
 893 012f 08       		.uleb128 0x8
 894 0130 06       		.uleb128 0x6
 895 0131 2C040000 		.4byte	.LASF25
 896 0135 06       		.byte	0x6
 897 0136 5D       		.byte	0x5d
 898 0137 2B030000 		.4byte	0x32b
 899 013b 02       		.byte	0x2
 900 013c 23       		.byte	0x23
 901 013d 0C       		.uleb128 0xc
 902 013e 06       		.uleb128 0x6
 903 013f BD000000 		.4byte	.LASF26
 904 0143 06       		.byte	0x6
 905 0144 5F       		.byte	0x5f
 906 0145 52020000 		.4byte	0x252
 907 0149 02       		.byte	0x2
 908 014a 23       		.byte	0x23
 909 014b 10       		.uleb128 0x10
 910 014c 06       		.uleb128 0x6
 911 014d FC010000 		.4byte	.LASF27
 912 0151 06       		.byte	0x6
 913 0152 60       		.byte	0x60
 914 0153 52020000 		.4byte	0x252
 915 0157 02       		.byte	0x2
 916 0158 23       		.byte	0x23
 917 0159 14       		.uleb128 0x14
 918 015a 06       		.uleb128 0x6
 919 015b E7030000 		.4byte	.LASF28
 920 015f 06       		.byte	0x6
 921 0160 67       		.byte	0x67
 922 0161 65040000 		.4byte	0x465
 923 0165 02       		.byte	0x2
 924 0166 23       		.byte	0x23
 925 0167 18       		.uleb128 0x18
 926 0168 06       		.uleb128 0x6
 927 0169 F4000000 		.4byte	.LASF29
 928 016d 06       		.byte	0x6
 929 016e 6D       		.byte	0x6d
 930 016f 77040000 		.4byte	0x477
 931 0173 02       		.byte	0x2
ARM GAS  /tmp/cclBIhyK.s 			page 18


 932 0174 23       		.byte	0x23
 933 0175 1C       		.uleb128 0x1c
 934 0176 06       		.uleb128 0x6
 935 0177 D6020000 		.4byte	.LASF30
 936 017b 06       		.byte	0x6
 937 017c 72       		.byte	0x72
 938 017d A2000000 		.4byte	0xa2
 939 0181 02       		.byte	0x2
 940 0182 23       		.byte	0x23
 941 0183 20       		.uleb128 0x20
 942 0184 06       		.uleb128 0x6
 943 0185 FD020000 		.4byte	.LASF31
 944 0189 06       		.byte	0x6
 945 018a 76       		.byte	0x76
 946 018b 97000000 		.4byte	0x97
 947 018f 02       		.byte	0x2
 948 0190 23       		.byte	0x23
 949 0191 21       		.uleb128 0x21
 950 0192 06       		.uleb128 0x6
 951 0193 C1030000 		.4byte	.LASF32
 952 0197 06       		.byte	0x6
 953 0198 7B       		.byte	0x7b
 954 0199 AD000000 		.4byte	0xad
 955 019d 02       		.byte	0x2
 956 019e 23       		.byte	0x23
 957 019f 22       		.uleb128 0x22
 958 01a0 06       		.uleb128 0x6
 959 01a1 DE020000 		.4byte	.LASF33
 960 01a5 06       		.byte	0x6
 961 01a6 81       		.byte	0x81
 962 01a7 B8000000 		.4byte	0xb8
 963 01ab 02       		.byte	0x2
 964 01ac 23       		.byte	0x23
 965 01ad 23       		.uleb128 0x23
 966 01ae 06       		.uleb128 0x6
 967 01af 9B030000 		.4byte	.LASF34
 968 01b3 06       		.byte	0x6
 969 01b4 88       		.byte	0x88
 970 01b5 55030000 		.4byte	0x355
 971 01b9 02       		.byte	0x2
 972 01ba 23       		.byte	0x23
 973 01bb 24       		.uleb128 0x24
 974 01bc 07       		.uleb128 0x7
 975 01bd 705F7500 		.ascii	"p_u\000"
 976 01c1 06       		.byte	0x6
 977 01c2 AD       		.byte	0xad
 978 01c3 30040000 		.4byte	0x430
 979 01c7 02       		.byte	0x2
 980 01c8 23       		.byte	0x23
 981 01c9 28       		.uleb128 0x28
 982 01ca 06       		.uleb128 0x6
 983 01cb 32040000 		.4byte	.LASF35
 984 01cf 06       		.byte	0x6
 985 01d0 B2       		.byte	0xb2
 986 01d1 7A020000 		.4byte	0x27a
 987 01d5 02       		.byte	0x2
 988 01d6 23       		.byte	0x23
ARM GAS  /tmp/cclBIhyK.s 			page 19


 989 01d7 2C       		.uleb128 0x2c
 990 01d8 06       		.uleb128 0x6
 991 01d9 A9030000 		.4byte	.LASF36
 992 01dd 06       		.byte	0x6
 993 01de B8       		.byte	0xb8
 994 01df 58020000 		.4byte	0x258
 995 01e3 02       		.byte	0x2
 996 01e4 23       		.byte	0x23
 997 01e5 30       		.uleb128 0x30
 998 01e6 06       		.uleb128 0x6
 999 01e7 00000000 		.4byte	.LASF37
 1000 01eb 06       		.byte	0x6
 1001 01ec BC       		.byte	0xbc
 1002 01ed CE000000 		.4byte	0xce
 1003 01f1 02       		.byte	0x2
 1004 01f2 23       		.byte	0x23
 1005 01f3 38       		.uleb128 0x38
 1006 01f4 06       		.uleb128 0x6
 1007 01f5 2F030000 		.4byte	.LASF38
 1008 01f9 06       		.byte	0x6
 1009 01fa C2       		.byte	0xc2
 1010 01fb D9000000 		.4byte	0xd9
 1011 01ff 02       		.byte	0x2
 1012 0200 23       		.byte	0x23
 1013 0201 3C       		.uleb128 0x3c
 1014 0202 06       		.uleb128 0x6
 1015 0203 C2020000 		.4byte	.LASF39
 1016 0207 06       		.byte	0x6
 1017 0208 C9       		.byte	0xc9
 1018 0209 7D040000 		.4byte	0x47d
 1019 020d 02       		.byte	0x2
 1020 020e 23       		.byte	0x23
 1021 020f 40       		.uleb128 0x40
 1022 0210 06       		.uleb128 0x6
 1023 0211 85030000 		.4byte	.LASF40
 1024 0215 06       		.byte	0x6
 1025 0216 CD       		.byte	0xcd
 1026 0217 C3000000 		.4byte	0xc3
 1027 021b 02       		.byte	0x2
 1028 021c 23       		.byte	0x23
 1029 021d 44       		.uleb128 0x44
 1030 021e 06       		.uleb128 0x6
 1031 021f 7E000000 		.4byte	.LASF41
 1032 0223 06       		.byte	0x6
 1033 0224 D3       		.byte	0xd3
 1034 0225 90020000 		.4byte	0x290
 1035 0229 02       		.byte	0x2
 1036 022a 23       		.byte	0x23
 1037 022b 48       		.uleb128 0x48
 1038 022c 00       		.byte	0
 1039 022d 08       		.uleb128 0x8
 1040 022e 08       		.byte	0x8
 1041 022f 05       		.byte	0x5
 1042 0230 5A       		.byte	0x5a
 1043 0231 52020000 		.4byte	0x252
 1044 0235 06       		.uleb128 0x6
 1045 0236 F6020000 		.4byte	.LASF22
ARM GAS  /tmp/cclBIhyK.s 			page 20


 1046 023a 05       		.byte	0x5
 1047 023b 5B       		.byte	0x5b
 1048 023c 52020000 		.4byte	0x252
 1049 0240 02       		.byte	0x2
 1050 0241 23       		.byte	0x23
 1051 0242 00       		.uleb128 0
 1052 0243 06       		.uleb128 0x6
 1053 0244 46020000 		.4byte	.LASF23
 1054 0248 05       		.byte	0x5
 1055 0249 5D       		.byte	0x5d
 1056 024a 52020000 		.4byte	0x252
 1057 024e 02       		.byte	0x2
 1058 024f 23       		.byte	0x23
 1059 0250 04       		.uleb128 0x4
 1060 0251 00       		.byte	0
 1061 0252 09       		.uleb128 0x9
 1062 0253 04       		.byte	0x4
 1063 0254 EF000000 		.4byte	0xef
 1064 0258 04       		.uleb128 0x4
 1065 0259 0A020000 		.4byte	.LASF42
 1066 025d 05       		.byte	0x5
 1067 025e 5F       		.byte	0x5f
 1068 025f 2D020000 		.4byte	0x22d
 1069 0263 08       		.uleb128 0x8
 1070 0264 04       		.byte	0x4
 1071 0265 05       		.byte	0x5
 1072 0266 64       		.byte	0x64
 1073 0267 7A020000 		.4byte	0x27a
 1074 026b 06       		.uleb128 0x6
 1075 026c F6020000 		.4byte	.LASF22
 1076 0270 05       		.byte	0x5
 1077 0271 66       		.byte	0x66
 1078 0272 52020000 		.4byte	0x252
 1079 0276 02       		.byte	0x2
 1080 0277 23       		.byte	0x23
 1081 0278 00       		.uleb128 0
 1082 0279 00       		.byte	0
 1083 027a 04       		.uleb128 0x4
 1084 027b 75010000 		.4byte	.LASF43
 1085 027f 05       		.byte	0x5
 1086 0280 69       		.byte	0x69
 1087 0281 63020000 		.4byte	0x263
 1088 0285 04       		.uleb128 0x4
 1089 0286 DE000000 		.4byte	.LASF44
 1090 028a 07       		.byte	0x7
 1091 028b DE       		.byte	0xde
 1092 028c 90020000 		.4byte	0x290
 1093 0290 0A       		.uleb128 0xa
 1094 0291 04       		.byte	0x4
 1095 0292 04       		.uleb128 0x4
 1096 0293 93010000 		.4byte	.LASF45
 1097 0297 07       		.byte	0x7
 1098 0298 E4       		.byte	0xe4
 1099 0299 85000000 		.4byte	0x85
 1100 029d 0B       		.uleb128 0xb
 1101 029e A2030000 		.4byte	.LASF46
 1102 02a2 24       		.byte	0x24
ARM GAS  /tmp/cclBIhyK.s 			page 21


 1103 02a3 07       		.byte	0x7
 1104 02a4 0501     		.2byte	0x105
 1105 02a6 2B030000 		.4byte	0x32b
 1106 02aa 0C       		.uleb128 0xc
 1107 02ab 723400   		.ascii	"r4\000"
 1108 02ae 07       		.byte	0x7
 1109 02af 1801     		.2byte	0x118
 1110 02b1 85020000 		.4byte	0x285
 1111 02b5 02       		.byte	0x2
 1112 02b6 23       		.byte	0x23
 1113 02b7 00       		.uleb128 0
 1114 02b8 0C       		.uleb128 0xc
 1115 02b9 723500   		.ascii	"r5\000"
 1116 02bc 07       		.byte	0x7
 1117 02bd 1901     		.2byte	0x119
 1118 02bf 85020000 		.4byte	0x285
 1119 02c3 02       		.byte	0x2
 1120 02c4 23       		.byte	0x23
 1121 02c5 04       		.uleb128 0x4
 1122 02c6 0C       		.uleb128 0xc
 1123 02c7 723600   		.ascii	"r6\000"
 1124 02ca 07       		.byte	0x7
 1125 02cb 1A01     		.2byte	0x11a
 1126 02cd 85020000 		.4byte	0x285
 1127 02d1 02       		.byte	0x2
 1128 02d2 23       		.byte	0x23
 1129 02d3 08       		.uleb128 0x8
 1130 02d4 0C       		.uleb128 0xc
 1131 02d5 723700   		.ascii	"r7\000"
 1132 02d8 07       		.byte	0x7
 1133 02d9 1B01     		.2byte	0x11b
 1134 02db 85020000 		.4byte	0x285
 1135 02df 02       		.byte	0x2
 1136 02e0 23       		.byte	0x23
 1137 02e1 0C       		.uleb128 0xc
 1138 02e2 0C       		.uleb128 0xc
 1139 02e3 723800   		.ascii	"r8\000"
 1140 02e6 07       		.byte	0x7
 1141 02e7 1C01     		.2byte	0x11c
 1142 02e9 85020000 		.4byte	0x285
 1143 02ed 02       		.byte	0x2
 1144 02ee 23       		.byte	0x23
 1145 02ef 10       		.uleb128 0x10
 1146 02f0 0C       		.uleb128 0xc
 1147 02f1 723900   		.ascii	"r9\000"
 1148 02f4 07       		.byte	0x7
 1149 02f5 1D01     		.2byte	0x11d
 1150 02f7 85020000 		.4byte	0x285
 1151 02fb 02       		.byte	0x2
 1152 02fc 23       		.byte	0x23
 1153 02fd 14       		.uleb128 0x14
 1154 02fe 0C       		.uleb128 0xc
 1155 02ff 72313000 		.ascii	"r10\000"
 1156 0303 07       		.byte	0x7
 1157 0304 1E01     		.2byte	0x11e
 1158 0306 85020000 		.4byte	0x285
 1159 030a 02       		.byte	0x2
ARM GAS  /tmp/cclBIhyK.s 			page 22


 1160 030b 23       		.byte	0x23
 1161 030c 18       		.uleb128 0x18
 1162 030d 0C       		.uleb128 0xc
 1163 030e 72313100 		.ascii	"r11\000"
 1164 0312 07       		.byte	0x7
 1165 0313 1F01     		.2byte	0x11f
 1166 0315 85020000 		.4byte	0x285
 1167 0319 02       		.byte	0x2
 1168 031a 23       		.byte	0x23
 1169 031b 1C       		.uleb128 0x1c
 1170 031c 0C       		.uleb128 0xc
 1171 031d 6C7200   		.ascii	"lr\000"
 1172 0320 07       		.byte	0x7
 1173 0321 2001     		.2byte	0x120
 1174 0323 85020000 		.4byte	0x285
 1175 0327 02       		.byte	0x2
 1176 0328 23       		.byte	0x23
 1177 0329 20       		.uleb128 0x20
 1178 032a 00       		.byte	0
 1179 032b 0B       		.uleb128 0xb
 1180 032c 1E010000 		.4byte	.LASF47
 1181 0330 04       		.byte	0x4
 1182 0331 07       		.byte	0x7
 1183 0332 2A01     		.2byte	0x12a
 1184 0334 48030000 		.4byte	0x348
 1185 0338 0C       		.uleb128 0xc
 1186 0339 72313300 		.ascii	"r13\000"
 1187 033d 07       		.byte	0x7
 1188 033e 2B01     		.2byte	0x12b
 1189 0340 48030000 		.4byte	0x348
 1190 0344 02       		.byte	0x2
 1191 0345 23       		.byte	0x23
 1192 0346 00       		.uleb128 0
 1193 0347 00       		.byte	0
 1194 0348 09       		.uleb128 0x9
 1195 0349 04       		.byte	0x4
 1196 034a 9D020000 		.4byte	0x29d
 1197 034e 03       		.uleb128 0x3
 1198 034f 04       		.byte	0x4
 1199 0350 07       		.byte	0x7
 1200 0351 E0010000 		.4byte	.LASF48
 1201 0355 0D       		.uleb128 0xd
 1202 0356 E4000000 		.4byte	0xe4
 1203 035a 08       		.uleb128 0x8
 1204 035b 1C       		.byte	0x1c
 1205 035c 08       		.byte	0x8
 1206 035d 57       		.byte	0x57
 1207 035e B7030000 		.4byte	0x3b7
 1208 0362 06       		.uleb128 0x6
 1209 0363 43030000 		.4byte	.LASF49
 1210 0367 08       		.byte	0x8
 1211 0368 58       		.byte	0x58
 1212 0369 58020000 		.4byte	0x258
 1213 036d 02       		.byte	0x2
 1214 036e 23       		.byte	0x23
 1215 036f 00       		.uleb128 0
 1216 0370 06       		.uleb128 0x6
ARM GAS  /tmp/cclBIhyK.s 			page 23


 1217 0371 E8020000 		.4byte	.LASF50
 1218 0375 08       		.byte	0x8
 1219 0376 59       		.byte	0x59
 1220 0377 C3000000 		.4byte	0xc3
 1221 037b 02       		.byte	0x2
 1222 037c 23       		.byte	0x23
 1223 037d 08       		.uleb128 0x8
 1224 037e 06       		.uleb128 0x6
 1225 037f 04020000 		.4byte	.LASF51
 1226 0383 08       		.byte	0x8
 1227 0384 5B       		.byte	0x5b
 1228 0385 2B030000 		.4byte	0x32b
 1229 0389 02       		.byte	0x2
 1230 038a 23       		.byte	0x23
 1231 038b 0C       		.uleb128 0xc
 1232 038c 06       		.uleb128 0x6
 1233 038d D6000000 		.4byte	.LASF52
 1234 0391 08       		.byte	0x8
 1235 0392 5E       		.byte	0x5e
 1236 0393 52020000 		.4byte	0x252
 1237 0397 02       		.byte	0x2
 1238 0398 23       		.byte	0x23
 1239 0399 10       		.uleb128 0x10
 1240 039a 06       		.uleb128 0x6
 1241 039b 26020000 		.4byte	.LASF53
 1242 039f 08       		.byte	0x8
 1243 03a0 5F       		.byte	0x5f
 1244 03a1 52020000 		.4byte	0x252
 1245 03a5 02       		.byte	0x2
 1246 03a6 23       		.byte	0x23
 1247 03a7 14       		.uleb128 0x14
 1248 03a8 06       		.uleb128 0x6
 1249 03a9 1C020000 		.4byte	.LASF54
 1250 03ad 08       		.byte	0x8
 1251 03ae 62       		.byte	0x62
 1252 03af 52020000 		.4byte	0x252
 1253 03b3 02       		.byte	0x2
 1254 03b4 23       		.byte	0x23
 1255 03b5 18       		.uleb128 0x18
 1256 03b6 00       		.byte	0
 1257 03b7 04       		.uleb128 0x4
 1258 03b8 C8030000 		.4byte	.LASF55
 1259 03bc 08       		.byte	0x8
 1260 03bd 64       		.byte	0x64
 1261 03be 5A030000 		.4byte	0x35a
 1262 03c2 05       		.uleb128 0x5
 1263 03c3 8D010000 		.4byte	.LASF56
 1264 03c7 10       		.byte	0x10
 1265 03c8 09       		.byte	0x9
 1266 03c9 25       		.byte	0x25
 1267 03ca F9030000 		.4byte	0x3f9
 1268 03ce 06       		.uleb128 0x6
 1269 03cf 86000000 		.4byte	.LASF57
 1270 03d3 09       		.byte	0x9
 1271 03d4 26       		.byte	0x26
 1272 03d5 58020000 		.4byte	0x258
 1273 03d9 02       		.byte	0x2
ARM GAS  /tmp/cclBIhyK.s 			page 24


 1274 03da 23       		.byte	0x23
 1275 03db 00       		.uleb128 0
 1276 03dc 06       		.uleb128 0x6
 1277 03dd 15040000 		.4byte	.LASF58
 1278 03e1 09       		.byte	0x9
 1279 03e2 28       		.byte	0x28
 1280 03e3 52020000 		.4byte	0x252
 1281 03e7 02       		.byte	0x2
 1282 03e8 23       		.byte	0x23
 1283 03e9 08       		.uleb128 0x8
 1284 03ea 06       		.uleb128 0x6
 1285 03eb 74030000 		.4byte	.LASF59
 1286 03ef 09       		.byte	0x9
 1287 03f0 2A       		.byte	0x2a
 1288 03f1 F9030000 		.4byte	0x3f9
 1289 03f5 02       		.byte	0x2
 1290 03f6 23       		.byte	0x23
 1291 03f7 0C       		.uleb128 0xc
 1292 03f8 00       		.byte	0
 1293 03f9 09       		.uleb128 0x9
 1294 03fa 04       		.byte	0x4
 1295 03fb C2030000 		.4byte	0x3c2
 1296 03ff 04       		.uleb128 0x4
 1297 0400 8D010000 		.4byte	.LASF56
 1298 0404 09       		.byte	0x9
 1299 0405 2C       		.byte	0x2c
 1300 0406 C2030000 		.4byte	0x3c2
 1301 040a 05       		.uleb128 0x5
 1302 040b 98000000 		.4byte	.LASF60
 1303 040f 08       		.byte	0x8
 1304 0410 0A       		.byte	0xa
 1305 0411 2F       		.byte	0x2f
 1306 0412 25040000 		.4byte	0x425
 1307 0416 06       		.uleb128 0x6
 1308 0417 19030000 		.4byte	.LASF61
 1309 041b 0A       		.byte	0xa
 1310 041c 30       		.byte	0x30
 1311 041d 58020000 		.4byte	0x258
 1312 0421 02       		.byte	0x2
 1313 0422 23       		.byte	0x23
 1314 0423 00       		.uleb128 0
 1315 0424 00       		.byte	0
 1316 0425 04       		.uleb128 0x4
 1317 0426 98000000 		.4byte	.LASF60
 1318 042a 0A       		.byte	0xa
 1319 042b 31       		.byte	0x31
 1320 042c 0A040000 		.4byte	0x40a
 1321 0430 0E       		.uleb128 0xe
 1322 0431 04       		.byte	0x4
 1323 0432 06       		.byte	0x6
 1324 0433 8F       		.byte	0x8f
 1325 0434 65040000 		.4byte	0x465
 1326 0438 0F       		.uleb128 0xf
 1327 0439 1C000000 		.4byte	.LASF62
 1328 043d 06       		.byte	0x6
 1329 043e 96       		.byte	0x96
 1330 043f CE000000 		.4byte	0xce
ARM GAS  /tmp/cclBIhyK.s 			page 25


 1331 0443 0F       		.uleb128 0xf
 1332 0444 43000000 		.4byte	.LASF63
 1333 0448 06       		.byte	0x6
 1334 0449 9D       		.byte	0x9d
 1335 044a CE000000 		.4byte	0xce
 1336 044e 0F       		.uleb128 0xf
 1337 044f E0030000 		.4byte	.LASF64
 1338 0453 06       		.byte	0x6
 1339 0454 A4       		.byte	0xa4
 1340 0455 90020000 		.4byte	0x290
 1341 0459 0F       		.uleb128 0xf
 1342 045a EF020000 		.4byte	.LASF65
 1343 045e 06       		.byte	0x6
 1344 045f AB       		.byte	0xab
 1345 0460 D9000000 		.4byte	0xd9
 1346 0464 00       		.byte	0
 1347 0465 09       		.uleb128 0x9
 1348 0466 04       		.byte	0x4
 1349 0467 6B040000 		.4byte	0x46b
 1350 046b 10       		.uleb128 0x10
 1351 046c 70040000 		.4byte	0x470
 1352 0470 03       		.uleb128 0x3
 1353 0471 01       		.byte	0x1
 1354 0472 08       		.byte	0x8
 1355 0473 57030000 		.4byte	.LASF66
 1356 0477 09       		.uleb128 0x9
 1357 0478 04       		.byte	0x4
 1358 0479 92020000 		.4byte	0x292
 1359 047d 09       		.uleb128 0x9
 1360 047e 04       		.byte	0x4
 1361 047f FF030000 		.4byte	0x3ff
 1362 0483 11       		.uleb128 0x11
 1363 0484 5C030000 		.4byte	.LASF89
 1364 0488 02       		.byte	0x2
 1365 0489 34       		.byte	0x34
 1366 048a 01       		.byte	0x1
 1367 048b 52020000 		.4byte	0x252
 1368 048f 03       		.byte	0x3
 1369 0490 AA040000 		.4byte	0x4aa
 1370 0494 12       		.uleb128 0x12
 1371 0495 74717000 		.ascii	"tqp\000"
 1372 0499 02       		.byte	0x2
 1373 049a 34       		.byte	0x34
 1374 049b AA040000 		.4byte	0x4aa
 1375 049f 13       		.uleb128 0x13
 1376 04a0 747000   		.ascii	"tp\000"
 1377 04a3 02       		.byte	0x2
 1378 04a4 35       		.byte	0x35
 1379 04a5 52020000 		.4byte	0x252
 1380 04a9 00       		.byte	0
 1381 04aa 09       		.uleb128 0x9
 1382 04ab 04       		.byte	0x4
 1383 04ac 58020000 		.4byte	0x258
 1384 04b0 14       		.uleb128 0x14
 1385 04b1 3F010000 		.4byte	.LASF90
 1386 04b5 02       		.byte	0x2
 1387 04b6 22       		.byte	0x22
ARM GAS  /tmp/cclBIhyK.s 			page 26


 1388 04b7 01       		.byte	0x1
 1389 04b8 03       		.byte	0x3
 1390 04b9 DD040000 		.4byte	0x4dd
 1391 04bd 12       		.uleb128 0x12
 1392 04be 747000   		.ascii	"tp\000"
 1393 04c1 02       		.byte	0x2
 1394 04c2 22       		.byte	0x22
 1395 04c3 52020000 		.4byte	0x252
 1396 04c7 12       		.uleb128 0x12
 1397 04c8 74717000 		.ascii	"tqp\000"
 1398 04cc 02       		.byte	0x2
 1399 04cd 22       		.byte	0x22
 1400 04ce AA040000 		.4byte	0x4aa
 1401 04d2 13       		.uleb128 0x13
 1402 04d3 637000   		.ascii	"cp\000"
 1403 04d6 02       		.byte	0x2
 1404 04d7 24       		.byte	0x24
 1405 04d8 52020000 		.4byte	0x252
 1406 04dc 00       		.byte	0
 1407 04dd 15       		.uleb128 0x15
 1408 04de 01       		.byte	0x1
 1409 04df 11000000 		.4byte	.LASF67
 1410 04e3 01       		.byte	0x1
 1411 04e4 34       		.byte	0x34
 1412 04e5 01       		.byte	0x1
 1413 04e6 00000000 		.4byte	.LFB7
 1414 04ea 18000000 		.4byte	.LFE7
 1415 04ee 00000000 		.4byte	.LLST0
 1416 04f2 01       		.byte	0x1
 1417 04f3 19050000 		.4byte	0x519
 1418 04f7 16       		.uleb128 0x16
 1419 04f8 637000   		.ascii	"cp\000"
 1420 04fb 01       		.byte	0x1
 1421 04fc 34       		.byte	0x34
 1422 04fd 19050000 		.4byte	0x519
 1423 0501 20000000 		.4byte	.LLST1
 1424 0505 17       		.uleb128 0x17
 1425 0506 12000000 		.4byte	.LVL4
 1426 050a B80A0000 		.4byte	0xab8
 1427 050e 18       		.uleb128 0x18
 1428 050f 01       		.byte	0x1
 1429 0510 50       		.byte	0x50
 1430 0511 05       		.byte	0x5
 1431 0512 03       		.byte	0x3
 1432 0513 00000000 		.4byte	.LC0
 1433 0517 00       		.byte	0
 1434 0518 00       		.byte	0
 1435 0519 09       		.uleb128 0x9
 1436 051a 04       		.byte	0x4
 1437 051b 25040000 		.4byte	0x425
 1438 051f 15       		.uleb128 0x15
 1439 0520 01       		.byte	0x1
 1440 0521 E7000000 		.4byte	.LASF68
 1441 0525 01       		.byte	0x1
 1442 0526 42       		.byte	0x42
 1443 0527 01       		.byte	0x1
 1444 0528 00000000 		.4byte	.LFB8
ARM GAS  /tmp/cclBIhyK.s 			page 27


 1445 052c 3C000000 		.4byte	.LFE8
 1446 0530 54000000 		.4byte	.LLST2
 1447 0534 01       		.byte	0x1
 1448 0535 E6050000 		.4byte	0x5e6
 1449 0539 16       		.uleb128 0x16
 1450 053a 637000   		.ascii	"cp\000"
 1451 053d 01       		.byte	0x1
 1452 053e 42       		.byte	0x42
 1453 053f 19050000 		.4byte	0x519
 1454 0543 74000000 		.4byte	.LLST3
 1455 0547 19       		.uleb128 0x19
 1456 0548 06000000 		.4byte	.LBB14
 1457 054c 0C000000 		.4byte	.LBE14
 1458 0550 64050000 		.4byte	0x564
 1459 0554 1A       		.uleb128 0x1a
 1460 0555 746D7000 		.ascii	"tmp\000"
 1461 0559 01       		.byte	0x1
 1462 055a 46       		.byte	0x46
 1463 055b 6C000000 		.4byte	0x6c
 1464 055f A8000000 		.4byte	.LLST4
 1465 0563 00       		.byte	0
 1466 0564 1B       		.uleb128 0x1b
 1467 0565 83040000 		.4byte	0x483
 1468 0569 16000000 		.4byte	.LBB15
 1469 056d 00000000 		.4byte	.Ldebug_ranges0+0
 1470 0571 01       		.byte	0x1
 1471 0572 48       		.byte	0x48
 1472 0573 90050000 		.4byte	0x590
 1473 0577 1C       		.uleb128 0x1c
 1474 0578 94040000 		.4byte	0x494
 1475 057c BB000000 		.4byte	.LLST5
 1476 0580 1D       		.uleb128 0x1d
 1477 0581 18000000 		.4byte	.Ldebug_ranges0+0x18
 1478 0585 1E       		.uleb128 0x1e
 1479 0586 9F040000 		.4byte	0x49f
 1480 058a CE000000 		.4byte	.LLST6
 1481 058e 00       		.byte	0
 1482 058f 00       		.byte	0
 1483 0590 19       		.uleb128 0x19
 1484 0591 26000000 		.4byte	.LBB19
 1485 0595 2E000000 		.4byte	.LBE19
 1486 0599 AD050000 		.4byte	0x5ad
 1487 059d 1A       		.uleb128 0x1a
 1488 059e 746D7000 		.ascii	"tmp\000"
 1489 05a2 01       		.byte	0x1
 1490 05a3 49       		.byte	0x49
 1491 05a4 6C000000 		.4byte	0x6c
 1492 05a8 E1000000 		.4byte	.LLST7
 1493 05ac 00       		.byte	0
 1494 05ad 1F       		.uleb128 0x1f
 1495 05ae 10000000 		.4byte	.LVL9
 1496 05b2 CC0A0000 		.4byte	0xacc
 1497 05b6 20       		.uleb128 0x20
 1498 05b7 22000000 		.4byte	.LVL11
 1499 05bb D60A0000 		.4byte	0xad6
 1500 05bf C9050000 		.4byte	0x5c9
 1501 05c3 18       		.uleb128 0x18
ARM GAS  /tmp/cclBIhyK.s 			page 28


 1502 05c4 01       		.byte	0x1
 1503 05c5 51       		.byte	0x51
 1504 05c6 01       		.byte	0x1
 1505 05c7 30       		.byte	0x30
 1506 05c8 00       		.byte	0
 1507 05c9 1F       		.uleb128 0x1f
 1508 05ca 26000000 		.4byte	.LVL12
 1509 05ce EF0A0000 		.4byte	0xaef
 1510 05d2 17       		.uleb128 0x17
 1511 05d3 34000000 		.4byte	.LVL17
 1512 05d7 B80A0000 		.4byte	0xab8
 1513 05db 18       		.uleb128 0x18
 1514 05dc 01       		.byte	0x1
 1515 05dd 50       		.byte	0x50
 1516 05de 05       		.byte	0x5
 1517 05df 03       		.byte	0x3
 1518 05e0 10000000 		.4byte	.LC1
 1519 05e4 00       		.byte	0
 1520 05e5 00       		.byte	0
 1521 05e6 15       		.uleb128 0x15
 1522 05e7 01       		.byte	0x1
 1523 05e8 9E020000 		.4byte	.LASF69
 1524 05ec 01       		.byte	0x1
 1525 05ed 57       		.byte	0x57
 1526 05ee 01       		.byte	0x1
 1527 05ef 00000000 		.4byte	.LFB9
 1528 05f3 2C000000 		.4byte	.LFE9
 1529 05f7 F4000000 		.4byte	.LLST8
 1530 05fb 01       		.byte	0x1
 1531 05fc 64060000 		.4byte	0x664
 1532 0600 16       		.uleb128 0x16
 1533 0601 637000   		.ascii	"cp\000"
 1534 0604 01       		.byte	0x1
 1535 0605 57       		.byte	0x57
 1536 0606 19050000 		.4byte	0x519
 1537 060a 14010000 		.4byte	.LLST9
 1538 060e 21       		.uleb128 0x21
 1539 060f 83040000 		.4byte	0x483
 1540 0613 10000000 		.4byte	.LBB20
 1541 0617 16000000 		.4byte	.LBE20
 1542 061b 01       		.byte	0x1
 1543 061c 5D       		.byte	0x5d
 1544 061d 3E060000 		.4byte	0x63e
 1545 0621 1C       		.uleb128 0x1c
 1546 0622 94040000 		.4byte	0x494
 1547 0626 32010000 		.4byte	.LLST10
 1548 062a 22       		.uleb128 0x22
 1549 062b 10000000 		.4byte	.LBB21
 1550 062f 16000000 		.4byte	.LBE21
 1551 0633 1E       		.uleb128 0x1e
 1552 0634 9F040000 		.4byte	0x49f
 1553 0638 45010000 		.4byte	.LLST11
 1554 063c 00       		.byte	0
 1555 063d 00       		.byte	0
 1556 063e 1F       		.uleb128 0x1f
 1557 063f 08000000 		.4byte	.LVL19
 1558 0643 F90A0000 		.4byte	0xaf9
ARM GAS  /tmp/cclBIhyK.s 			page 29


 1559 0647 1F       		.uleb128 0x1f
 1560 0648 1A000000 		.4byte	.LVL21
 1561 064c 030B0000 		.4byte	0xb03
 1562 0650 17       		.uleb128 0x17
 1563 0651 26000000 		.4byte	.LVL23
 1564 0655 B80A0000 		.4byte	0xab8
 1565 0659 18       		.uleb128 0x18
 1566 065a 01       		.byte	0x1
 1567 065b 50       		.byte	0x50
 1568 065c 05       		.byte	0x5
 1569 065d 03       		.byte	0x3
 1570 065e 24000000 		.4byte	.LC2
 1571 0662 00       		.byte	0
 1572 0663 00       		.byte	0
 1573 0664 15       		.uleb128 0x15
 1574 0665 01       		.byte	0x1
 1575 0666 4C000000 		.4byte	.LASF70
 1576 066a 01       		.byte	0x1
 1577 066b 7A       		.byte	0x7a
 1578 066c 01       		.byte	0x1
 1579 066d 00000000 		.4byte	.LFB11
 1580 0671 34000000 		.4byte	.LFE11
 1581 0675 58010000 		.4byte	.LLST12
 1582 0679 01       		.byte	0x1
 1583 067a E2060000 		.4byte	0x6e2
 1584 067e 16       		.uleb128 0x16
 1585 067f 637000   		.ascii	"cp\000"
 1586 0682 01       		.byte	0x1
 1587 0683 7A       		.byte	0x7a
 1588 0684 19050000 		.4byte	0x519
 1589 0688 78010000 		.4byte	.LLST13
 1590 068c 21       		.uleb128 0x21
 1591 068d 83040000 		.4byte	0x483
 1592 0691 14000000 		.4byte	.LBB22
 1593 0695 1A000000 		.4byte	.LBE22
 1594 0699 01       		.byte	0x1
 1595 069a 83       		.byte	0x83
 1596 069b BC060000 		.4byte	0x6bc
 1597 069f 1C       		.uleb128 0x1c
 1598 06a0 94040000 		.4byte	0x494
 1599 06a4 96010000 		.4byte	.LLST14
 1600 06a8 22       		.uleb128 0x22
 1601 06a9 14000000 		.4byte	.LBB23
 1602 06ad 1A000000 		.4byte	.LBE23
 1603 06b1 1E       		.uleb128 0x1e
 1604 06b2 9F040000 		.4byte	0x49f
 1605 06b6 A9010000 		.4byte	.LLST15
 1606 06ba 00       		.byte	0
 1607 06bb 00       		.byte	0
 1608 06bc 1F       		.uleb128 0x1f
 1609 06bd 08000000 		.4byte	.LVL25
 1610 06c1 F90A0000 		.4byte	0xaf9
 1611 06c5 1F       		.uleb128 0x1f
 1612 06c6 1E000000 		.4byte	.LVL27
 1613 06ca 030B0000 		.4byte	0xb03
 1614 06ce 17       		.uleb128 0x17
 1615 06cf 2E000000 		.4byte	.LVL29
ARM GAS  /tmp/cclBIhyK.s 			page 30


 1616 06d3 B80A0000 		.4byte	0xab8
 1617 06d7 18       		.uleb128 0x18
 1618 06d8 01       		.byte	0x1
 1619 06d9 50       		.byte	0x50
 1620 06da 05       		.byte	0x5
 1621 06db 03       		.byte	0x3
 1622 06dc 38000000 		.4byte	.LC3
 1623 06e0 00       		.byte	0
 1624 06e1 00       		.byte	0
 1625 06e2 15       		.uleb128 0x15
 1626 06e3 01       		.byte	0x1
 1627 06e4 2E020000 		.4byte	.LASF71
 1628 06e8 01       		.byte	0x1
 1629 06e9 67       		.byte	0x67
 1630 06ea 01       		.byte	0x1
 1631 06eb 00000000 		.4byte	.LFB10
 1632 06ef 24000000 		.4byte	.LFE10
 1633 06f3 BC010000 		.4byte	.LLST16
 1634 06f7 01       		.byte	0x1
 1635 06f8 70070000 		.4byte	0x770
 1636 06fc 16       		.uleb128 0x16
 1637 06fd 637000   		.ascii	"cp\000"
 1638 0700 01       		.byte	0x1
 1639 0701 67       		.byte	0x67
 1640 0702 19050000 		.4byte	0x519
 1641 0706 DC010000 		.4byte	.LLST17
 1642 070a 23       		.uleb128 0x23
 1643 070b 30000000 		.4byte	.Ldebug_ranges0+0x30
 1644 070f 23070000 		.4byte	0x723
 1645 0713 1A       		.uleb128 0x1a
 1646 0714 746D7000 		.ascii	"tmp\000"
 1647 0718 01       		.byte	0x1
 1648 0719 69       		.byte	0x69
 1649 071a 6C000000 		.4byte	0x6c
 1650 071e FA010000 		.4byte	.LLST18
 1651 0722 00       		.byte	0
 1652 0723 19       		.uleb128 0x19
 1653 0724 1C000000 		.4byte	.LBB26
 1654 0728 24000000 		.4byte	.LBE26
 1655 072c 40070000 		.4byte	0x740
 1656 0730 1A       		.uleb128 0x1a
 1657 0731 746D7000 		.ascii	"tmp\000"
 1658 0735 01       		.byte	0x1
 1659 0736 6C       		.byte	0x6c
 1660 0737 6C000000 		.4byte	0x6c
 1661 073b 0D020000 		.4byte	.LLST19
 1662 073f 00       		.byte	0
 1663 0740 1F       		.uleb128 0x1f
 1664 0741 0E000000 		.4byte	.LVL33
 1665 0745 CC0A0000 		.4byte	0xacc
 1666 0749 20       		.uleb128 0x20
 1667 074a 14000000 		.4byte	.LVL34
 1668 074e 64060000 		.4byte	0x664
 1669 0752 5D070000 		.4byte	0x75d
 1670 0756 18       		.uleb128 0x18
 1671 0757 01       		.byte	0x1
 1672 0758 50       		.byte	0x50
ARM GAS  /tmp/cclBIhyK.s 			page 31


 1673 0759 02       		.byte	0x2
 1674 075a 74       		.byte	0x74
 1675 075b 00       		.sleb128 0
 1676 075c 00       		.byte	0
 1677 075d 1F       		.uleb128 0x1f
 1678 075e 18000000 		.4byte	.LVL35
 1679 0762 1B0B0000 		.4byte	0xb1b
 1680 0766 1F       		.uleb128 0x1f
 1681 0767 1C000000 		.4byte	.LVL36
 1682 076b EF0A0000 		.4byte	0xaef
 1683 076f 00       		.byte	0
 1684 0770 24       		.uleb128 0x24
 1685 0771 01       		.byte	0x1
 1686 0772 68030000 		.4byte	.LASF72
 1687 0776 01       		.byte	0x1
 1688 0777 B1       		.byte	0xb1
 1689 0778 01       		.byte	0x1
 1690 0779 CE000000 		.4byte	0xce
 1691 077d 00000000 		.4byte	.LFB13
 1692 0781 6C000000 		.4byte	.LFE13
 1693 0785 20020000 		.4byte	.LLST20
 1694 0789 01       		.byte	0x1
 1695 078a 61080000 		.4byte	0x861
 1696 078e 16       		.uleb128 0x16
 1697 078f 637000   		.ascii	"cp\000"
 1698 0792 01       		.byte	0x1
 1699 0793 B1       		.byte	0xb1
 1700 0794 19050000 		.4byte	0x519
 1701 0798 40020000 		.4byte	.LLST21
 1702 079c 1A       		.uleb128 0x1a
 1703 079d 63747000 		.ascii	"ctp\000"
 1704 07a1 01       		.byte	0x1
 1705 07a2 B2       		.byte	0xb2
 1706 07a3 52020000 		.4byte	0x252
 1707 07a7 5E020000 		.4byte	.LLST22
 1708 07ab 1A       		.uleb128 0x1a
 1709 07ac 6D7000   		.ascii	"mp\000"
 1710 07af 01       		.byte	0x1
 1711 07b0 B3       		.byte	0xb3
 1712 07b1 7D040000 		.4byte	0x47d
 1713 07b5 7C020000 		.4byte	.LLST23
 1714 07b9 1A       		.uleb128 0x1a
 1715 07ba 6D736700 		.ascii	"msg\000"
 1716 07be 01       		.byte	0x1
 1717 07bf B4       		.byte	0xb4
 1718 07c0 CE000000 		.4byte	0xce
 1719 07c4 A5020000 		.4byte	.LLST24
 1720 07c8 1B       		.uleb128 0x1b
 1721 07c9 B0040000 		.4byte	0x4b0
 1722 07cd 20000000 		.4byte	.LBB27
 1723 07d1 48000000 		.4byte	.Ldebug_ranges0+0x48
 1724 07d5 01       		.byte	0x1
 1725 07d6 BE       		.byte	0xbe
 1726 07d7 FD070000 		.4byte	0x7fd
 1727 07db 1C       		.uleb128 0x1c
 1728 07dc C7040000 		.4byte	0x4c7
 1729 07e0 B8020000 		.4byte	.LLST25
ARM GAS  /tmp/cclBIhyK.s 			page 32


 1730 07e4 1C       		.uleb128 0x1c
 1731 07e5 BD040000 		.4byte	0x4bd
 1732 07e9 D6020000 		.4byte	.LLST26
 1733 07ed 1D       		.uleb128 0x1d
 1734 07ee 60000000 		.4byte	.Ldebug_ranges0+0x60
 1735 07f2 1E       		.uleb128 0x1e
 1736 07f3 D2040000 		.4byte	0x4d2
 1737 07f7 F4020000 		.4byte	.LLST27
 1738 07fb 00       		.byte	0
 1739 07fc 00       		.byte	0
 1740 07fd 1F       		.uleb128 0x1f
 1741 07fe 0C000000 		.4byte	.LVL41
 1742 0802 250B0000 		.4byte	0xb25
 1743 0806 1F       		.uleb128 0x1f
 1744 0807 16000000 		.4byte	.LVL42
 1745 080b 2F0B0000 		.4byte	0xb2f
 1746 080f 20       		.uleb128 0x20
 1747 0810 3E000000 		.4byte	.LVL47
 1748 0814 3D0B0000 		.4byte	0xb3d
 1749 0818 22080000 		.4byte	0x822
 1750 081c 18       		.uleb128 0x18
 1751 081d 01       		.byte	0x1
 1752 081e 50       		.byte	0x50
 1753 081f 01       		.byte	0x1
 1754 0820 35       		.byte	0x35
 1755 0821 00       		.byte	0
 1756 0822 20       		.uleb128 0x20
 1757 0823 46000000 		.4byte	.LVL49
 1758 0827 510B0000 		.4byte	0xb51
 1759 082b 36080000 		.4byte	0x836
 1760 082f 18       		.uleb128 0x18
 1761 0830 01       		.byte	0x1
 1762 0831 50       		.byte	0x50
 1763 0832 02       		.byte	0x2
 1764 0833 77       		.byte	0x77
 1765 0834 00       		.sleb128 0
 1766 0835 00       		.byte	0
 1767 0836 20       		.uleb128 0x20
 1768 0837 54000000 		.4byte	.LVL52
 1769 083b B80A0000 		.4byte	0xab8
 1770 083f 4D080000 		.4byte	0x84d
 1771 0843 18       		.uleb128 0x18
 1772 0844 01       		.byte	0x1
 1773 0845 50       		.byte	0x50
 1774 0846 05       		.byte	0x5
 1775 0847 03       		.byte	0x3
 1776 0848 60000000 		.4byte	.LC5
 1777 084c 00       		.byte	0
 1778 084d 17       		.uleb128 0x17
 1779 084e 5C000000 		.4byte	.LVL53
 1780 0852 B80A0000 		.4byte	0xab8
 1781 0856 18       		.uleb128 0x18
 1782 0857 01       		.byte	0x1
 1783 0858 50       		.byte	0x50
 1784 0859 05       		.byte	0x5
 1785 085a 03       		.byte	0x3
 1786 085b 50000000 		.4byte	.LC4
ARM GAS  /tmp/cclBIhyK.s 			page 33


 1787 085f 00       		.byte	0
 1788 0860 00       		.byte	0
 1789 0861 24       		.uleb128 0x24
 1790 0862 01       		.byte	0x1
 1791 0863 90030000 		.4byte	.LASF73
 1792 0867 01       		.byte	0x1
 1793 0868 97       		.byte	0x97
 1794 0869 01       		.byte	0x1
 1795 086a CE000000 		.4byte	0xce
 1796 086e 00000000 		.4byte	.LFB12
 1797 0872 24000000 		.4byte	.LFE12
 1798 0876 1D030000 		.4byte	.LLST28
 1799 087a 01       		.byte	0x1
 1800 087b F9080000 		.4byte	0x8f9
 1801 087f 16       		.uleb128 0x16
 1802 0880 637000   		.ascii	"cp\000"
 1803 0883 01       		.byte	0x1
 1804 0884 97       		.byte	0x97
 1805 0885 19050000 		.4byte	0x519
 1806 0889 3D030000 		.4byte	.LLST29
 1807 088d 1A       		.uleb128 0x1a
 1808 088e 6D736700 		.ascii	"msg\000"
 1809 0892 01       		.byte	0x1
 1810 0893 98       		.byte	0x98
 1811 0894 CE000000 		.4byte	0xce
 1812 0898 69030000 		.4byte	.LLST30
 1813 089c 23       		.uleb128 0x23
 1814 089d 78000000 		.4byte	.Ldebug_ranges0+0x78
 1815 08a1 B5080000 		.4byte	0x8b5
 1816 08a5 1A       		.uleb128 0x1a
 1817 08a6 746D7000 		.ascii	"tmp\000"
 1818 08aa 01       		.byte	0x1
 1819 08ab 9A       		.byte	0x9a
 1820 08ac 6C000000 		.4byte	0x6c
 1821 08b0 87030000 		.4byte	.LLST31
 1822 08b4 00       		.byte	0
 1823 08b5 19       		.uleb128 0x19
 1824 08b6 1A000000 		.4byte	.LBB33
 1825 08ba 20000000 		.4byte	.LBE33
 1826 08be D2080000 		.4byte	0x8d2
 1827 08c2 1A       		.uleb128 0x1a
 1828 08c3 746D7000 		.ascii	"tmp\000"
 1829 08c7 01       		.byte	0x1
 1830 08c8 9C       		.byte	0x9c
 1831 08c9 6C000000 		.4byte	0x6c
 1832 08cd 9A030000 		.4byte	.LLST32
 1833 08d1 00       		.byte	0
 1834 08d2 1F       		.uleb128 0x1f
 1835 08d3 0E000000 		.4byte	.LVL57
 1836 08d7 CC0A0000 		.4byte	0xacc
 1837 08db 20       		.uleb128 0x20
 1838 08dc 14000000 		.4byte	.LVL58
 1839 08e0 70070000 		.4byte	0x770
 1840 08e4 EF080000 		.4byte	0x8ef
 1841 08e8 18       		.uleb128 0x18
 1842 08e9 01       		.byte	0x1
 1843 08ea 50       		.byte	0x50
ARM GAS  /tmp/cclBIhyK.s 			page 34


 1844 08eb 02       		.byte	0x2
 1845 08ec 74       		.byte	0x74
 1846 08ed 00       		.sleb128 0
 1847 08ee 00       		.byte	0
 1848 08ef 1F       		.uleb128 0x1f
 1849 08f0 1A000000 		.4byte	.LVL60
 1850 08f4 EF0A0000 		.4byte	0xaef
 1851 08f8 00       		.byte	0
 1852 08f9 25       		.uleb128 0x25
 1853 08fa 01       		.byte	0x1
 1854 08fb E9010000 		.4byte	.LASF74
 1855 08ff 01       		.byte	0x1
 1856 0900 0701     		.2byte	0x107
 1857 0902 01       		.byte	0x1
 1858 0903 CE000000 		.4byte	0xce
 1859 0907 00000000 		.4byte	.LFB15
 1860 090b 70000000 		.4byte	.LFE15
 1861 090f AD030000 		.4byte	.LLST33
 1862 0913 01       		.byte	0x1
 1863 0914 FA090000 		.4byte	0x9fa
 1864 0918 26       		.uleb128 0x26
 1865 0919 637000   		.ascii	"cp\000"
 1866 091c 01       		.byte	0x1
 1867 091d 0701     		.2byte	0x107
 1868 091f 19050000 		.4byte	0x519
 1869 0923 CD030000 		.4byte	.LLST34
 1870 0927 27       		.uleb128 0x27
 1871 0928 17020000 		.4byte	.LASF75
 1872 092c 01       		.byte	0x1
 1873 092d 0701     		.2byte	0x107
 1874 092f E4000000 		.4byte	0xe4
 1875 0933 EB030000 		.4byte	.LLST35
 1876 0937 28       		.uleb128 0x28
 1877 0938 6D7000   		.ascii	"mp\000"
 1878 093b 01       		.byte	0x1
 1879 093c 0801     		.2byte	0x108
 1880 093e 7D040000 		.4byte	0x47d
 1881 0942 09040000 		.4byte	.LLST36
 1882 0946 28       		.uleb128 0x28
 1883 0947 6D736700 		.ascii	"msg\000"
 1884 094b 01       		.byte	0x1
 1885 094c 0901     		.2byte	0x109
 1886 094e CE000000 		.4byte	0xce
 1887 0952 27040000 		.4byte	.LLST37
 1888 0956 29       		.uleb128 0x29
 1889 0957 B0040000 		.4byte	0x4b0
 1890 095b 22000000 		.4byte	.LBB34
 1891 095f 3A000000 		.4byte	.LBE34
 1892 0963 01       		.byte	0x1
 1893 0964 1301     		.2byte	0x113
 1894 0966 90090000 		.4byte	0x990
 1895 096a 1C       		.uleb128 0x1c
 1896 096b C7040000 		.4byte	0x4c7
 1897 096f 45040000 		.4byte	.LLST38
 1898 0973 1C       		.uleb128 0x1c
 1899 0974 BD040000 		.4byte	0x4bd
 1900 0978 58040000 		.4byte	.LLST39
ARM GAS  /tmp/cclBIhyK.s 			page 35


 1901 097c 22       		.uleb128 0x22
 1902 097d 22000000 		.4byte	.LBB35
 1903 0981 3A000000 		.4byte	.LBE35
 1904 0985 1E       		.uleb128 0x1e
 1905 0986 D2040000 		.4byte	0x4d2
 1906 098a 6B040000 		.4byte	.LLST40
 1907 098e 00       		.byte	0
 1908 098f 00       		.byte	0
 1909 0990 1F       		.uleb128 0x1f
 1910 0991 0A000000 		.4byte	.LVL64
 1911 0995 250B0000 		.4byte	0xb25
 1912 0999 1F       		.uleb128 0x1f
 1913 099a 1A000000 		.4byte	.LVL65
 1914 099e 2F0B0000 		.4byte	0xb2f
 1915 09a2 20       		.uleb128 0x20
 1916 09a3 42000000 		.4byte	.LVL70
 1917 09a7 650B0000 		.4byte	0xb65
 1918 09ab BB090000 		.4byte	0x9bb
 1919 09af 18       		.uleb128 0x18
 1920 09b0 01       		.byte	0x1
 1921 09b1 51       		.byte	0x51
 1922 09b2 02       		.byte	0x2
 1923 09b3 75       		.byte	0x75
 1924 09b4 00       		.sleb128 0
 1925 09b5 18       		.uleb128 0x18
 1926 09b6 01       		.byte	0x1
 1927 09b7 50       		.byte	0x50
 1928 09b8 01       		.byte	0x1
 1929 09b9 35       		.byte	0x35
 1930 09ba 00       		.byte	0
 1931 09bb 20       		.uleb128 0x20
 1932 09bc 4E000000 		.4byte	.LVL73
 1933 09c0 510B0000 		.4byte	0xb51
 1934 09c4 CF090000 		.4byte	0x9cf
 1935 09c8 18       		.uleb128 0x18
 1936 09c9 01       		.byte	0x1
 1937 09ca 50       		.byte	0x50
 1938 09cb 02       		.byte	0x2
 1939 09cc 77       		.byte	0x77
 1940 09cd 00       		.sleb128 0
 1941 09ce 00       		.byte	0
 1942 09cf 20       		.uleb128 0x20
 1943 09d0 58000000 		.4byte	.LVL75
 1944 09d4 B80A0000 		.4byte	0xab8
 1945 09d8 E6090000 		.4byte	0x9e6
 1946 09dc 18       		.uleb128 0x18
 1947 09dd 01       		.byte	0x1
 1948 09de 50       		.byte	0x50
 1949 09df 05       		.byte	0x5
 1950 09e0 03       		.byte	0x3
 1951 09e1 74000000 		.4byte	.LC6
 1952 09e5 00       		.byte	0
 1953 09e6 17       		.uleb128 0x17
 1954 09e7 60000000 		.4byte	.LVL76
 1955 09eb B80A0000 		.4byte	0xab8
 1956 09ef 18       		.uleb128 0x18
 1957 09f0 01       		.byte	0x1
ARM GAS  /tmp/cclBIhyK.s 			page 36


 1958 09f1 50       		.byte	0x50
 1959 09f2 05       		.byte	0x5
 1960 09f3 03       		.byte	0x3
 1961 09f4 8C000000 		.4byte	.LC7
 1962 09f8 00       		.byte	0
 1963 09f9 00       		.byte	0
 1964 09fa 24       		.uleb128 0x24
 1965 09fb 01       		.byte	0x1
 1966 09fc EE030000 		.4byte	.LASF76
 1967 0a00 01       		.byte	0x1
 1968 0a01 E2       		.byte	0xe2
 1969 0a02 01       		.byte	0x1
 1970 0a03 CE000000 		.4byte	0xce
 1971 0a07 00000000 		.4byte	.LFB14
 1972 0a0b 28000000 		.4byte	.LFE14
 1973 0a0f 7E040000 		.4byte	.LLST41
 1974 0a13 01       		.byte	0x1
 1975 0a14 AB0A0000 		.4byte	0xaab
 1976 0a18 16       		.uleb128 0x16
 1977 0a19 637000   		.ascii	"cp\000"
 1978 0a1c 01       		.byte	0x1
 1979 0a1d E2       		.byte	0xe2
 1980 0a1e 19050000 		.4byte	0x519
 1981 0a22 9E040000 		.4byte	.LLST42
 1982 0a26 2A       		.uleb128 0x2a
 1983 0a27 17020000 		.4byte	.LASF75
 1984 0a2b 01       		.byte	0x1
 1985 0a2c E2       		.byte	0xe2
 1986 0a2d E4000000 		.4byte	0xe4
 1987 0a31 BC040000 		.4byte	.LLST43
 1988 0a35 1A       		.uleb128 0x1a
 1989 0a36 6D736700 		.ascii	"msg\000"
 1990 0a3a 01       		.byte	0x1
 1991 0a3b E3       		.byte	0xe3
 1992 0a3c CE000000 		.4byte	0xce
 1993 0a40 E8040000 		.4byte	.LLST44
 1994 0a44 19       		.uleb128 0x19
 1995 0a45 06000000 		.4byte	.LBB36
 1996 0a49 0C000000 		.4byte	.LBE36
 1997 0a4d 610A0000 		.4byte	0xa61
 1998 0a51 1A       		.uleb128 0x1a
 1999 0a52 746D7000 		.ascii	"tmp\000"
 2000 0a56 01       		.byte	0x1
 2001 0a57 E5       		.byte	0xe5
 2002 0a58 6C000000 		.4byte	0x6c
 2003 0a5c 06050000 		.4byte	.LLST45
 2004 0a60 00       		.byte	0
 2005 0a61 19       		.uleb128 0x19
 2006 0a62 1E000000 		.4byte	.LBB37
 2007 0a66 24000000 		.4byte	.LBE37
 2008 0a6a 7E0A0000 		.4byte	0xa7e
 2009 0a6e 1A       		.uleb128 0x1a
 2010 0a6f 746D7000 		.ascii	"tmp\000"
 2011 0a73 01       		.byte	0x1
 2012 0a74 E7       		.byte	0xe7
 2013 0a75 6C000000 		.4byte	0x6c
 2014 0a79 19050000 		.4byte	.LLST46
ARM GAS  /tmp/cclBIhyK.s 			page 37


 2015 0a7d 00       		.byte	0
 2016 0a7e 1F       		.uleb128 0x1f
 2017 0a7f 10000000 		.4byte	.LVL80
 2018 0a83 CC0A0000 		.4byte	0xacc
 2019 0a87 20       		.uleb128 0x20
 2020 0a88 18000000 		.4byte	.LVL81
 2021 0a8c F9080000 		.4byte	0x8f9
 2022 0a90 A10A0000 		.4byte	0xaa1
 2023 0a94 18       		.uleb128 0x18
 2024 0a95 01       		.byte	0x1
 2025 0a96 51       		.byte	0x51
 2026 0a97 02       		.byte	0x2
 2027 0a98 74       		.byte	0x74
 2028 0a99 00       		.sleb128 0
 2029 0a9a 18       		.uleb128 0x18
 2030 0a9b 01       		.byte	0x1
 2031 0a9c 50       		.byte	0x50
 2032 0a9d 02       		.byte	0x2
 2033 0a9e 75       		.byte	0x75
 2034 0a9f 00       		.sleb128 0
 2035 0aa0 00       		.byte	0
 2036 0aa1 1F       		.uleb128 0x1f
 2037 0aa2 1E000000 		.4byte	.LVL83
 2038 0aa6 EF0A0000 		.4byte	0xaef
 2039 0aaa 00       		.byte	0
 2040 0aab 2B       		.uleb128 0x2b
 2041 0aac D2030000 		.4byte	.LASF91
 2042 0ab0 08       		.byte	0x8
 2043 0ab1 68       		.byte	0x68
 2044 0ab2 B7030000 		.4byte	0x3b7
 2045 0ab6 01       		.byte	0x1
 2046 0ab7 01       		.byte	0x1
 2047 0ab8 2C       		.uleb128 0x2c
 2048 0ab9 01       		.byte	0x1
 2049 0aba 06000000 		.4byte	.LASF77
 2050 0abe 0B       		.byte	0xb
 2051 0abf EF       		.byte	0xef
 2052 0ac0 01       		.byte	0x1
 2053 0ac1 01       		.byte	0x1
 2054 0ac2 CC0A0000 		.4byte	0xacc
 2055 0ac6 2D       		.uleb128 0x2d
 2056 0ac7 65040000 		.4byte	0x465
 2057 0acb 00       		.byte	0
 2058 0acc 2E       		.uleb128 0x2e
 2059 0acd 01       		.byte	0x1
 2060 0ace 1D040000 		.4byte	.LASF79
 2061 0ad2 0B       		.byte	0xb
 2062 0ad3 E0       		.byte	0xe0
 2063 0ad4 01       		.byte	0x1
 2064 0ad5 01       		.byte	0x1
 2065 0ad6 2C       		.uleb128 0x2c
 2066 0ad7 01       		.byte	0x1
 2067 0ad8 B4030000 		.4byte	.LASF78
 2068 0adc 08       		.byte	0x8
 2069 0add 92       		.byte	0x92
 2070 0ade 01       		.byte	0x1
 2071 0adf 01       		.byte	0x1
ARM GAS  /tmp/cclBIhyK.s 			page 38


 2072 0ae0 EF0A0000 		.4byte	0xaef
 2073 0ae4 2D       		.uleb128 0x2d
 2074 0ae5 52020000 		.4byte	0x252
 2075 0ae9 2D       		.uleb128 0x2d
 2076 0aea CE000000 		.4byte	0xce
 2077 0aee 00       		.byte	0
 2078 0aef 2E       		.uleb128 0x2e
 2079 0af0 01       		.byte	0x1
 2080 0af1 CF010000 		.4byte	.LASF80
 2081 0af5 0B       		.byte	0xb
 2082 0af6 E1       		.byte	0xe1
 2083 0af7 01       		.byte	0x1
 2084 0af8 01       		.byte	0x1
 2085 0af9 2E       		.uleb128 0x2e
 2086 0afa 01       		.byte	0x1
 2087 0afb 4B010000 		.4byte	.LASF81
 2088 0aff 0B       		.byte	0xb
 2089 0b00 E6       		.byte	0xe6
 2090 0b01 01       		.byte	0x1
 2091 0b02 01       		.byte	0x1
 2092 0b03 2F       		.uleb128 0x2f
 2093 0b04 01       		.byte	0x1
 2094 0b05 4B030000 		.4byte	.LASF92
 2095 0b09 08       		.byte	0x8
 2096 0b0a 89       		.byte	0x89
 2097 0b0b 01       		.byte	0x1
 2098 0b0c 52020000 		.4byte	0x252
 2099 0b10 01       		.byte	0x1
 2100 0b11 1B0B0000 		.4byte	0xb1b
 2101 0b15 2D       		.uleb128 0x2d
 2102 0b16 52020000 		.4byte	0x252
 2103 0b1a 00       		.byte	0
 2104 0b1b 2E       		.uleb128 0x2e
 2105 0b1c 01       		.byte	0x1
 2106 0b1d C5000000 		.4byte	.LASF82
 2107 0b21 08       		.byte	0x8
 2108 0b22 95       		.byte	0x95
 2109 0b23 01       		.byte	0x1
 2110 0b24 01       		.byte	0x1
 2111 0b25 2E       		.uleb128 0x2e
 2112 0b26 01       		.byte	0x1
 2113 0b27 64010000 		.4byte	.LASF83
 2114 0b2b 0B       		.byte	0xb
 2115 0b2c E7       		.byte	0xe7
 2116 0b2d 01       		.byte	0x1
 2117 0b2e 01       		.byte	0x1
 2118 0b2f 30       		.uleb128 0x30
 2119 0b30 01       		.byte	0x1
 2120 0b31 05030000 		.4byte	.LASF93
 2121 0b35 09       		.byte	0x9
 2122 0b36 37       		.byte	0x37
 2123 0b37 01       		.byte	0x1
 2124 0b38 7D040000 		.4byte	0x47d
 2125 0b3c 01       		.byte	0x1
 2126 0b3d 2C       		.uleb128 0x2c
 2127 0b3e 01       		.byte	0x1
 2128 0b3f 21030000 		.4byte	.LASF84
ARM GAS  /tmp/cclBIhyK.s 			page 39


 2129 0b43 08       		.byte	0x8
 2130 0b44 8C       		.byte	0x8c
 2131 0b45 01       		.byte	0x1
 2132 0b46 01       		.byte	0x1
 2133 0b47 510B0000 		.4byte	0xb51
 2134 0b4b 2D       		.uleb128 0x2d
 2135 0b4c A2000000 		.4byte	0xa2
 2136 0b50 00       		.byte	0
 2137 0b51 2C       		.uleb128 0x2c
 2138 0b52 01       		.byte	0x1
 2139 0b53 B2000000 		.4byte	.LASF85
 2140 0b57 09       		.byte	0x9
 2141 0b58 33       		.byte	0x33
 2142 0b59 01       		.byte	0x1
 2143 0b5a 01       		.byte	0x1
 2144 0b5b 650B0000 		.4byte	0xb65
 2145 0b5f 2D       		.uleb128 0x2d
 2146 0b60 7D040000 		.4byte	0x47d
 2147 0b64 00       		.byte	0
 2148 0b65 31       		.uleb128 0x31
 2149 0b66 01       		.byte	0x1
 2150 0b67 00040000 		.4byte	.LASF86
 2151 0b6b 08       		.byte	0x8
 2152 0b6c 8F       		.byte	0x8f
 2153 0b6d 01       		.byte	0x1
 2154 0b6e CE000000 		.4byte	0xce
 2155 0b72 01       		.byte	0x1
 2156 0b73 2D       		.uleb128 0x2d
 2157 0b74 A2000000 		.4byte	0xa2
 2158 0b78 2D       		.uleb128 0x2d
 2159 0b79 E4000000 		.4byte	0xe4
 2160 0b7d 00       		.byte	0
 2161 0b7e 00       		.byte	0
 2162              		.section	.debug_abbrev,"",%progbits
 2163              	.Ldebug_abbrev0:
 2164 0000 01       		.uleb128 0x1
 2165 0001 11       		.uleb128 0x11
 2166 0002 01       		.byte	0x1
 2167 0003 25       		.uleb128 0x25
 2168 0004 0E       		.uleb128 0xe
 2169 0005 13       		.uleb128 0x13
 2170 0006 0B       		.uleb128 0xb
 2171 0007 03       		.uleb128 0x3
 2172 0008 0E       		.uleb128 0xe
 2173 0009 55       		.uleb128 0x55
 2174 000a 06       		.uleb128 0x6
 2175 000b 11       		.uleb128 0x11
 2176 000c 01       		.uleb128 0x1
 2177 000d 52       		.uleb128 0x52
 2178 000e 01       		.uleb128 0x1
 2179 000f 10       		.uleb128 0x10
 2180 0010 06       		.uleb128 0x6
 2181 0011 00       		.byte	0
 2182 0012 00       		.byte	0
 2183 0013 02       		.uleb128 0x2
 2184 0014 24       		.uleb128 0x24
 2185 0015 00       		.byte	0
ARM GAS  /tmp/cclBIhyK.s 			page 40


 2186 0016 0B       		.uleb128 0xb
 2187 0017 0B       		.uleb128 0xb
 2188 0018 3E       		.uleb128 0x3e
 2189 0019 0B       		.uleb128 0xb
 2190 001a 03       		.uleb128 0x3
 2191 001b 08       		.uleb128 0x8
 2192 001c 00       		.byte	0
 2193 001d 00       		.byte	0
 2194 001e 03       		.uleb128 0x3
 2195 001f 24       		.uleb128 0x24
 2196 0020 00       		.byte	0
 2197 0021 0B       		.uleb128 0xb
 2198 0022 0B       		.uleb128 0xb
 2199 0023 3E       		.uleb128 0x3e
 2200 0024 0B       		.uleb128 0xb
 2201 0025 03       		.uleb128 0x3
 2202 0026 0E       		.uleb128 0xe
 2203 0027 00       		.byte	0
 2204 0028 00       		.byte	0
 2205 0029 04       		.uleb128 0x4
 2206 002a 16       		.uleb128 0x16
 2207 002b 00       		.byte	0
 2208 002c 03       		.uleb128 0x3
 2209 002d 0E       		.uleb128 0xe
 2210 002e 3A       		.uleb128 0x3a
 2211 002f 0B       		.uleb128 0xb
 2212 0030 3B       		.uleb128 0x3b
 2213 0031 0B       		.uleb128 0xb
 2214 0032 49       		.uleb128 0x49
 2215 0033 13       		.uleb128 0x13
 2216 0034 00       		.byte	0
 2217 0035 00       		.byte	0
 2218 0036 05       		.uleb128 0x5
 2219 0037 13       		.uleb128 0x13
 2220 0038 01       		.byte	0x1
 2221 0039 03       		.uleb128 0x3
 2222 003a 0E       		.uleb128 0xe
 2223 003b 0B       		.uleb128 0xb
 2224 003c 0B       		.uleb128 0xb
 2225 003d 3A       		.uleb128 0x3a
 2226 003e 0B       		.uleb128 0xb
 2227 003f 3B       		.uleb128 0x3b
 2228 0040 0B       		.uleb128 0xb
 2229 0041 01       		.uleb128 0x1
 2230 0042 13       		.uleb128 0x13
 2231 0043 00       		.byte	0
 2232 0044 00       		.byte	0
 2233 0045 06       		.uleb128 0x6
 2234 0046 0D       		.uleb128 0xd
 2235 0047 00       		.byte	0
 2236 0048 03       		.uleb128 0x3
 2237 0049 0E       		.uleb128 0xe
 2238 004a 3A       		.uleb128 0x3a
 2239 004b 0B       		.uleb128 0xb
 2240 004c 3B       		.uleb128 0x3b
 2241 004d 0B       		.uleb128 0xb
 2242 004e 49       		.uleb128 0x49
ARM GAS  /tmp/cclBIhyK.s 			page 41


 2243 004f 13       		.uleb128 0x13
 2244 0050 38       		.uleb128 0x38
 2245 0051 0A       		.uleb128 0xa
 2246 0052 00       		.byte	0
 2247 0053 00       		.byte	0
 2248 0054 07       		.uleb128 0x7
 2249 0055 0D       		.uleb128 0xd
 2250 0056 00       		.byte	0
 2251 0057 03       		.uleb128 0x3
 2252 0058 08       		.uleb128 0x8
 2253 0059 3A       		.uleb128 0x3a
 2254 005a 0B       		.uleb128 0xb
 2255 005b 3B       		.uleb128 0x3b
 2256 005c 0B       		.uleb128 0xb
 2257 005d 49       		.uleb128 0x49
 2258 005e 13       		.uleb128 0x13
 2259 005f 38       		.uleb128 0x38
 2260 0060 0A       		.uleb128 0xa
 2261 0061 00       		.byte	0
 2262 0062 00       		.byte	0
 2263 0063 08       		.uleb128 0x8
 2264 0064 13       		.uleb128 0x13
 2265 0065 01       		.byte	0x1
 2266 0066 0B       		.uleb128 0xb
 2267 0067 0B       		.uleb128 0xb
 2268 0068 3A       		.uleb128 0x3a
 2269 0069 0B       		.uleb128 0xb
 2270 006a 3B       		.uleb128 0x3b
 2271 006b 0B       		.uleb128 0xb
 2272 006c 01       		.uleb128 0x1
 2273 006d 13       		.uleb128 0x13
 2274 006e 00       		.byte	0
 2275 006f 00       		.byte	0
 2276 0070 09       		.uleb128 0x9
 2277 0071 0F       		.uleb128 0xf
 2278 0072 00       		.byte	0
 2279 0073 0B       		.uleb128 0xb
 2280 0074 0B       		.uleb128 0xb
 2281 0075 49       		.uleb128 0x49
 2282 0076 13       		.uleb128 0x13
 2283 0077 00       		.byte	0
 2284 0078 00       		.byte	0
 2285 0079 0A       		.uleb128 0xa
 2286 007a 0F       		.uleb128 0xf
 2287 007b 00       		.byte	0
 2288 007c 0B       		.uleb128 0xb
 2289 007d 0B       		.uleb128 0xb
 2290 007e 00       		.byte	0
 2291 007f 00       		.byte	0
 2292 0080 0B       		.uleb128 0xb
 2293 0081 13       		.uleb128 0x13
 2294 0082 01       		.byte	0x1
 2295 0083 03       		.uleb128 0x3
 2296 0084 0E       		.uleb128 0xe
 2297 0085 0B       		.uleb128 0xb
 2298 0086 0B       		.uleb128 0xb
 2299 0087 3A       		.uleb128 0x3a
ARM GAS  /tmp/cclBIhyK.s 			page 42


 2300 0088 0B       		.uleb128 0xb
 2301 0089 3B       		.uleb128 0x3b
 2302 008a 05       		.uleb128 0x5
 2303 008b 01       		.uleb128 0x1
 2304 008c 13       		.uleb128 0x13
 2305 008d 00       		.byte	0
 2306 008e 00       		.byte	0
 2307 008f 0C       		.uleb128 0xc
 2308 0090 0D       		.uleb128 0xd
 2309 0091 00       		.byte	0
 2310 0092 03       		.uleb128 0x3
 2311 0093 08       		.uleb128 0x8
 2312 0094 3A       		.uleb128 0x3a
 2313 0095 0B       		.uleb128 0xb
 2314 0096 3B       		.uleb128 0x3b
 2315 0097 05       		.uleb128 0x5
 2316 0098 49       		.uleb128 0x49
 2317 0099 13       		.uleb128 0x13
 2318 009a 38       		.uleb128 0x38
 2319 009b 0A       		.uleb128 0xa
 2320 009c 00       		.byte	0
 2321 009d 00       		.byte	0
 2322 009e 0D       		.uleb128 0xd
 2323 009f 35       		.uleb128 0x35
 2324 00a0 00       		.byte	0
 2325 00a1 49       		.uleb128 0x49
 2326 00a2 13       		.uleb128 0x13
 2327 00a3 00       		.byte	0
 2328 00a4 00       		.byte	0
 2329 00a5 0E       		.uleb128 0xe
 2330 00a6 17       		.uleb128 0x17
 2331 00a7 01       		.byte	0x1
 2332 00a8 0B       		.uleb128 0xb
 2333 00a9 0B       		.uleb128 0xb
 2334 00aa 3A       		.uleb128 0x3a
 2335 00ab 0B       		.uleb128 0xb
 2336 00ac 3B       		.uleb128 0x3b
 2337 00ad 0B       		.uleb128 0xb
 2338 00ae 01       		.uleb128 0x1
 2339 00af 13       		.uleb128 0x13
 2340 00b0 00       		.byte	0
 2341 00b1 00       		.byte	0
 2342 00b2 0F       		.uleb128 0xf
 2343 00b3 0D       		.uleb128 0xd
 2344 00b4 00       		.byte	0
 2345 00b5 03       		.uleb128 0x3
 2346 00b6 0E       		.uleb128 0xe
 2347 00b7 3A       		.uleb128 0x3a
 2348 00b8 0B       		.uleb128 0xb
 2349 00b9 3B       		.uleb128 0x3b
 2350 00ba 0B       		.uleb128 0xb
 2351 00bb 49       		.uleb128 0x49
 2352 00bc 13       		.uleb128 0x13
 2353 00bd 00       		.byte	0
 2354 00be 00       		.byte	0
 2355 00bf 10       		.uleb128 0x10
 2356 00c0 26       		.uleb128 0x26
ARM GAS  /tmp/cclBIhyK.s 			page 43


 2357 00c1 00       		.byte	0
 2358 00c2 49       		.uleb128 0x49
 2359 00c3 13       		.uleb128 0x13
 2360 00c4 00       		.byte	0
 2361 00c5 00       		.byte	0
 2362 00c6 11       		.uleb128 0x11
 2363 00c7 2E       		.uleb128 0x2e
 2364 00c8 01       		.byte	0x1
 2365 00c9 03       		.uleb128 0x3
 2366 00ca 0E       		.uleb128 0xe
 2367 00cb 3A       		.uleb128 0x3a
 2368 00cc 0B       		.uleb128 0xb
 2369 00cd 3B       		.uleb128 0x3b
 2370 00ce 0B       		.uleb128 0xb
 2371 00cf 27       		.uleb128 0x27
 2372 00d0 0C       		.uleb128 0xc
 2373 00d1 49       		.uleb128 0x49
 2374 00d2 13       		.uleb128 0x13
 2375 00d3 20       		.uleb128 0x20
 2376 00d4 0B       		.uleb128 0xb
 2377 00d5 01       		.uleb128 0x1
 2378 00d6 13       		.uleb128 0x13
 2379 00d7 00       		.byte	0
 2380 00d8 00       		.byte	0
 2381 00d9 12       		.uleb128 0x12
 2382 00da 05       		.uleb128 0x5
 2383 00db 00       		.byte	0
 2384 00dc 03       		.uleb128 0x3
 2385 00dd 08       		.uleb128 0x8
 2386 00de 3A       		.uleb128 0x3a
 2387 00df 0B       		.uleb128 0xb
 2388 00e0 3B       		.uleb128 0x3b
 2389 00e1 0B       		.uleb128 0xb
 2390 00e2 49       		.uleb128 0x49
 2391 00e3 13       		.uleb128 0x13
 2392 00e4 00       		.byte	0
 2393 00e5 00       		.byte	0
 2394 00e6 13       		.uleb128 0x13
 2395 00e7 34       		.uleb128 0x34
 2396 00e8 00       		.byte	0
 2397 00e9 03       		.uleb128 0x3
 2398 00ea 08       		.uleb128 0x8
 2399 00eb 3A       		.uleb128 0x3a
 2400 00ec 0B       		.uleb128 0xb
 2401 00ed 3B       		.uleb128 0x3b
 2402 00ee 0B       		.uleb128 0xb
 2403 00ef 49       		.uleb128 0x49
 2404 00f0 13       		.uleb128 0x13
 2405 00f1 00       		.byte	0
 2406 00f2 00       		.byte	0
 2407 00f3 14       		.uleb128 0x14
 2408 00f4 2E       		.uleb128 0x2e
 2409 00f5 01       		.byte	0x1
 2410 00f6 03       		.uleb128 0x3
 2411 00f7 0E       		.uleb128 0xe
 2412 00f8 3A       		.uleb128 0x3a
 2413 00f9 0B       		.uleb128 0xb
ARM GAS  /tmp/cclBIhyK.s 			page 44


 2414 00fa 3B       		.uleb128 0x3b
 2415 00fb 0B       		.uleb128 0xb
 2416 00fc 27       		.uleb128 0x27
 2417 00fd 0C       		.uleb128 0xc
 2418 00fe 20       		.uleb128 0x20
 2419 00ff 0B       		.uleb128 0xb
 2420 0100 01       		.uleb128 0x1
 2421 0101 13       		.uleb128 0x13
 2422 0102 00       		.byte	0
 2423 0103 00       		.byte	0
 2424 0104 15       		.uleb128 0x15
 2425 0105 2E       		.uleb128 0x2e
 2426 0106 01       		.byte	0x1
 2427 0107 3F       		.uleb128 0x3f
 2428 0108 0C       		.uleb128 0xc
 2429 0109 03       		.uleb128 0x3
 2430 010a 0E       		.uleb128 0xe
 2431 010b 3A       		.uleb128 0x3a
 2432 010c 0B       		.uleb128 0xb
 2433 010d 3B       		.uleb128 0x3b
 2434 010e 0B       		.uleb128 0xb
 2435 010f 27       		.uleb128 0x27
 2436 0110 0C       		.uleb128 0xc
 2437 0111 11       		.uleb128 0x11
 2438 0112 01       		.uleb128 0x1
 2439 0113 12       		.uleb128 0x12
 2440 0114 01       		.uleb128 0x1
 2441 0115 40       		.uleb128 0x40
 2442 0116 06       		.uleb128 0x6
 2443 0117 9742     		.uleb128 0x2117
 2444 0119 0C       		.uleb128 0xc
 2445 011a 01       		.uleb128 0x1
 2446 011b 13       		.uleb128 0x13
 2447 011c 00       		.byte	0
 2448 011d 00       		.byte	0
 2449 011e 16       		.uleb128 0x16
 2450 011f 05       		.uleb128 0x5
 2451 0120 00       		.byte	0
 2452 0121 03       		.uleb128 0x3
 2453 0122 08       		.uleb128 0x8
 2454 0123 3A       		.uleb128 0x3a
 2455 0124 0B       		.uleb128 0xb
 2456 0125 3B       		.uleb128 0x3b
 2457 0126 0B       		.uleb128 0xb
 2458 0127 49       		.uleb128 0x49
 2459 0128 13       		.uleb128 0x13
 2460 0129 02       		.uleb128 0x2
 2461 012a 06       		.uleb128 0x6
 2462 012b 00       		.byte	0
 2463 012c 00       		.byte	0
 2464 012d 17       		.uleb128 0x17
 2465 012e 898201   		.uleb128 0x4109
 2466 0131 01       		.byte	0x1
 2467 0132 11       		.uleb128 0x11
 2468 0133 01       		.uleb128 0x1
 2469 0134 31       		.uleb128 0x31
 2470 0135 13       		.uleb128 0x13
ARM GAS  /tmp/cclBIhyK.s 			page 45


 2471 0136 00       		.byte	0
 2472 0137 00       		.byte	0
 2473 0138 18       		.uleb128 0x18
 2474 0139 8A8201   		.uleb128 0x410a
 2475 013c 00       		.byte	0
 2476 013d 02       		.uleb128 0x2
 2477 013e 0A       		.uleb128 0xa
 2478 013f 9142     		.uleb128 0x2111
 2479 0141 0A       		.uleb128 0xa
 2480 0142 00       		.byte	0
 2481 0143 00       		.byte	0
 2482 0144 19       		.uleb128 0x19
 2483 0145 0B       		.uleb128 0xb
 2484 0146 01       		.byte	0x1
 2485 0147 11       		.uleb128 0x11
 2486 0148 01       		.uleb128 0x1
 2487 0149 12       		.uleb128 0x12
 2488 014a 01       		.uleb128 0x1
 2489 014b 01       		.uleb128 0x1
 2490 014c 13       		.uleb128 0x13
 2491 014d 00       		.byte	0
 2492 014e 00       		.byte	0
 2493 014f 1A       		.uleb128 0x1a
 2494 0150 34       		.uleb128 0x34
 2495 0151 00       		.byte	0
 2496 0152 03       		.uleb128 0x3
 2497 0153 08       		.uleb128 0x8
 2498 0154 3A       		.uleb128 0x3a
 2499 0155 0B       		.uleb128 0xb
 2500 0156 3B       		.uleb128 0x3b
 2501 0157 0B       		.uleb128 0xb
 2502 0158 49       		.uleb128 0x49
 2503 0159 13       		.uleb128 0x13
 2504 015a 02       		.uleb128 0x2
 2505 015b 06       		.uleb128 0x6
 2506 015c 00       		.byte	0
 2507 015d 00       		.byte	0
 2508 015e 1B       		.uleb128 0x1b
 2509 015f 1D       		.uleb128 0x1d
 2510 0160 01       		.byte	0x1
 2511 0161 31       		.uleb128 0x31
 2512 0162 13       		.uleb128 0x13
 2513 0163 52       		.uleb128 0x52
 2514 0164 01       		.uleb128 0x1
 2515 0165 55       		.uleb128 0x55
 2516 0166 06       		.uleb128 0x6
 2517 0167 58       		.uleb128 0x58
 2518 0168 0B       		.uleb128 0xb
 2519 0169 59       		.uleb128 0x59
 2520 016a 0B       		.uleb128 0xb
 2521 016b 01       		.uleb128 0x1
 2522 016c 13       		.uleb128 0x13
 2523 016d 00       		.byte	0
 2524 016e 00       		.byte	0
 2525 016f 1C       		.uleb128 0x1c
 2526 0170 05       		.uleb128 0x5
 2527 0171 00       		.byte	0
ARM GAS  /tmp/cclBIhyK.s 			page 46


 2528 0172 31       		.uleb128 0x31
 2529 0173 13       		.uleb128 0x13
 2530 0174 02       		.uleb128 0x2
 2531 0175 06       		.uleb128 0x6
 2532 0176 00       		.byte	0
 2533 0177 00       		.byte	0
 2534 0178 1D       		.uleb128 0x1d
 2535 0179 0B       		.uleb128 0xb
 2536 017a 01       		.byte	0x1
 2537 017b 55       		.uleb128 0x55
 2538 017c 06       		.uleb128 0x6
 2539 017d 00       		.byte	0
 2540 017e 00       		.byte	0
 2541 017f 1E       		.uleb128 0x1e
 2542 0180 34       		.uleb128 0x34
 2543 0181 00       		.byte	0
 2544 0182 31       		.uleb128 0x31
 2545 0183 13       		.uleb128 0x13
 2546 0184 02       		.uleb128 0x2
 2547 0185 06       		.uleb128 0x6
 2548 0186 00       		.byte	0
 2549 0187 00       		.byte	0
 2550 0188 1F       		.uleb128 0x1f
 2551 0189 898201   		.uleb128 0x4109
 2552 018c 00       		.byte	0
 2553 018d 11       		.uleb128 0x11
 2554 018e 01       		.uleb128 0x1
 2555 018f 31       		.uleb128 0x31
 2556 0190 13       		.uleb128 0x13
 2557 0191 00       		.byte	0
 2558 0192 00       		.byte	0
 2559 0193 20       		.uleb128 0x20
 2560 0194 898201   		.uleb128 0x4109
 2561 0197 01       		.byte	0x1
 2562 0198 11       		.uleb128 0x11
 2563 0199 01       		.uleb128 0x1
 2564 019a 31       		.uleb128 0x31
 2565 019b 13       		.uleb128 0x13
 2566 019c 01       		.uleb128 0x1
 2567 019d 13       		.uleb128 0x13
 2568 019e 00       		.byte	0
 2569 019f 00       		.byte	0
 2570 01a0 21       		.uleb128 0x21
 2571 01a1 1D       		.uleb128 0x1d
 2572 01a2 01       		.byte	0x1
 2573 01a3 31       		.uleb128 0x31
 2574 01a4 13       		.uleb128 0x13
 2575 01a5 11       		.uleb128 0x11
 2576 01a6 01       		.uleb128 0x1
 2577 01a7 12       		.uleb128 0x12
 2578 01a8 01       		.uleb128 0x1
 2579 01a9 58       		.uleb128 0x58
 2580 01aa 0B       		.uleb128 0xb
 2581 01ab 59       		.uleb128 0x59
 2582 01ac 0B       		.uleb128 0xb
 2583 01ad 01       		.uleb128 0x1
 2584 01ae 13       		.uleb128 0x13
ARM GAS  /tmp/cclBIhyK.s 			page 47


 2585 01af 00       		.byte	0
 2586 01b0 00       		.byte	0
 2587 01b1 22       		.uleb128 0x22
 2588 01b2 0B       		.uleb128 0xb
 2589 01b3 01       		.byte	0x1
 2590 01b4 11       		.uleb128 0x11
 2591 01b5 01       		.uleb128 0x1
 2592 01b6 12       		.uleb128 0x12
 2593 01b7 01       		.uleb128 0x1
 2594 01b8 00       		.byte	0
 2595 01b9 00       		.byte	0
 2596 01ba 23       		.uleb128 0x23
 2597 01bb 0B       		.uleb128 0xb
 2598 01bc 01       		.byte	0x1
 2599 01bd 55       		.uleb128 0x55
 2600 01be 06       		.uleb128 0x6
 2601 01bf 01       		.uleb128 0x1
 2602 01c0 13       		.uleb128 0x13
 2603 01c1 00       		.byte	0
 2604 01c2 00       		.byte	0
 2605 01c3 24       		.uleb128 0x24
 2606 01c4 2E       		.uleb128 0x2e
 2607 01c5 01       		.byte	0x1
 2608 01c6 3F       		.uleb128 0x3f
 2609 01c7 0C       		.uleb128 0xc
 2610 01c8 03       		.uleb128 0x3
 2611 01c9 0E       		.uleb128 0xe
 2612 01ca 3A       		.uleb128 0x3a
 2613 01cb 0B       		.uleb128 0xb
 2614 01cc 3B       		.uleb128 0x3b
 2615 01cd 0B       		.uleb128 0xb
 2616 01ce 27       		.uleb128 0x27
 2617 01cf 0C       		.uleb128 0xc
 2618 01d0 49       		.uleb128 0x49
 2619 01d1 13       		.uleb128 0x13
 2620 01d2 11       		.uleb128 0x11
 2621 01d3 01       		.uleb128 0x1
 2622 01d4 12       		.uleb128 0x12
 2623 01d5 01       		.uleb128 0x1
 2624 01d6 40       		.uleb128 0x40
 2625 01d7 06       		.uleb128 0x6
 2626 01d8 9742     		.uleb128 0x2117
 2627 01da 0C       		.uleb128 0xc
 2628 01db 01       		.uleb128 0x1
 2629 01dc 13       		.uleb128 0x13
 2630 01dd 00       		.byte	0
 2631 01de 00       		.byte	0
 2632 01df 25       		.uleb128 0x25
 2633 01e0 2E       		.uleb128 0x2e
 2634 01e1 01       		.byte	0x1
 2635 01e2 3F       		.uleb128 0x3f
 2636 01e3 0C       		.uleb128 0xc
 2637 01e4 03       		.uleb128 0x3
 2638 01e5 0E       		.uleb128 0xe
 2639 01e6 3A       		.uleb128 0x3a
 2640 01e7 0B       		.uleb128 0xb
 2641 01e8 3B       		.uleb128 0x3b
ARM GAS  /tmp/cclBIhyK.s 			page 48


 2642 01e9 05       		.uleb128 0x5
 2643 01ea 27       		.uleb128 0x27
 2644 01eb 0C       		.uleb128 0xc
 2645 01ec 49       		.uleb128 0x49
 2646 01ed 13       		.uleb128 0x13
 2647 01ee 11       		.uleb128 0x11
 2648 01ef 01       		.uleb128 0x1
 2649 01f0 12       		.uleb128 0x12
 2650 01f1 01       		.uleb128 0x1
 2651 01f2 40       		.uleb128 0x40
 2652 01f3 06       		.uleb128 0x6
 2653 01f4 9742     		.uleb128 0x2117
 2654 01f6 0C       		.uleb128 0xc
 2655 01f7 01       		.uleb128 0x1
 2656 01f8 13       		.uleb128 0x13
 2657 01f9 00       		.byte	0
 2658 01fa 00       		.byte	0
 2659 01fb 26       		.uleb128 0x26
 2660 01fc 05       		.uleb128 0x5
 2661 01fd 00       		.byte	0
 2662 01fe 03       		.uleb128 0x3
 2663 01ff 08       		.uleb128 0x8
 2664 0200 3A       		.uleb128 0x3a
 2665 0201 0B       		.uleb128 0xb
 2666 0202 3B       		.uleb128 0x3b
 2667 0203 05       		.uleb128 0x5
 2668 0204 49       		.uleb128 0x49
 2669 0205 13       		.uleb128 0x13
 2670 0206 02       		.uleb128 0x2
 2671 0207 06       		.uleb128 0x6
 2672 0208 00       		.byte	0
 2673 0209 00       		.byte	0
 2674 020a 27       		.uleb128 0x27
 2675 020b 05       		.uleb128 0x5
 2676 020c 00       		.byte	0
 2677 020d 03       		.uleb128 0x3
 2678 020e 0E       		.uleb128 0xe
 2679 020f 3A       		.uleb128 0x3a
 2680 0210 0B       		.uleb128 0xb
 2681 0211 3B       		.uleb128 0x3b
 2682 0212 05       		.uleb128 0x5
 2683 0213 49       		.uleb128 0x49
 2684 0214 13       		.uleb128 0x13
 2685 0215 02       		.uleb128 0x2
 2686 0216 06       		.uleb128 0x6
 2687 0217 00       		.byte	0
 2688 0218 00       		.byte	0
 2689 0219 28       		.uleb128 0x28
 2690 021a 34       		.uleb128 0x34
 2691 021b 00       		.byte	0
 2692 021c 03       		.uleb128 0x3
 2693 021d 08       		.uleb128 0x8
 2694 021e 3A       		.uleb128 0x3a
 2695 021f 0B       		.uleb128 0xb
 2696 0220 3B       		.uleb128 0x3b
 2697 0221 05       		.uleb128 0x5
 2698 0222 49       		.uleb128 0x49
ARM GAS  /tmp/cclBIhyK.s 			page 49


 2699 0223 13       		.uleb128 0x13
 2700 0224 02       		.uleb128 0x2
 2701 0225 06       		.uleb128 0x6
 2702 0226 00       		.byte	0
 2703 0227 00       		.byte	0
 2704 0228 29       		.uleb128 0x29
 2705 0229 1D       		.uleb128 0x1d
 2706 022a 01       		.byte	0x1
 2707 022b 31       		.uleb128 0x31
 2708 022c 13       		.uleb128 0x13
 2709 022d 11       		.uleb128 0x11
 2710 022e 01       		.uleb128 0x1
 2711 022f 12       		.uleb128 0x12
 2712 0230 01       		.uleb128 0x1
 2713 0231 58       		.uleb128 0x58
 2714 0232 0B       		.uleb128 0xb
 2715 0233 59       		.uleb128 0x59
 2716 0234 05       		.uleb128 0x5
 2717 0235 01       		.uleb128 0x1
 2718 0236 13       		.uleb128 0x13
 2719 0237 00       		.byte	0
 2720 0238 00       		.byte	0
 2721 0239 2A       		.uleb128 0x2a
 2722 023a 05       		.uleb128 0x5
 2723 023b 00       		.byte	0
 2724 023c 03       		.uleb128 0x3
 2725 023d 0E       		.uleb128 0xe
 2726 023e 3A       		.uleb128 0x3a
 2727 023f 0B       		.uleb128 0xb
 2728 0240 3B       		.uleb128 0x3b
 2729 0241 0B       		.uleb128 0xb
 2730 0242 49       		.uleb128 0x49
 2731 0243 13       		.uleb128 0x13
 2732 0244 02       		.uleb128 0x2
 2733 0245 06       		.uleb128 0x6
 2734 0246 00       		.byte	0
 2735 0247 00       		.byte	0
 2736 0248 2B       		.uleb128 0x2b
 2737 0249 34       		.uleb128 0x34
 2738 024a 00       		.byte	0
 2739 024b 03       		.uleb128 0x3
 2740 024c 0E       		.uleb128 0xe
 2741 024d 3A       		.uleb128 0x3a
 2742 024e 0B       		.uleb128 0xb
 2743 024f 3B       		.uleb128 0x3b
 2744 0250 0B       		.uleb128 0xb
 2745 0251 49       		.uleb128 0x49
 2746 0252 13       		.uleb128 0x13
 2747 0253 3F       		.uleb128 0x3f
 2748 0254 0C       		.uleb128 0xc
 2749 0255 3C       		.uleb128 0x3c
 2750 0256 0C       		.uleb128 0xc
 2751 0257 00       		.byte	0
 2752 0258 00       		.byte	0
 2753 0259 2C       		.uleb128 0x2c
 2754 025a 2E       		.uleb128 0x2e
 2755 025b 01       		.byte	0x1
ARM GAS  /tmp/cclBIhyK.s 			page 50


 2756 025c 3F       		.uleb128 0x3f
 2757 025d 0C       		.uleb128 0xc
 2758 025e 03       		.uleb128 0x3
 2759 025f 0E       		.uleb128 0xe
 2760 0260 3A       		.uleb128 0x3a
 2761 0261 0B       		.uleb128 0xb
 2762 0262 3B       		.uleb128 0x3b
 2763 0263 0B       		.uleb128 0xb
 2764 0264 27       		.uleb128 0x27
 2765 0265 0C       		.uleb128 0xc
 2766 0266 3C       		.uleb128 0x3c
 2767 0267 0C       		.uleb128 0xc
 2768 0268 01       		.uleb128 0x1
 2769 0269 13       		.uleb128 0x13
 2770 026a 00       		.byte	0
 2771 026b 00       		.byte	0
 2772 026c 2D       		.uleb128 0x2d
 2773 026d 05       		.uleb128 0x5
 2774 026e 00       		.byte	0
 2775 026f 49       		.uleb128 0x49
 2776 0270 13       		.uleb128 0x13
 2777 0271 00       		.byte	0
 2778 0272 00       		.byte	0
 2779 0273 2E       		.uleb128 0x2e
 2780 0274 2E       		.uleb128 0x2e
 2781 0275 00       		.byte	0
 2782 0276 3F       		.uleb128 0x3f
 2783 0277 0C       		.uleb128 0xc
 2784 0278 03       		.uleb128 0x3
 2785 0279 0E       		.uleb128 0xe
 2786 027a 3A       		.uleb128 0x3a
 2787 027b 0B       		.uleb128 0xb
 2788 027c 3B       		.uleb128 0x3b
 2789 027d 0B       		.uleb128 0xb
 2790 027e 27       		.uleb128 0x27
 2791 027f 0C       		.uleb128 0xc
 2792 0280 3C       		.uleb128 0x3c
 2793 0281 0C       		.uleb128 0xc
 2794 0282 00       		.byte	0
 2795 0283 00       		.byte	0
 2796 0284 2F       		.uleb128 0x2f
 2797 0285 2E       		.uleb128 0x2e
 2798 0286 01       		.byte	0x1
 2799 0287 3F       		.uleb128 0x3f
 2800 0288 0C       		.uleb128 0xc
 2801 0289 03       		.uleb128 0x3
 2802 028a 0E       		.uleb128 0xe
 2803 028b 3A       		.uleb128 0x3a
 2804 028c 0B       		.uleb128 0xb
 2805 028d 3B       		.uleb128 0x3b
 2806 028e 0B       		.uleb128 0xb
 2807 028f 27       		.uleb128 0x27
 2808 0290 0C       		.uleb128 0xc
 2809 0291 49       		.uleb128 0x49
 2810 0292 13       		.uleb128 0x13
 2811 0293 3C       		.uleb128 0x3c
 2812 0294 0C       		.uleb128 0xc
ARM GAS  /tmp/cclBIhyK.s 			page 51


 2813 0295 01       		.uleb128 0x1
 2814 0296 13       		.uleb128 0x13
 2815 0297 00       		.byte	0
 2816 0298 00       		.byte	0
 2817 0299 30       		.uleb128 0x30
 2818 029a 2E       		.uleb128 0x2e
 2819 029b 00       		.byte	0
 2820 029c 3F       		.uleb128 0x3f
 2821 029d 0C       		.uleb128 0xc
 2822 029e 03       		.uleb128 0x3
 2823 029f 0E       		.uleb128 0xe
 2824 02a0 3A       		.uleb128 0x3a
 2825 02a1 0B       		.uleb128 0xb
 2826 02a2 3B       		.uleb128 0x3b
 2827 02a3 0B       		.uleb128 0xb
 2828 02a4 27       		.uleb128 0x27
 2829 02a5 0C       		.uleb128 0xc
 2830 02a6 49       		.uleb128 0x49
 2831 02a7 13       		.uleb128 0x13
 2832 02a8 3C       		.uleb128 0x3c
 2833 02a9 0C       		.uleb128 0xc
 2834 02aa 00       		.byte	0
 2835 02ab 00       		.byte	0
 2836 02ac 31       		.uleb128 0x31
 2837 02ad 2E       		.uleb128 0x2e
 2838 02ae 01       		.byte	0x1
 2839 02af 3F       		.uleb128 0x3f
 2840 02b0 0C       		.uleb128 0xc
 2841 02b1 03       		.uleb128 0x3
 2842 02b2 0E       		.uleb128 0xe
 2843 02b3 3A       		.uleb128 0x3a
 2844 02b4 0B       		.uleb128 0xb
 2845 02b5 3B       		.uleb128 0x3b
 2846 02b6 0B       		.uleb128 0xb
 2847 02b7 27       		.uleb128 0x27
 2848 02b8 0C       		.uleb128 0xc
 2849 02b9 49       		.uleb128 0x49
 2850 02ba 13       		.uleb128 0x13
 2851 02bb 3C       		.uleb128 0x3c
 2852 02bc 0C       		.uleb128 0xc
 2853 02bd 00       		.byte	0
 2854 02be 00       		.byte	0
 2855 02bf 00       		.byte	0
 2856              		.section	.debug_loc,"",%progbits
 2857              	.Ldebug_loc0:
 2858              	.LLST0:
 2859 0000 00000000 		.4byte	.LFB7
 2860 0004 02000000 		.4byte	.LCFI0
 2861 0008 0200     		.2byte	0x2
 2862 000a 7D       		.byte	0x7d
 2863 000b 00       		.sleb128 0
 2864 000c 02000000 		.4byte	.LCFI0
 2865 0010 18000000 		.4byte	.LFE7
 2866 0014 0200     		.2byte	0x2
 2867 0016 7D       		.byte	0x7d
 2868 0017 08       		.sleb128 8
 2869 0018 00000000 		.4byte	0
ARM GAS  /tmp/cclBIhyK.s 			page 52


 2870 001c 00000000 		.4byte	0
 2871              	.LLST1:
 2872 0020 00000000 		.4byte	.LVL0
 2873 0024 06000000 		.4byte	.LVL1
 2874 0028 0100     		.2byte	0x1
 2875 002a 50       		.byte	0x50
 2876 002b 06000000 		.4byte	.LVL1
 2877 002f 0C000000 		.4byte	.LVL2
 2878 0033 0100     		.2byte	0x1
 2879 0035 54       		.byte	0x54
 2880 0036 0C000000 		.4byte	.LVL2
 2881 003a 0E000000 		.4byte	.LVL3
 2882 003e 0100     		.2byte	0x1
 2883 0040 50       		.byte	0x50
 2884 0041 0E000000 		.4byte	.LVL3
 2885 0045 18000000 		.4byte	.LFE7
 2886 0049 0100     		.2byte	0x1
 2887 004b 54       		.byte	0x54
 2888 004c 00000000 		.4byte	0
 2889 0050 00000000 		.4byte	0
 2890              	.LLST2:
 2891 0054 00000000 		.4byte	.LFB8
 2892 0058 02000000 		.4byte	.LCFI1
 2893 005c 0200     		.2byte	0x2
 2894 005e 7D       		.byte	0x7d
 2895 005f 00       		.sleb128 0
 2896 0060 02000000 		.4byte	.LCFI1
 2897 0064 3C000000 		.4byte	.LFE8
 2898 0068 0200     		.2byte	0x2
 2899 006a 7D       		.byte	0x7d
 2900 006b 08       		.sleb128 8
 2901 006c 00000000 		.4byte	0
 2902 0070 00000000 		.4byte	0
 2903              	.LLST3:
 2904 0074 00000000 		.4byte	.LVL5
 2905 0078 06000000 		.4byte	.LVL6
 2906 007c 0100     		.2byte	0x1
 2907 007e 50       		.byte	0x50
 2908 007f 06000000 		.4byte	.LVL6
 2909 0083 2E000000 		.4byte	.LVL15
 2910 0087 0100     		.2byte	0x1
 2911 0089 54       		.byte	0x54
 2912 008a 2E000000 		.4byte	.LVL15
 2913 008e 30000000 		.4byte	.LVL16
 2914 0092 0100     		.2byte	0x1
 2915 0094 50       		.byte	0x50
 2916 0095 30000000 		.4byte	.LVL16
 2917 0099 3C000000 		.4byte	.LFE8
 2918 009d 0100     		.2byte	0x1
 2919 009f 54       		.byte	0x54
 2920 00a0 00000000 		.4byte	0
 2921 00a4 00000000 		.4byte	0
 2922              	.LLST4:
 2923 00a8 0C000000 		.4byte	.LVL8
 2924 00ac 0F000000 		.4byte	.LVL9-1
 2925 00b0 0100     		.2byte	0x1
 2926 00b2 53       		.byte	0x53
ARM GAS  /tmp/cclBIhyK.s 			page 53


 2927 00b3 00000000 		.4byte	0
 2928 00b7 00000000 		.4byte	0
 2929              	.LLST5:
 2930 00bb 16000000 		.4byte	.LVL10
 2931 00bf 22000000 		.4byte	.LVL11
 2932 00c3 0100     		.2byte	0x1
 2933 00c5 54       		.byte	0x54
 2934 00c6 00000000 		.4byte	0
 2935 00ca 00000000 		.4byte	0
 2936              	.LLST6:
 2937 00ce 16000000 		.4byte	.LVL10
 2938 00d2 21000000 		.4byte	.LVL11-1
 2939 00d6 0100     		.2byte	0x1
 2940 00d8 50       		.byte	0x50
 2941 00d9 00000000 		.4byte	0
 2942 00dd 00000000 		.4byte	0
 2943              	.LLST7:
 2944 00e1 2C000000 		.4byte	.LVL14
 2945 00e5 2E000000 		.4byte	.LVL15
 2946 00e9 0100     		.2byte	0x1
 2947 00eb 53       		.byte	0x53
 2948 00ec 00000000 		.4byte	0
 2949 00f0 00000000 		.4byte	0
 2950              	.LLST8:
 2951 00f4 00000000 		.4byte	.LFB9
 2952 00f8 02000000 		.4byte	.LCFI2
 2953 00fc 0200     		.2byte	0x2
 2954 00fe 7D       		.byte	0x7d
 2955 00ff 00       		.sleb128 0
 2956 0100 02000000 		.4byte	.LCFI2
 2957 0104 2C000000 		.4byte	.LFE9
 2958 0108 0200     		.2byte	0x2
 2959 010a 7D       		.byte	0x7d
 2960 010b 08       		.sleb128 8
 2961 010c 00000000 		.4byte	0
 2962 0110 00000000 		.4byte	0
 2963              	.LLST9:
 2964 0114 00000000 		.4byte	.LVL18
 2965 0118 07000000 		.4byte	.LVL19-1
 2966 011c 0100     		.2byte	0x1
 2967 011e 50       		.byte	0x50
 2968 011f 07000000 		.4byte	.LVL19-1
 2969 0123 2C000000 		.4byte	.LFE9
 2970 0127 0100     		.2byte	0x1
 2971 0129 54       		.byte	0x54
 2972 012a 00000000 		.4byte	0
 2973 012e 00000000 		.4byte	0
 2974              	.LLST10:
 2975 0132 10000000 		.4byte	.LVL20
 2976 0136 1E000000 		.4byte	.LVL22
 2977 013a 0100     		.2byte	0x1
 2978 013c 54       		.byte	0x54
 2979 013d 00000000 		.4byte	0
 2980 0141 00000000 		.4byte	0
 2981              	.LLST11:
 2982 0145 10000000 		.4byte	.LVL20
 2983 0149 19000000 		.4byte	.LVL21-1
ARM GAS  /tmp/cclBIhyK.s 			page 54


 2984 014d 0100     		.2byte	0x1
 2985 014f 50       		.byte	0x50
 2986 0150 00000000 		.4byte	0
 2987 0154 00000000 		.4byte	0
 2988              	.LLST12:
 2989 0158 00000000 		.4byte	.LFB11
 2990 015c 02000000 		.4byte	.LCFI3
 2991 0160 0200     		.2byte	0x2
 2992 0162 7D       		.byte	0x7d
 2993 0163 00       		.sleb128 0
 2994 0164 02000000 		.4byte	.LCFI3
 2995 0168 34000000 		.4byte	.LFE11
 2996 016c 0200     		.2byte	0x2
 2997 016e 7D       		.byte	0x7d
 2998 016f 10       		.sleb128 16
 2999 0170 00000000 		.4byte	0
 3000 0174 00000000 		.4byte	0
 3001              	.LLST13:
 3002 0178 00000000 		.4byte	.LVL24
 3003 017c 07000000 		.4byte	.LVL25-1
 3004 0180 0100     		.2byte	0x1
 3005 0182 50       		.byte	0x50
 3006 0183 07000000 		.4byte	.LVL25-1
 3007 0187 34000000 		.4byte	.LFE11
 3008 018b 0100     		.2byte	0x1
 3009 018d 54       		.byte	0x54
 3010 018e 00000000 		.4byte	0
 3011 0192 00000000 		.4byte	0
 3012              	.LLST14:
 3013 0196 14000000 		.4byte	.LVL26
 3014 019a 26000000 		.4byte	.LVL28
 3015 019e 0100     		.2byte	0x1
 3016 01a0 54       		.byte	0x54
 3017 01a1 00000000 		.4byte	0
 3018 01a5 00000000 		.4byte	0
 3019              	.LLST15:
 3020 01a9 14000000 		.4byte	.LVL26
 3021 01ad 1D000000 		.4byte	.LVL27-1
 3022 01b1 0100     		.2byte	0x1
 3023 01b3 50       		.byte	0x50
 3024 01b4 00000000 		.4byte	0
 3025 01b8 00000000 		.4byte	0
 3026              	.LLST16:
 3027 01bc 00000000 		.4byte	.LFB10
 3028 01c0 02000000 		.4byte	.LCFI4
 3029 01c4 0200     		.2byte	0x2
 3030 01c6 7D       		.byte	0x7d
 3031 01c7 00       		.sleb128 0
 3032 01c8 02000000 		.4byte	.LCFI4
 3033 01cc 24000000 		.4byte	.LFE10
 3034 01d0 0200     		.2byte	0x2
 3035 01d2 7D       		.byte	0x7d
 3036 01d3 08       		.sleb128 8
 3037 01d4 00000000 		.4byte	0
 3038 01d8 00000000 		.4byte	0
 3039              	.LLST17:
 3040 01dc 00000000 		.4byte	.LVL30
ARM GAS  /tmp/cclBIhyK.s 			page 55


 3041 01e0 0D000000 		.4byte	.LVL33-1
 3042 01e4 0100     		.2byte	0x1
 3043 01e6 50       		.byte	0x50
 3044 01e7 0D000000 		.4byte	.LVL33-1
 3045 01eb 24000000 		.4byte	.LFE10
 3046 01ef 0100     		.2byte	0x1
 3047 01f1 54       		.byte	0x54
 3048 01f2 00000000 		.4byte	0
 3049 01f6 00000000 		.4byte	0
 3050              	.LLST18:
 3051 01fa 0A000000 		.4byte	.LVL32
 3052 01fe 0D000000 		.4byte	.LVL33-1
 3053 0202 0100     		.2byte	0x1
 3054 0204 53       		.byte	0x53
 3055 0205 00000000 		.4byte	0
 3056 0209 00000000 		.4byte	0
 3057              	.LLST19:
 3058 020d 22000000 		.4byte	.LVL38
 3059 0211 24000000 		.4byte	.LFE10
 3060 0215 0100     		.2byte	0x1
 3061 0217 53       		.byte	0x53
 3062 0218 00000000 		.4byte	0
 3063 021c 00000000 		.4byte	0
 3064              	.LLST20:
 3065 0220 00000000 		.4byte	.LFB13
 3066 0224 02000000 		.4byte	.LCFI5
 3067 0228 0200     		.2byte	0x2
 3068 022a 7D       		.byte	0x7d
 3069 022b 00       		.sleb128 0
 3070 022c 02000000 		.4byte	.LCFI5
 3071 0230 6C000000 		.4byte	.LFE13
 3072 0234 0200     		.2byte	0x2
 3073 0236 7D       		.byte	0x7d
 3074 0237 18       		.sleb128 24
 3075 0238 00000000 		.4byte	0
 3076 023c 00000000 		.4byte	0
 3077              	.LLST21:
 3078 0240 00000000 		.4byte	.LVL39
 3079 0244 0B000000 		.4byte	.LVL41-1
 3080 0248 0100     		.2byte	0x1
 3081 024a 50       		.byte	0x50
 3082 024b 0B000000 		.4byte	.LVL41-1
 3083 024f 6C000000 		.4byte	.LFE13
 3084 0253 0100     		.2byte	0x1
 3085 0255 55       		.byte	0x55
 3086 0256 00000000 		.4byte	0
 3087 025a 00000000 		.4byte	0
 3088              	.LLST22:
 3089 025e 08000000 		.4byte	.LVL40
 3090 0262 40000000 		.4byte	.LVL48
 3091 0266 0100     		.2byte	0x1
 3092 0268 54       		.byte	0x54
 3093 0269 4A000000 		.4byte	.LVL50
 3094 026d 6C000000 		.4byte	.LFE13
 3095 0271 0100     		.2byte	0x1
 3096 0273 54       		.byte	0x54
 3097 0274 00000000 		.4byte	0
ARM GAS  /tmp/cclBIhyK.s 			page 56


 3098 0278 00000000 		.4byte	0
 3099              	.LLST23:
 3100 027c 1A000000 		.4byte	.LVL43
 3101 0280 30000000 		.4byte	.LVL46
 3102 0284 0100     		.2byte	0x1
 3103 0286 50       		.byte	0x50
 3104 0287 30000000 		.4byte	.LVL46
 3105 028b 4A000000 		.4byte	.LVL50
 3106 028f 0100     		.2byte	0x1
 3107 0291 57       		.byte	0x57
 3108 0292 4A000000 		.4byte	.LVL50
 3109 0296 4E000000 		.4byte	.LVL51
 3110 029a 0100     		.2byte	0x1
 3111 029c 50       		.byte	0x50
 3112 029d 00000000 		.4byte	0
 3113 02a1 00000000 		.4byte	0
 3114              	.LLST24:
 3115 02a5 40000000 		.4byte	.LVL48
 3116 02a9 4A000000 		.4byte	.LVL50
 3117 02ad 0100     		.2byte	0x1
 3118 02af 54       		.byte	0x54
 3119 02b0 00000000 		.4byte	0
 3120 02b4 00000000 		.4byte	0
 3121              	.LLST25:
 3122 02b8 1A000000 		.4byte	.LVL43
 3123 02bc 20000000 		.4byte	.LVL44
 3124 02c0 0100     		.2byte	0x1
 3125 02c2 56       		.byte	0x56
 3126 02c3 20000000 		.4byte	.LVL44
 3127 02c7 4E000000 		.4byte	.LVL51
 3128 02cb 0100     		.2byte	0x1
 3129 02cd 55       		.byte	0x55
 3130 02ce 00000000 		.4byte	0
 3131 02d2 00000000 		.4byte	0
 3132              	.LLST26:
 3133 02d6 1A000000 		.4byte	.LVL43
 3134 02da 40000000 		.4byte	.LVL48
 3135 02de 0100     		.2byte	0x1
 3136 02e0 54       		.byte	0x54
 3137 02e1 4A000000 		.4byte	.LVL50
 3138 02e5 4E000000 		.4byte	.LVL51
 3139 02e9 0100     		.2byte	0x1
 3140 02eb 54       		.byte	0x54
 3141 02ec 00000000 		.4byte	0
 3142 02f0 00000000 		.4byte	0
 3143              	.LLST27:
 3144 02f4 1A000000 		.4byte	.LVL43
 3145 02f8 20000000 		.4byte	.LVL44
 3146 02fc 0100     		.2byte	0x1
 3147 02fe 56       		.byte	0x56
 3148 02ff 20000000 		.4byte	.LVL44
 3149 0303 3D000000 		.4byte	.LVL47-1
 3150 0307 0100     		.2byte	0x1
 3151 0309 53       		.byte	0x53
 3152 030a 4A000000 		.4byte	.LVL50
 3153 030e 4E000000 		.4byte	.LVL51
 3154 0312 0100     		.2byte	0x1
ARM GAS  /tmp/cclBIhyK.s 			page 57


 3155 0314 53       		.byte	0x53
 3156 0315 00000000 		.4byte	0
 3157 0319 00000000 		.4byte	0
 3158              	.LLST28:
 3159 031d 00000000 		.4byte	.LFB12
 3160 0321 02000000 		.4byte	.LCFI6
 3161 0325 0200     		.2byte	0x2
 3162 0327 7D       		.byte	0x7d
 3163 0328 00       		.sleb128 0
 3164 0329 02000000 		.4byte	.LCFI6
 3165 032d 24000000 		.4byte	.LFE12
 3166 0331 0200     		.2byte	0x2
 3167 0333 7D       		.byte	0x7d
 3168 0334 08       		.sleb128 8
 3169 0335 00000000 		.4byte	0
 3170 0339 00000000 		.4byte	0
 3171              	.LLST29:
 3172 033d 00000000 		.4byte	.LVL54
 3173 0341 0D000000 		.4byte	.LVL57-1
 3174 0345 0100     		.2byte	0x1
 3175 0347 50       		.byte	0x50
 3176 0348 0D000000 		.4byte	.LVL57-1
 3177 034c 16000000 		.4byte	.LVL59
 3178 0350 0100     		.2byte	0x1
 3179 0352 54       		.byte	0x54
 3180 0353 16000000 		.4byte	.LVL59
 3181 0357 24000000 		.4byte	.LFE12
 3182 035b 0400     		.2byte	0x4
 3183 035d F3       		.byte	0xf3
 3184 035e 01       		.uleb128 0x1
 3185 035f 50       		.byte	0x50
 3186 0360 9F       		.byte	0x9f
 3187 0361 00000000 		.4byte	0
 3188 0365 00000000 		.4byte	0
 3189              	.LLST30:
 3190 0369 16000000 		.4byte	.LVL59
 3191 036d 19000000 		.4byte	.LVL60-1
 3192 0371 0100     		.2byte	0x1
 3193 0373 50       		.byte	0x50
 3194 0374 19000000 		.4byte	.LVL60-1
 3195 0378 24000000 		.4byte	.LFE12
 3196 037c 0100     		.2byte	0x1
 3197 037e 54       		.byte	0x54
 3198 037f 00000000 		.4byte	0
 3199 0383 00000000 		.4byte	0
 3200              	.LLST31:
 3201 0387 0A000000 		.4byte	.LVL56
 3202 038b 0D000000 		.4byte	.LVL57-1
 3203 038f 0100     		.2byte	0x1
 3204 0391 53       		.byte	0x53
 3205 0392 00000000 		.4byte	0
 3206 0396 00000000 		.4byte	0
 3207              	.LLST32:
 3208 039a 20000000 		.4byte	.LVL62
 3209 039e 24000000 		.4byte	.LFE12
 3210 03a2 0100     		.2byte	0x1
 3211 03a4 53       		.byte	0x53
ARM GAS  /tmp/cclBIhyK.s 			page 58


 3212 03a5 00000000 		.4byte	0
 3213 03a9 00000000 		.4byte	0
 3214              	.LLST33:
 3215 03ad 00000000 		.4byte	.LFB15
 3216 03b1 02000000 		.4byte	.LCFI7
 3217 03b5 0200     		.2byte	0x2
 3218 03b7 7D       		.byte	0x7d
 3219 03b8 00       		.sleb128 0
 3220 03b9 02000000 		.4byte	.LCFI7
 3221 03bd 70000000 		.4byte	.LFE15
 3222 03c1 0200     		.2byte	0x2
 3223 03c3 7D       		.byte	0x7d
 3224 03c4 18       		.sleb128 24
 3225 03c5 00000000 		.4byte	0
 3226 03c9 00000000 		.4byte	0
 3227              	.LLST34:
 3228 03cd 00000000 		.4byte	.LVL63
 3229 03d1 09000000 		.4byte	.LVL64-1
 3230 03d5 0100     		.2byte	0x1
 3231 03d7 50       		.byte	0x50
 3232 03d8 09000000 		.4byte	.LVL64-1
 3233 03dc 70000000 		.4byte	.LFE15
 3234 03e0 0100     		.2byte	0x1
 3235 03e2 56       		.byte	0x56
 3236 03e3 00000000 		.4byte	0
 3237 03e7 00000000 		.4byte	0
 3238              	.LLST35:
 3239 03eb 00000000 		.4byte	.LVL63
 3240 03ef 09000000 		.4byte	.LVL64-1
 3241 03f3 0100     		.2byte	0x1
 3242 03f5 51       		.byte	0x51
 3243 03f6 09000000 		.4byte	.LVL64-1
 3244 03fa 70000000 		.4byte	.LFE15
 3245 03fe 0100     		.2byte	0x1
 3246 0400 55       		.byte	0x55
 3247 0401 00000000 		.4byte	0
 3248 0405 00000000 		.4byte	0
 3249              	.LLST36:
 3250 0409 1E000000 		.4byte	.LVL66
 3251 040d 32000000 		.4byte	.LVL69
 3252 0411 0100     		.2byte	0x1
 3253 0413 50       		.byte	0x50
 3254 0414 32000000 		.4byte	.LVL69
 3255 0418 52000000 		.4byte	.LVL74
 3256 041c 0100     		.2byte	0x1
 3257 041e 57       		.byte	0x57
 3258 041f 00000000 		.4byte	0
 3259 0423 00000000 		.4byte	0
 3260              	.LLST37:
 3261 0427 46000000 		.4byte	.LVL71
 3262 042b 4A000000 		.4byte	.LVL72
 3263 042f 0100     		.2byte	0x1
 3264 0431 50       		.byte	0x50
 3265 0432 4A000000 		.4byte	.LVL72
 3266 0436 52000000 		.4byte	.LVL74
 3267 043a 0100     		.2byte	0x1
 3268 043c 54       		.byte	0x54
ARM GAS  /tmp/cclBIhyK.s 			page 59


 3269 043d 00000000 		.4byte	0
 3270 0441 00000000 		.4byte	0
 3271              	.LLST38:
 3272 0445 22000000 		.4byte	.LVL67
 3273 0449 52000000 		.4byte	.LVL74
 3274 044d 0100     		.2byte	0x1
 3275 044f 56       		.byte	0x56
 3276 0450 00000000 		.4byte	0
 3277 0454 00000000 		.4byte	0
 3278              	.LLST39:
 3279 0458 22000000 		.4byte	.LVL67
 3280 045c 41000000 		.4byte	.LVL70-1
 3281 0460 0100     		.2byte	0x1
 3282 0462 52       		.byte	0x52
 3283 0463 00000000 		.4byte	0
 3284 0467 00000000 		.4byte	0
 3285              	.LLST40:
 3286 046b 22000000 		.4byte	.LVL67
 3287 046f 41000000 		.4byte	.LVL70-1
 3288 0473 0100     		.2byte	0x1
 3289 0475 53       		.byte	0x53
 3290 0476 00000000 		.4byte	0
 3291 047a 00000000 		.4byte	0
 3292              	.LLST41:
 3293 047e 00000000 		.4byte	.LFB14
 3294 0482 02000000 		.4byte	.LCFI8
 3295 0486 0200     		.2byte	0x2
 3296 0488 7D       		.byte	0x7d
 3297 0489 00       		.sleb128 0
 3298 048a 02000000 		.4byte	.LCFI8
 3299 048e 28000000 		.4byte	.LFE14
 3300 0492 0200     		.2byte	0x2
 3301 0494 7D       		.byte	0x7d
 3302 0495 10       		.sleb128 16
 3303 0496 00000000 		.4byte	0
 3304 049a 00000000 		.4byte	0
 3305              	.LLST42:
 3306 049e 00000000 		.4byte	.LVL77
 3307 04a2 0F000000 		.4byte	.LVL80-1
 3308 04a6 0100     		.2byte	0x1
 3309 04a8 50       		.byte	0x50
 3310 04a9 0F000000 		.4byte	.LVL80-1
 3311 04ad 28000000 		.4byte	.LFE14
 3312 04b1 0100     		.2byte	0x1
 3313 04b3 55       		.byte	0x55
 3314 04b4 00000000 		.4byte	0
 3315 04b8 00000000 		.4byte	0
 3316              	.LLST43:
 3317 04bc 00000000 		.4byte	.LVL77
 3318 04c0 0F000000 		.4byte	.LVL80-1
 3319 04c4 0100     		.2byte	0x1
 3320 04c6 51       		.byte	0x51
 3321 04c7 0F000000 		.4byte	.LVL80-1
 3322 04cb 1A000000 		.4byte	.LVL82
 3323 04cf 0100     		.2byte	0x1
 3324 04d1 54       		.byte	0x54
 3325 04d2 1A000000 		.4byte	.LVL82
ARM GAS  /tmp/cclBIhyK.s 			page 60


 3326 04d6 28000000 		.4byte	.LFE14
 3327 04da 0400     		.2byte	0x4
 3328 04dc F3       		.byte	0xf3
 3329 04dd 01       		.uleb128 0x1
 3330 04de 51       		.byte	0x51
 3331 04df 9F       		.byte	0x9f
 3332 04e0 00000000 		.4byte	0
 3333 04e4 00000000 		.4byte	0
 3334              	.LLST44:
 3335 04e8 1A000000 		.4byte	.LVL82
 3336 04ec 1D000000 		.4byte	.LVL83-1
 3337 04f0 0100     		.2byte	0x1
 3338 04f2 50       		.byte	0x50
 3339 04f3 1D000000 		.4byte	.LVL83-1
 3340 04f7 28000000 		.4byte	.LFE14
 3341 04fb 0100     		.2byte	0x1
 3342 04fd 54       		.byte	0x54
 3343 04fe 00000000 		.4byte	0
 3344 0502 00000000 		.4byte	0
 3345              	.LLST45:
 3346 0506 0C000000 		.4byte	.LVL79
 3347 050a 0F000000 		.4byte	.LVL80-1
 3348 050e 0100     		.2byte	0x1
 3349 0510 53       		.byte	0x53
 3350 0511 00000000 		.4byte	0
 3351 0515 00000000 		.4byte	0
 3352              	.LLST46:
 3353 0519 24000000 		.4byte	.LVL85
 3354 051d 28000000 		.4byte	.LFE14
 3355 0521 0100     		.2byte	0x1
 3356 0523 53       		.byte	0x53
 3357 0524 00000000 		.4byte	0
 3358 0528 00000000 		.4byte	0
 3359              		.section	.debug_aranges,"",%progbits
 3360 0000 5C000000 		.4byte	0x5c
 3361 0004 0200     		.2byte	0x2
 3362 0006 00000000 		.4byte	.Ldebug_info0
 3363 000a 04       		.byte	0x4
 3364 000b 00       		.byte	0
 3365 000c 0000     		.2byte	0
 3366 000e 0000     		.2byte	0
 3367 0010 00000000 		.4byte	.LFB7
 3368 0014 18000000 		.4byte	.LFE7-.LFB7
 3369 0018 00000000 		.4byte	.LFB8
 3370 001c 3C000000 		.4byte	.LFE8-.LFB8
 3371 0020 00000000 		.4byte	.LFB9
 3372 0024 2C000000 		.4byte	.LFE9-.LFB9
 3373 0028 00000000 		.4byte	.LFB11
 3374 002c 34000000 		.4byte	.LFE11-.LFB11
 3375 0030 00000000 		.4byte	.LFB10
 3376 0034 24000000 		.4byte	.LFE10-.LFB10
 3377 0038 00000000 		.4byte	.LFB13
 3378 003c 6C000000 		.4byte	.LFE13-.LFB13
 3379 0040 00000000 		.4byte	.LFB12
 3380 0044 24000000 		.4byte	.LFE12-.LFB12
 3381 0048 00000000 		.4byte	.LFB15
 3382 004c 70000000 		.4byte	.LFE15-.LFB15
ARM GAS  /tmp/cclBIhyK.s 			page 61


 3383 0050 00000000 		.4byte	.LFB14
 3384 0054 28000000 		.4byte	.LFE14-.LFB14
 3385 0058 00000000 		.4byte	0
 3386 005c 00000000 		.4byte	0
 3387              		.section	.debug_ranges,"",%progbits
 3388              	.Ldebug_ranges0:
 3389 0000 16000000 		.4byte	.LBB15
 3390 0004 18000000 		.4byte	.LBE15
 3391 0008 1A000000 		.4byte	.LBB18
 3392 000c 1E000000 		.4byte	.LBE18
 3393 0010 00000000 		.4byte	0
 3394 0014 00000000 		.4byte	0
 3395 0018 16000000 		.4byte	.LBB16
 3396 001c 18000000 		.4byte	.LBE16
 3397 0020 1A000000 		.4byte	.LBB17
 3398 0024 1E000000 		.4byte	.LBE17
 3399 0028 00000000 		.4byte	0
 3400 002c 00000000 		.4byte	0
 3401 0030 02000000 		.4byte	.LBB24
 3402 0034 04000000 		.4byte	.LBE24
 3403 0038 06000000 		.4byte	.LBB25
 3404 003c 0A000000 		.4byte	.LBE25
 3405 0040 00000000 		.4byte	0
 3406 0044 00000000 		.4byte	0
 3407 0048 20000000 		.4byte	.LBB27
 3408 004c 38000000 		.4byte	.LBE27
 3409 0050 4A000000 		.4byte	.LBB30
 3410 0054 4E000000 		.4byte	.LBE30
 3411 0058 00000000 		.4byte	0
 3412 005c 00000000 		.4byte	0
 3413 0060 20000000 		.4byte	.LBB28
 3414 0064 38000000 		.4byte	.LBE28
 3415 0068 4A000000 		.4byte	.LBB29
 3416 006c 4E000000 		.4byte	.LBE29
 3417 0070 00000000 		.4byte	0
 3418 0074 00000000 		.4byte	0
 3419 0078 02000000 		.4byte	.LBB31
 3420 007c 04000000 		.4byte	.LBE31
 3421 0080 06000000 		.4byte	.LBB32
 3422 0084 0A000000 		.4byte	.LBE32
 3423 0088 00000000 		.4byte	0
 3424 008c 00000000 		.4byte	0
 3425 0090 00000000 		.4byte	.LFB7
 3426 0094 18000000 		.4byte	.LFE7
 3427 0098 00000000 		.4byte	.LFB8
 3428 009c 3C000000 		.4byte	.LFE8
 3429 00a0 00000000 		.4byte	.LFB9
 3430 00a4 2C000000 		.4byte	.LFE9
 3431 00a8 00000000 		.4byte	.LFB11
 3432 00ac 34000000 		.4byte	.LFE11
 3433 00b0 00000000 		.4byte	.LFB10
 3434 00b4 24000000 		.4byte	.LFE10
 3435 00b8 00000000 		.4byte	.LFB13
 3436 00bc 6C000000 		.4byte	.LFE13
 3437 00c0 00000000 		.4byte	.LFB12
 3438 00c4 24000000 		.4byte	.LFE12
 3439 00c8 00000000 		.4byte	.LFB15
ARM GAS  /tmp/cclBIhyK.s 			page 62


 3440 00cc 70000000 		.4byte	.LFE15
 3441 00d0 00000000 		.4byte	.LFB14
 3442 00d4 28000000 		.4byte	.LFE14
 3443 00d8 00000000 		.4byte	0
 3444 00dc 00000000 		.4byte	0
 3445              		.section	.debug_line,"",%progbits
 3446              	.Ldebug_line0:
 3447 0000 F4020000 		.section	.debug_str,"MS",%progbits,1
 3447      02008B01 
 3447      00000201 
 3447      FB0E0D00 
 3447      01010101 
 3448              	.LASF37:
 3449 0000 705F6D73 		.ascii	"p_msg\000"
 3449      6700
 3450              	.LASF77:
 3451 0006 63684462 		.ascii	"chDbgPanic\000"
 3451      6750616E 
 3451      696300
 3452              	.LASF67:
 3453 0011 6368436F 		.ascii	"chCondInit\000"
 3453      6E64496E 
 3453      697400
 3454              	.LASF62:
 3455 001c 7264796D 		.ascii	"rdymsg\000"
 3455      736700
 3456              	.LASF11:
 3457 0023 75696E74 		.ascii	"uint64_t\000"
 3457      36345F74 
 3457      00
 3458              	.LASF12:
 3459 002c 6C6F6E67 		.ascii	"long long unsigned int\000"
 3459      206C6F6E 
 3459      6720756E 
 3459      7369676E 
 3459      65642069 
 3460              	.LASF63:
 3461 0043 65786974 		.ascii	"exitcode\000"
 3461      636F6465 
 3461      00
 3462              	.LASF70:
 3463 004c 6368436F 		.ascii	"chCondBroadcastI\000"
 3463      6E644272 
 3463      6F616463 
 3463      61737449 
 3463      00
 3464              	.LASF24:
 3465 005d 705F7072 		.ascii	"p_prio\000"
 3465      696F00
 3466              	.LASF10:
 3467 0064 6C6F6E67 		.ascii	"long long int\000"
 3467      206C6F6E 
 3467      6720696E 
 3467      7400
 3468              	.LASF1:
 3469 0072 7369676E 		.ascii	"signed char\000"
 3469      65642063 
ARM GAS  /tmp/cclBIhyK.s 			page 63


 3469      68617200 
 3470              	.LASF41:
 3471 007e 705F6D70 		.ascii	"p_mpool\000"
 3471      6F6F6C00 
 3472              	.LASF57:
 3473 0086 6D5F7175 		.ascii	"m_queue\000"
 3473      65756500 
 3474              	.LASF16:
 3475 008e 74736C69 		.ascii	"tslices_t\000"
 3475      6365735F 
 3475      7400
 3476              	.LASF60:
 3477 0098 436F6E64 		.ascii	"CondVar\000"
 3477      56617200 
 3478              	.LASF7:
 3479 00a0 6C6F6E67 		.ascii	"long int\000"
 3479      20696E74 
 3479      00
 3480              	.LASF14:
 3481 00a9 74737461 		.ascii	"tstate_t\000"
 3481      74655F74 
 3481      00
 3482              	.LASF85:
 3483 00b2 63684D74 		.ascii	"chMtxLockS\000"
 3483      784C6F63 
 3483      6B5300
 3484              	.LASF26:
 3485 00bd 705F6E65 		.ascii	"p_newer\000"
 3485      77657200 
 3486              	.LASF82:
 3487 00c5 63685363 		.ascii	"chSchRescheduleS\000"
 3487      68526573 
 3487      63686564 
 3487      756C6553 
 3487      00
 3488              	.LASF52:
 3489 00d6 725F6E65 		.ascii	"r_newer\000"
 3489      77657200 
 3490              	.LASF44:
 3491 00de 72656761 		.ascii	"regarm_t\000"
 3491      726D5F74 
 3491      00
 3492              	.LASF68:
 3493 00e7 6368436F 		.ascii	"chCondSignal\000"
 3493      6E645369 
 3493      676E616C 
 3493      00
 3494              	.LASF29:
 3495 00f4 705F7374 		.ascii	"p_stklimit\000"
 3495      6B6C696D 
 3495      697400
 3496              	.LASF0:
 3497 00ff 756E7369 		.ascii	"unsigned int\000"
 3497      676E6564 
 3497      20696E74 
 3497      00
 3498              	.LASF9:
ARM GAS  /tmp/cclBIhyK.s 			page 64


 3499 010c 6C6F6E67 		.ascii	"long unsigned int\000"
 3499      20756E73 
 3499      69676E65 
 3499      6420696E 
 3499      7400
 3500              	.LASF47:
 3501 011e 636F6E74 		.ascii	"context\000"
 3501      65787400 
 3502              	.LASF4:
 3503 0126 73686F72 		.ascii	"short unsigned int\000"
 3503      7420756E 
 3503      7369676E 
 3503      65642069 
 3503      6E7400
 3504              	.LASF18:
 3505 0139 6D73675F 		.ascii	"msg_t\000"
 3505      7400
 3506              	.LASF90:
 3507 013f 7072696F 		.ascii	"prio_insert\000"
 3507      5F696E73 
 3507      65727400 
 3508              	.LASF81:
 3509 014b 63684462 		.ascii	"chDbgCheckClassI\000"
 3509      67436865 
 3509      636B436C 
 3509      61737349 
 3509      00
 3510              	.LASF13:
 3511 015c 746D6F64 		.ascii	"tmode_t\000"
 3511      655F7400 
 3512              	.LASF83:
 3513 0164 63684462 		.ascii	"chDbgCheckClassS\000"
 3513      67436865 
 3513      636B436C 
 3513      61737353 
 3513      00
 3514              	.LASF43:
 3515 0175 54687265 		.ascii	"ThreadsList\000"
 3515      6164734C 
 3515      69737400 
 3516              	.LASF19:
 3517 0181 6576656E 		.ascii	"eventmask_t\000"
 3517      746D6173 
 3517      6B5F7400 
 3518              	.LASF56:
 3519 018d 4D757465 		.ascii	"Mutex\000"
 3519      7800
 3520              	.LASF45:
 3521 0193 73746B61 		.ascii	"stkalign_t\000"
 3521      6C69676E 
 3521      5F7400
 3522              	.LASF88:
 3523 019e 2F686F6D 		.ascii	"/home/gokul/ChibiOS_2.5.0/os/kernel/src/chcond.c\000"
 3523      652F676F 
 3523      6B756C2F 
 3523      43686962 
 3523      694F535F 
ARM GAS  /tmp/cclBIhyK.s 			page 65


 3524              	.LASF80:
 3525 01cf 6462675F 		.ascii	"dbg_check_unlock\000"
 3525      63686563 
 3525      6B5F756E 
 3525      6C6F636B 
 3525      00
 3526              	.LASF48:
 3527 01e0 73697A65 		.ascii	"sizetype\000"
 3527      74797065 
 3527      00
 3528              	.LASF74:
 3529 01e9 6368436F 		.ascii	"chCondWaitTimeoutS\000"
 3529      6E645761 
 3529      69745469 
 3529      6D656F75 
 3529      745300
 3530              	.LASF27:
 3531 01fc 705F6F6C 		.ascii	"p_older\000"
 3531      64657200 
 3532              	.LASF51:
 3533 0204 725F6374 		.ascii	"r_ctx\000"
 3533      7800
 3534              	.LASF42:
 3535 020a 54687265 		.ascii	"ThreadsQueue\000"
 3535      61647351 
 3535      75657565 
 3535      00
 3536              	.LASF75:
 3537 0217 74696D65 		.ascii	"time\000"
 3537      00
 3538              	.LASF54:
 3539 021c 725F6375 		.ascii	"r_current\000"
 3539      7272656E 
 3539      7400
 3540              	.LASF53:
 3541 0226 725F6F6C 		.ascii	"r_older\000"
 3541      64657200 
 3542              	.LASF71:
 3543 022e 6368436F 		.ascii	"chCondBroadcast\000"
 3543      6E644272 
 3543      6F616463 
 3543      61737400 
 3544              	.LASF15:
 3545 023e 74726566 		.ascii	"trefs_t\000"
 3545      735F7400 
 3546              	.LASF23:
 3547 0246 705F7072 		.ascii	"p_prev\000"
 3547      657600
 3548              	.LASF17:
 3549 024d 74707269 		.ascii	"tprio_t\000"
 3549      6F5F7400 
 3550              	.LASF87:
 3551 0255 474E5520 		.ascii	"GNU C 4.7.3 20130312 (release) [ARM/embedded-4_7-br"
 3551      4320342E 
 3551      372E3320 
 3551      32303133 
 3551      30333132 
ARM GAS  /tmp/cclBIhyK.s 			page 66


 3552 0288 616E6368 		.ascii	"anch revision 196615]\000"
 3552      20726576 
 3552      6973696F 
 3552      6E203139 
 3552      36363135 
 3553              	.LASF69:
 3554 029e 6368436F 		.ascii	"chCondSignalI\000"
 3554      6E645369 
 3554      676E616C 
 3554      4900
 3555              	.LASF6:
 3556 02ac 696E7433 		.ascii	"int32_t\000"
 3556      325F7400 
 3557              	.LASF2:
 3558 02b4 756E7369 		.ascii	"unsigned char\000"
 3558      676E6564 
 3558      20636861 
 3558      7200
 3559              	.LASF39:
 3560 02c2 705F6D74 		.ascii	"p_mtxlist\000"
 3560      786C6973 
 3560      7400
 3561              	.LASF3:
 3562 02cc 73686F72 		.ascii	"short int\000"
 3562      7420696E 
 3562      7400
 3563              	.LASF30:
 3564 02d6 705F7374 		.ascii	"p_state\000"
 3564      61746500 
 3565              	.LASF33:
 3566 02de 705F7072 		.ascii	"p_preempt\000"
 3566      65656D70 
 3566      7400
 3567              	.LASF50:
 3568 02e8 725F7072 		.ascii	"r_prio\000"
 3568      696F00
 3569              	.LASF65:
 3570 02ef 65776D61 		.ascii	"ewmask\000"
 3570      736B00
 3571              	.LASF22:
 3572 02f6 705F6E65 		.ascii	"p_next\000"
 3572      787400
 3573              	.LASF31:
 3574 02fd 705F666C 		.ascii	"p_flags\000"
 3574      61677300 
 3575              	.LASF93:
 3576 0305 63684D74 		.ascii	"chMtxUnlockS\000"
 3576      78556E6C 
 3576      6F636B53 
 3576      00
 3577              	.LASF21:
 3578 0312 54687265 		.ascii	"Thread\000"
 3578      616400
 3579              	.LASF61:
 3580 0319 635F7175 		.ascii	"c_queue\000"
 3580      65756500 
 3581              	.LASF84:
ARM GAS  /tmp/cclBIhyK.s 			page 67


 3582 0321 63685363 		.ascii	"chSchGoSleepS\000"
 3582      68476F53 
 3582      6C656570 
 3582      5300
 3583              	.LASF38:
 3584 032f 705F6570 		.ascii	"p_epending\000"
 3584      656E6469 
 3584      6E6700
 3585              	.LASF8:
 3586 033a 75696E74 		.ascii	"uint32_t\000"
 3586      33325F74 
 3586      00
 3587              	.LASF49:
 3588 0343 725F7175 		.ascii	"r_queue\000"
 3588      65756500 
 3589              	.LASF92:
 3590 034b 63685363 		.ascii	"chSchReadyI\000"
 3590      68526561 
 3590      64794900 
 3591              	.LASF66:
 3592 0357 63686172 		.ascii	"char\000"
 3592      00
 3593              	.LASF89:
 3594 035c 6669666F 		.ascii	"fifo_remove\000"
 3594      5F72656D 
 3594      6F766500 
 3595              	.LASF72:
 3596 0368 6368436F 		.ascii	"chCondWaitS\000"
 3596      6E645761 
 3596      69745300 
 3597              	.LASF59:
 3598 0374 6D5F6E65 		.ascii	"m_next\000"
 3598      787400
 3599              	.LASF20:
 3600 037b 73797374 		.ascii	"systime_t\000"
 3600      696D655F 
 3600      7400
 3601              	.LASF40:
 3602 0385 705F7265 		.ascii	"p_realprio\000"
 3602      616C7072 
 3602      696F00
 3603              	.LASF73:
 3604 0390 6368436F 		.ascii	"chCondWait\000"
 3604      6E645761 
 3604      697400
 3605              	.LASF34:
 3606 039b 705F7469 		.ascii	"p_time\000"
 3606      6D6500
 3607              	.LASF46:
 3608 03a2 696E7463 		.ascii	"intctx\000"
 3608      747800
 3609              	.LASF36:
 3610 03a9 705F6D73 		.ascii	"p_msgqueue\000"
 3610      67717565 
 3610      756500
 3611              	.LASF78:
 3612 03b4 63685363 		.ascii	"chSchWakeupS\000"
ARM GAS  /tmp/cclBIhyK.s 			page 68


 3612      6857616B 
 3612      65757053 
 3612      00
 3613              	.LASF32:
 3614 03c1 705F7265 		.ascii	"p_refs\000"
 3614      667300
 3615              	.LASF55:
 3616 03c8 52656164 		.ascii	"ReadyList\000"
 3616      794C6973 
 3616      7400
 3617              	.LASF91:
 3618 03d2 726C6973 		.ascii	"rlist\000"
 3618      7400
 3619              	.LASF5:
 3620 03d8 75696E74 		.ascii	"uint8_t\000"
 3620      385F7400 
 3621              	.LASF64:
 3622 03e0 77746F62 		.ascii	"wtobjp\000"
 3622      6A7000
 3623              	.LASF28:
 3624 03e7 705F6E61 		.ascii	"p_name\000"
 3624      6D6500
 3625              	.LASF76:
 3626 03ee 6368436F 		.ascii	"chCondWaitTimeout\000"
 3626      6E645761 
 3626      69745469 
 3626      6D656F75 
 3626      7400
 3627              	.LASF86:
 3628 0400 63685363 		.ascii	"chSchGoSleepTimeoutS\000"
 3628      68476F53 
 3628      6C656570 
 3628      54696D65 
 3628      6F757453 
 3629              	.LASF58:
 3630 0415 6D5F6F77 		.ascii	"m_owner\000"
 3630      6E657200 
 3631              	.LASF79:
 3632 041d 6462675F 		.ascii	"dbg_check_lock\000"
 3632      63686563 
 3632      6B5F6C6F 
 3632      636B00
 3633              	.LASF25:
 3634 042c 705F6374 		.ascii	"p_ctx\000"
 3634      7800
 3635              	.LASF35:
 3636 0432 705F7761 		.ascii	"p_waiting\000"
 3636      6974696E 
 3636      6700
 3637              		.ident	"GCC: (GNU Tools for ARM Embedded Processors) 4.7.3 20130312 (release) [ARM/embedded-4_7-br
ARM GAS  /tmp/cclBIhyK.s 			page 69


DEFINED SYMBOLS
                            *ABS*:00000000 chcond.c
     /tmp/cclBIhyK.s:19     .text.chCondInit:00000000 $t
     /tmp/cclBIhyK.s:25     .text.chCondInit:00000000 chCondInit
     /tmp/cclBIhyK.s:58     .text.chCondInit:00000014 $d
     /tmp/cclBIhyK.s:63     .text.chCondSignal:00000000 $t
     /tmp/cclBIhyK.s:69     .text.chCondSignal:00000000 chCondSignal
     /tmp/cclBIhyK.s:147    .text.chCondSignal:00000038 $d
     /tmp/cclBIhyK.s:152    .text.chCondSignalI:00000000 $t
     /tmp/cclBIhyK.s:158    .text.chCondSignalI:00000000 chCondSignalI
     /tmp/cclBIhyK.s:208    .text.chCondSignalI:00000028 $d
     /tmp/cclBIhyK.s:213    .text.chCondBroadcastI:00000000 $t
     /tmp/cclBIhyK.s:219    .text.chCondBroadcastI:00000000 chCondBroadcastI
     /tmp/cclBIhyK.s:277    .text.chCondBroadcastI:00000030 $d
     /tmp/cclBIhyK.s:282    .text.chCondBroadcast:00000000 $t
     /tmp/cclBIhyK.s:288    .text.chCondBroadcast:00000000 chCondBroadcast
     /tmp/cclBIhyK.s:341    .text.chCondWaitS:00000000 $t
     /tmp/cclBIhyK.s:347    .text.chCondWaitS:00000000 chCondWaitS
     /tmp/cclBIhyK.s:461    .text.chCondWaitS:00000060 $d
     /tmp/cclBIhyK.s:468    .text.chCondWait:00000000 $t
     /tmp/cclBIhyK.s:474    .text.chCondWait:00000000 chCondWait
     /tmp/cclBIhyK.s:528    .text.chCondWaitTimeoutS:00000000 $t
     /tmp/cclBIhyK.s:534    .text.chCondWaitTimeoutS:00000000 chCondWaitTimeoutS
     /tmp/cclBIhyK.s:643    .text.chCondWaitTimeoutS:00000064 $d
     /tmp/cclBIhyK.s:650    .text.chCondWaitTimeout:00000000 $t
     /tmp/cclBIhyK.s:656    .text.chCondWaitTimeout:00000000 chCondWaitTimeout
     /tmp/cclBIhyK.s:711    .rodata.str1.4:00000000 $d
                     .debug_frame:00000010 $d
     /tmp/cclBIhyK.s:62     .text.chCondInit:00000018 $t
     /tmp/cclBIhyK.s:151    .text.chCondSignal:0000003c $t
     /tmp/cclBIhyK.s:212    .text.chCondSignalI:0000002c $t
     /tmp/cclBIhyK.s:281    .text.chCondBroadcastI:00000034 $t
     /tmp/cclBIhyK.s:467    .text.chCondWaitS:0000006c $t

UNDEFINED SYMBOLS
chDbgPanic
dbg_check_lock
chSchWakeupS
dbg_check_unlock
chDbgCheckClassI
chSchReadyI
chSchRescheduleS
chDbgCheckClassS
chMtxUnlockS
chSchGoSleepS
chMtxLockS
rlist
chSchGoSleepTimeoutS
