ARM GAS  /tmp/ccNDKjOb.s 			page 1


   1              		.syntax unified
   2              		.cpu cortex-m4
   3              		.fpu softvfp
   4              		.eabi_attribute 20, 1
   5              		.eabi_attribute 21, 1
   6              		.eabi_attribute 23, 3
   7              		.eabi_attribute 24, 1
   8              		.eabi_attribute 25, 1
   9              		.eabi_attribute 26, 1
  10              		.eabi_attribute 30, 2
  11              		.eabi_attribute 34, 1
  12              		.eabi_attribute 18, 4
  13              		.thumb
  14              		.file	"chqueues.c"
  15              		.text
  16              	.Ltext0:
  17              		.cfi_sections	.debug_frame
  18              		.section	.text.qwait,"ax",%progbits
  19              		.align	2
  20              		.p2align 4,,15
  21              		.thumb
  22              		.thumb_func
  23              		.type	qwait, %function
  24              	qwait:
  25              	.LFB7:
  26              		.file 1 "/home/gokul/ChibiOS_2.5.0/os/kernel/src/chqueues.c"
  27              		.loc 1 63 0
  28              		.cfi_startproc
  29              		@ args = 0, pretend = 0, frame = 0
  30              		@ frame_needed = 0, uses_anonymous_args = 0
  31              		@ link register save eliminated.
  32              	.LVL0:
  33 0000 10B4     		push	{r4}
  34              	.LCFI0:
  35              		.cfi_def_cfa_offset 4
  36              		.cfi_offset 4, -4
  37              		.loc 1 63 0
  38 0002 0246     		mov	r2, r0
  39              		.loc 1 65 0
  40 0004 59B1     		cbz	r1, .L2
  41              		.loc 1 67 0
  42 0006 084B     		ldr	r3, .L4
  43 0008 9B69     		ldr	r3, [r3, #24]
  44 000a 9862     		str	r0, [r3, #40]
  45              	.LVL1:
  46              	.LBB12:
  47              	.LBB13:
  48              		.file 2 "/home/gokul/ChibiOS_2.5.0/os/kernel/include/chinline.h"
  49              		.loc 2 48 0
  50 000c 4468     		ldr	r4, [r0, #4]
  51              	.LBE13:
  52              	.LBE12:
  53              		.loc 1 69 0
  54 000e 0D20     		movs	r0, #13
  55              	.LVL2:
  56              	.LBB15:
  57              	.LBB14:
ARM GAS  /tmp/ccNDKjOb.s 			page 2


  58              		.loc 2 48 0
  59 0010 83E81400 		stmia	r3, {r2, r4}
  60              		.loc 2 49 0
  61 0014 5360     		str	r3, [r2, #4]
  62 0016 2360     		str	r3, [r4, #0]
  63              	.LBE14:
  64              	.LBE15:
  65              		.loc 1 70 0
  66 0018 10BC     		pop	{r4}
  67              		.loc 1 69 0
  68 001a FFF7FEBF 		b	chSchGoSleepTimeoutS
  69              	.LVL3:
  70              	.L2:
  71              		.loc 1 70 0
  72 001e 4FF0FF30 		mov	r0, #-1
  73              	.LVL4:
  74 0022 10BC     		pop	{r4}
  75 0024 7047     		bx	lr
  76              	.L5:
  77 0026 00BF     		.align	2
  78              	.L4:
  79 0028 00000000 		.word	rlist
  80              		.cfi_endproc
  81              	.LFE7:
  82              		.size	qwait, .-qwait
  83 002c AFF30080 		.section	.text.chIQInit,"ax",%progbits
  84              		.align	2
  85              		.p2align 4,,15
  86              		.global	chIQInit
  87              		.thumb
  88              		.thumb_func
  89              		.type	chIQInit, %function
  90              	chIQInit:
  91              	.LFB8:
  92              		.loc 1 89 0
  93              		.cfi_startproc
  94              		@ args = 4, pretend = 0, frame = 0
  95              		@ frame_needed = 0, uses_anonymous_args = 0
  96              		@ link register save eliminated.
  97              	.LVL5:
  98 0000 10B4     		push	{r4}
  99              	.LCFI1:
 100              		.cfi_def_cfa_offset 4
 101              		.cfi_offset 4, -4
 102              		.loc 1 95 0
 103 0002 C361     		str	r3, [r0, #28]
 104              		.loc 1 96 0
 105 0004 019B     		ldr	r3, [sp, #4]
 106              	.LVL6:
 107              		.loc 1 91 0
 108 0006 4060     		str	r0, [r0, #4]
 109              		.loc 1 94 0
 110 0008 8A18     		adds	r2, r1, r2
 111              	.LVL7:
 112              		.loc 1 92 0
 113 000a 0024     		movs	r4, #0
 114              		.loc 1 91 0
ARM GAS  /tmp/ccNDKjOb.s 			page 3


 115 000c 0060     		str	r0, [r0, #0]
 116              		.loc 1 92 0
 117 000e 8460     		str	r4, [r0, #8]
 118              		.loc 1 93 0
 119 0010 4161     		str	r1, [r0, #20]
 120 0012 8161     		str	r1, [r0, #24]
 121 0014 C160     		str	r1, [r0, #12]
 122              		.loc 1 94 0
 123 0016 0261     		str	r2, [r0, #16]
 124              		.loc 1 96 0
 125 0018 0362     		str	r3, [r0, #32]
 126              		.loc 1 97 0
 127 001a 10BC     		pop	{r4}
 128 001c 7047     		bx	lr
 129              		.cfi_endproc
 130              	.LFE8:
 131              		.size	chIQInit, .-chIQInit
 132 001e 00BF     		.section	.text.chIQResetI,"ax",%progbits
 133              		.align	2
 134              		.p2align 4,,15
 135              		.global	chIQResetI
 136              		.thumb
 137              		.thumb_func
 138              		.type	chIQResetI, %function
 139              	chIQResetI:
 140              	.LFB9:
 141              		.loc 1 110 0
 142              		.cfi_startproc
 143              		@ args = 0, pretend = 0, frame = 0
 144              		@ frame_needed = 0, uses_anonymous_args = 0
 145              	.LVL8:
 146 0000 38B5     		push	{r3, r4, r5, lr}
 147              	.LCFI2:
 148              		.cfi_def_cfa_offset 16
 149              		.cfi_offset 3, -16
 150              		.cfi_offset 4, -12
 151              		.cfi_offset 5, -8
 152              		.cfi_offset 14, -4
 153              		.loc 1 110 0
 154 0002 0446     		mov	r4, r0
 155              		.loc 1 112 0
 156 0004 FFF7FEFF 		bl	chDbgCheckClassI
 157              	.LVL9:
 158              		.loc 1 116 0
 159 0008 2068     		ldr	r0, [r4, #0]
 160              		.loc 1 114 0
 161 000a E368     		ldr	r3, [r4, #12]
 162              		.loc 1 115 0
 163 000c 0021     		movs	r1, #0
 164              		.loc 1 116 0
 165 000e A042     		cmp	r0, r4
 166              		.loc 1 114 0
 167 0010 6361     		str	r3, [r4, #20]
 168 0012 A361     		str	r3, [r4, #24]
 169              		.loc 1 115 0
 170 0014 A160     		str	r1, [r4, #8]
 171              		.loc 1 116 0
ARM GAS  /tmp/ccNDKjOb.s 			page 4


 172 0016 0AD0     		beq	.L7
 173              		.loc 1 117 0
 174 0018 6FF00105 		mvn	r5, #1
 175              	.L11:
 176              	.LVL10:
 177              	.LBB16:
 178              	.LBB17:
 179              		.loc 2 55 0
 180 001c 0268     		ldr	r2, [r0, #0]
 181 001e 2260     		str	r2, [r4, #0]
 182 0020 5460     		str	r4, [r2, #4]
 183              	.LBE17:
 184              	.LBE16:
 185              		.loc 1 117 0
 186 0022 FFF7FEFF 		bl	chSchReadyI
 187              	.LVL11:
 188 0026 8562     		str	r5, [r0, #40]
 189              		.loc 1 116 0
 190 0028 2068     		ldr	r0, [r4, #0]
 191 002a A042     		cmp	r0, r4
 192 002c F6D1     		bne	.L11
 193              	.LVL12:
 194              	.L7:
 195 002e 38BD     		pop	{r3, r4, r5, pc}
 196              		.cfi_endproc
 197              	.LFE9:
 198              		.size	chIQResetI, .-chIQResetI
 199              		.section	.text.chIQPutI,"ax",%progbits
 200              		.align	2
 201              		.p2align 4,,15
 202              		.global	chIQPutI
 203              		.thumb
 204              		.thumb_func
 205              		.type	chIQPutI, %function
 206              	chIQPutI:
 207              	.LFB10:
 208              		.loc 1 133 0
 209              		.cfi_startproc
 210              		@ args = 0, pretend = 0, frame = 0
 211              		@ frame_needed = 0, uses_anonymous_args = 0
 212              	.LVL13:
 213 0000 38B5     		push	{r3, r4, r5, lr}
 214              	.LCFI3:
 215              		.cfi_def_cfa_offset 16
 216              		.cfi_offset 3, -16
 217              		.cfi_offset 4, -12
 218              		.cfi_offset 5, -8
 219              		.cfi_offset 14, -4
 220              		.loc 1 133 0
 221 0002 0446     		mov	r4, r0
 222 0004 0D46     		mov	r5, r1
 223              		.loc 1 135 0
 224 0006 FFF7FEFF 		bl	chDbgCheckClassI
 225              	.LVL14:
 226              		.loc 1 137 0
 227 000a 6369     		ldr	r3, [r4, #20]
 228 000c A269     		ldr	r2, [r4, #24]
ARM GAS  /tmp/ccNDKjOb.s 			page 5


 229 000e A068     		ldr	r0, [r4, #8]
 230 0010 9342     		cmp	r3, r2
 231 0012 18D0     		beq	.L14
 232              	.L15:
 233              		.loc 1 140 0
 234 0014 411C     		adds	r1, r0, #1
 235 0016 A160     		str	r1, [r4, #8]
 236              		.loc 1 141 0
 237 0018 03F8015B 		strb	r5, [r3], #1
 238              		.loc 1 142 0
 239 001c 2269     		ldr	r2, [r4, #16]
 240              		.loc 1 141 0
 241 001e 6361     		str	r3, [r4, #20]
 242              		.loc 1 142 0
 243 0020 9342     		cmp	r3, r2
 244              		.loc 1 143 0
 245 0022 28BF     		it	cs
 246 0024 E368     		ldrcs	r3, [r4, #12]
 247              		.loc 1 145 0
 248 0026 2068     		ldr	r0, [r4, #0]
 249              		.loc 1 143 0
 250 0028 28BF     		it	cs
 251 002a 6361     		strcs	r3, [r4, #20]
 252              		.loc 1 145 0
 253 002c A042     		cmp	r0, r4
 254 002e 08D0     		beq	.L19
 255              	.LVL15:
 256              	.LBB18:
 257              	.LBB19:
 258              		.loc 2 55 0
 259 0030 0368     		ldr	r3, [r0, #0]
 260 0032 2360     		str	r3, [r4, #0]
 261 0034 5C60     		str	r4, [r3, #4]
 262              	.LBE19:
 263              	.LBE18:
 264              		.loc 1 146 0
 265 0036 FFF7FEFF 		bl	chSchReadyI
 266              	.LVL16:
 267 003a 0021     		movs	r1, #0
 268 003c 8162     		str	r1, [r0, #40]
 269              		.loc 1 148 0
 270 003e 0846     		mov	r0, r1
 271 0040 38BD     		pop	{r3, r4, r5, pc}
 272              	.LVL17:
 273              	.L19:
 274 0042 0020     		movs	r0, #0
 275              		.loc 1 149 0
 276 0044 38BD     		pop	{r3, r4, r5, pc}
 277              	.L14:
 278              		.loc 1 137 0 discriminator 1
 279 0046 0028     		cmp	r0, #0
 280 0048 E4D0     		beq	.L15
 281              		.loc 1 138 0
 282 004a 6FF00300 		mvn	r0, #3
 283 004e 38BD     		pop	{r3, r4, r5, pc}
 284              		.cfi_endproc
 285              	.LFE10:
ARM GAS  /tmp/ccNDKjOb.s 			page 6


 286              		.size	chIQPutI, .-chIQPutI
 287              		.section	.text.chIQGetTimeout,"ax",%progbits
 288              		.align	2
 289              		.p2align 4,,15
 290              		.global	chIQGetTimeout
 291              		.thumb
 292              		.thumb_func
 293              		.type	chIQGetTimeout, %function
 294              	chIQGetTimeout:
 295              	.LFB11:
 296              		.loc 1 171 0
 297              		.cfi_startproc
 298              		@ args = 0, pretend = 0, frame = 0
 299              		@ frame_needed = 0, uses_anonymous_args = 0
 300              	.LVL18:
 301 0000 F8B5     		push	{r3, r4, r5, r6, r7, lr}
 302              	.LCFI4:
 303              		.cfi_def_cfa_offset 24
 304              		.cfi_offset 3, -24
 305              		.cfi_offset 4, -20
 306              		.cfi_offset 5, -16
 307              		.cfi_offset 6, -12
 308              		.cfi_offset 7, -8
 309              		.cfi_offset 14, -4
 310              		.loc 1 171 0
 311 0002 0446     		mov	r4, r0
 312 0004 0E46     		mov	r6, r1
 313              	.LBB20:
 314              		.loc 1 174 0
 315 0006 2023     		movs	r3, #32
 316              	.LVL19:
 317              	@ 174 "/home/gokul/ChibiOS_2.5.0/os/kernel/src/chqueues.c" 1
 318 0008 83F31188 		msr     BASEPRI, r3
 319              	@ 0 "" 2
 320              	.LVL20:
 321              		.thumb
 322              	.LBE20:
 323 000c FFF7FEFF 		bl	dbg_check_lock
 324              	.LVL21:
 325              		.loc 1 175 0
 326 0010 E369     		ldr	r3, [r4, #28]
 327 0012 0BB1     		cbz	r3, .L28
 328              		.loc 1 176 0
 329 0014 2046     		mov	r0, r4
 330 0016 9847     		blx	r3
 331              	.LVL22:
 332              	.L28:
 333              		.loc 1 178 0 discriminator 1
 334 0018 A568     		ldr	r5, [r4, #8]
 335              	.LBB21:
 336              		.loc 1 180 0 discriminator 1
 337 001a 2046     		mov	r0, r4
 338 001c 3146     		mov	r1, r6
 339              	.LBE21:
 340              		.loc 1 178 0 discriminator 1
 341 001e 55B9     		cbnz	r5, .L31
 342              	.LVL23:
ARM GAS  /tmp/ccNDKjOb.s 			page 7


 343              	.LBB23:
 344              		.loc 1 180 0
 345 0020 FFF7FEFF 		bl	qwait
 346              	.LVL24:
 347 0024 071E     		subs	r7, r0, #0
 348 0026 F7DA     		bge	.L28
 349              		.loc 1 181 0
 350 0028 FFF7FEFF 		bl	dbg_check_unlock
 351              	.LVL25:
 352              	.LBB22:
 353 002c 2B46     		mov	r3, r5
 354              	.LVL26:
 355              	@ 181 "/home/gokul/ChibiOS_2.5.0/os/kernel/src/chqueues.c" 1
 356 002e 83F31188 		msr     BASEPRI, r3
 357              	@ 0 "" 2
 358              	.LVL27:
 359              		.thumb
 360              	.LBE22:
 361              	.LBE23:
 362              		.loc 1 193 0
 363 0032 3846     		mov	r0, r7
 364 0034 F8BD     		pop	{r3, r4, r5, r6, r7, pc}
 365              	.LVL28:
 366              	.L31:
 367              		.loc 1 187 0
 368 0036 A069     		ldr	r0, [r4, #24]
 369              	.LVL29:
 370              		.loc 1 188 0
 371 0038 2269     		ldr	r2, [r4, #16]
 372              		.loc 1 186 0
 373 003a 013D     		subs	r5, r5, #1
 374 003c A560     		str	r5, [r4, #8]
 375              		.loc 1 187 0
 376 003e 10F8017B 		ldrb	r7, [r0], #1	@ zero_extendqisi2
 377              	.LVL30:
 378              		.loc 1 188 0
 379 0042 9042     		cmp	r0, r2
 380              		.loc 1 187 0
 381 0044 A061     		str	r0, [r4, #24]
 382              		.loc 1 189 0
 383 0046 24BF     		itt	cs
 384 0048 E068     		ldrcs	r0, [r4, #12]
 385 004a A061     		strcs	r0, [r4, #24]
 386              		.loc 1 191 0
 387 004c FFF7FEFF 		bl	dbg_check_unlock
 388              	.LVL31:
 389              	.LBB24:
 390 0050 0023     		movs	r3, #0
 391              	.LVL32:
 392              	@ 191 "/home/gokul/ChibiOS_2.5.0/os/kernel/src/chqueues.c" 1
 393 0052 83F31188 		msr     BASEPRI, r3
 394              	@ 0 "" 2
 395              	.LVL33:
 396              		.thumb
 397              	.LBE24:
 398              		.loc 1 193 0
 399 0056 3846     		mov	r0, r7
ARM GAS  /tmp/ccNDKjOb.s 			page 8


 400 0058 F8BD     		pop	{r3, r4, r5, r6, r7, pc}
 401              		.cfi_endproc
 402              	.LFE11:
 403              		.size	chIQGetTimeout, .-chIQGetTimeout
 404 005a 00BFAFF3 		.section	.text.chIQReadTimeout,"ax",%progbits
 404      0080
 405              		.align	2
 406              		.p2align 4,,15
 407              		.global	chIQReadTimeout
 408              		.thumb
 409              		.thumb_func
 410              		.type	chIQReadTimeout, %function
 411              	chIQReadTimeout:
 412              	.LFB12:
 413              		.loc 1 220 0
 414              		.cfi_startproc
 415              		@ args = 0, pretend = 0, frame = 0
 416              		@ frame_needed = 0, uses_anonymous_args = 0
 417              	.LVL34:
 418 0000 2DE9F047 		push	{r4, r5, r6, r7, r8, r9, sl, lr}
 419              	.LCFI5:
 420              		.cfi_def_cfa_offset 32
 421              		.cfi_offset 4, -32
 422              		.cfi_offset 5, -28
 423              		.cfi_offset 6, -24
 424              		.cfi_offset 7, -20
 425              		.cfi_offset 8, -16
 426              		.cfi_offset 9, -12
 427              		.cfi_offset 10, -8
 428              		.cfi_offset 14, -4
 429              		.loc 1 220 0
 430 0004 0446     		mov	r4, r0
 431              		.loc 1 224 0
 432 0006 1546     		mov	r5, r2
 433              		.loc 1 220 0
 434 0008 8846     		mov	r8, r1
 435 000a 1E46     		mov	r6, r3
 436              		.loc 1 221 0
 437 000c C769     		ldr	r7, [r0, #28]
 438              	.LVL35:
 439              		.loc 1 224 0
 440 000e 002A     		cmp	r2, #0
 441 0010 3AD0     		beq	.L48
 442              	.LVL36:
 443              	.L33:
 444              	.LBB25:
 445              		.loc 1 226 0
 446 0012 2023     		movs	r3, #32
 447              	.LVL37:
 448              	@ 226 "/home/gokul/ChibiOS_2.5.0/os/kernel/src/chqueues.c" 1
 449 0014 83F31188 		msr     BASEPRI, r3
 450              	@ 0 "" 2
 451              	.LVL38:
 452              		.thumb
 453              	.LBE25:
 454 0018 FFF7FEFF 		bl	dbg_check_lock
 455              	.LVL39:
ARM GAS  /tmp/ccNDKjOb.s 			page 9


 456              		.loc 1 219 0
 457 001c 08F1010A 		add	sl, r8, #1
 458              		.loc 1 222 0
 459 0020 4FF00009 		mov	r9, #0
 460              		.loc 1 219 0
 461 0024 A844     		add	r8, r8, r5
 462              	.LVL40:
 463              	.L39:
 464              		.loc 1 228 0
 465 0026 0FB1     		cbz	r7, .L44
 466              		.loc 1 229 0
 467 0028 2046     		mov	r0, r4
 468 002a B847     		blx	r7
 469              	.LVL41:
 470              	.L44:
 471              		.loc 1 231 0 discriminator 1
 472 002c A568     		ldr	r5, [r4, #8]
 473              		.loc 1 232 0 discriminator 1
 474 002e 2046     		mov	r0, r4
 475 0030 3146     		mov	r1, r6
 476              		.loc 1 231 0 discriminator 1
 477 0032 5DB9     		cbnz	r5, .L49
 478              	.LVL42:
 479              		.loc 1 232 0
 480 0034 FFF7FEFF 		bl	qwait
 481              	.LVL43:
 482 0038 0028     		cmp	r0, #0
 483 003a F7D0     		beq	.L44
 484              		.loc 1 233 0
 485 003c FFF7FEFF 		bl	dbg_check_unlock
 486              	.LVL44:
 487              	.LBB26:
 488 0040 2B46     		mov	r3, r5
 489              	.LVL45:
 490              	@ 233 "/home/gokul/ChibiOS_2.5.0/os/kernel/src/chqueues.c" 1
 491 0042 83F31188 		msr     BASEPRI, r3
 492              	@ 0 "" 2
 493              	.LVL46:
 494              		.thumb
 495              	.L36:
 496              	.LBE26:
 497              		.loc 1 250 0
 498 0046 4846     		mov	r0, r9
 499 0048 BDE8F087 		pop	{r4, r5, r6, r7, r8, r9, sl, pc}
 500              	.LVL47:
 501              	.L49:
 502              		.loc 1 239 0
 503 004c A369     		ldr	r3, [r4, #24]
 504              		.loc 1 238 0
 505 004e 013D     		subs	r5, r5, #1
 506 0050 A560     		str	r5, [r4, #8]
 507              		.loc 1 239 0
 508 0052 13F8012B 		ldrb	r2, [r3], #1	@ zero_extendqisi2
 509 0056 0AF8012C 		strb	r2, [sl, #-1]
 510              		.loc 1 240 0
 511 005a 2069     		ldr	r0, [r4, #16]
 512              	.LVL48:
ARM GAS  /tmp/ccNDKjOb.s 			page 10


 513              		.loc 1 239 0
 514 005c A361     		str	r3, [r4, #24]
 515              		.loc 1 240 0
 516 005e 8342     		cmp	r3, r0
 517              		.loc 1 241 0
 518 0060 24BF     		itt	cs
 519 0062 E368     		ldrcs	r3, [r4, #12]
 520 0064 A361     		strcs	r3, [r4, #24]
 521              		.loc 1 243 0
 522 0066 FFF7FEFF 		bl	dbg_check_unlock
 523              	.LVL49:
 524              	.LBB27:
 525 006a 0023     		movs	r3, #0
 526              	@ 243 "/home/gokul/ChibiOS_2.5.0/os/kernel/src/chqueues.c" 1
 527 006c 83F31188 		msr     BASEPRI, r3
 528              	@ 0 "" 2
 529              	.LVL50:
 530              		.thumb
 531              	.LBE27:
 532              		.loc 1 245 0
 533 0070 C245     		cmp	sl, r8
 534              		.loc 1 244 0
 535 0072 09F10109 		add	r9, r9, #1
 536              	.LVL51:
 537              		.loc 1 245 0
 538 0076 E6D0     		beq	.L36
 539              	.LBB28:
 540              		.loc 1 248 0
 541 0078 2023     		movs	r3, #32
 542              	.LVL52:
 543              	@ 248 "/home/gokul/ChibiOS_2.5.0/os/kernel/src/chqueues.c" 1
 544 007a 83F31188 		msr     BASEPRI, r3
 545              	@ 0 "" 2
 546              	.LVL53:
 547              		.thumb
 548              	.LBE28:
 549 007e FFF7FEFF 		bl	dbg_check_lock
 550              	.LVL54:
 551 0082 0AF1010A 		add	sl, sl, #1
 552              		.loc 1 249 0
 553 0086 CEE7     		b	.L39
 554              	.LVL55:
 555              	.L48:
 556              		.loc 1 224 0 discriminator 1
 557 0088 0148     		ldr	r0, .L50
 558              	.LVL56:
 559 008a FFF7FEFF 		bl	chDbgPanic
 560              	.LVL57:
 561 008e C0E7     		b	.L33
 562              	.L51:
 563              		.align	2
 564              	.L50:
 565 0090 00000000 		.word	.LC0
 566              		.cfi_endproc
 567              	.LFE12:
 568              		.size	chIQReadTimeout, .-chIQReadTimeout
 569 0094 AFF30080 		.section	.text.chOQInit,"ax",%progbits
ARM GAS  /tmp/ccNDKjOb.s 			page 11


 569      AFF30080 
 569      AFF30080 
 570              		.align	2
 571              		.p2align 4,,15
 572              		.global	chOQInit
 573              		.thumb
 574              		.thumb_func
 575              		.type	chOQInit, %function
 576              	chOQInit:
 577              	.LFB13:
 578              		.loc 1 269 0
 579              		.cfi_startproc
 580              		@ args = 4, pretend = 0, frame = 0
 581              		@ frame_needed = 0, uses_anonymous_args = 0
 582              		@ link register save eliminated.
 583              	.LVL58:
 584 0000 10B4     		push	{r4}
 585              	.LCFI6:
 586              		.cfi_def_cfa_offset 4
 587              		.cfi_offset 4, -4
 588              		.loc 1 275 0
 589 0002 C361     		str	r3, [r0, #28]
 590              		.loc 1 276 0
 591 0004 019B     		ldr	r3, [sp, #4]
 592              	.LVL59:
 593              		.loc 1 271 0
 594 0006 4060     		str	r0, [r0, #4]
 595              		.loc 1 274 0
 596 0008 8C18     		adds	r4, r1, r2
 597              		.loc 1 271 0
 598 000a 0060     		str	r0, [r0, #0]
 599              		.loc 1 272 0
 600 000c 8260     		str	r2, [r0, #8]
 601              		.loc 1 273 0
 602 000e 4161     		str	r1, [r0, #20]
 603 0010 8161     		str	r1, [r0, #24]
 604 0012 C160     		str	r1, [r0, #12]
 605              		.loc 1 274 0
 606 0014 0461     		str	r4, [r0, #16]
 607              		.loc 1 276 0
 608 0016 0362     		str	r3, [r0, #32]
 609              		.loc 1 277 0
 610 0018 10BC     		pop	{r4}
 611 001a 7047     		bx	lr
 612              		.cfi_endproc
 613              	.LFE13:
 614              		.size	chOQInit, .-chOQInit
 615 001c AFF30080 		.section	.text.chOQResetI,"ax",%progbits
 616              		.align	2
 617              		.p2align 4,,15
 618              		.global	chOQResetI
 619              		.thumb
 620              		.thumb_func
 621              		.type	chOQResetI, %function
 622              	chOQResetI:
 623              	.LFB14:
 624              		.loc 1 290 0
ARM GAS  /tmp/ccNDKjOb.s 			page 12


 625              		.cfi_startproc
 626              		@ args = 0, pretend = 0, frame = 0
 627              		@ frame_needed = 0, uses_anonymous_args = 0
 628              	.LVL60:
 629 0000 38B5     		push	{r3, r4, r5, lr}
 630              	.LCFI7:
 631              		.cfi_def_cfa_offset 16
 632              		.cfi_offset 3, -16
 633              		.cfi_offset 4, -12
 634              		.cfi_offset 5, -8
 635              		.cfi_offset 14, -4
 636              		.loc 1 290 0
 637 0002 0446     		mov	r4, r0
 638              		.loc 1 292 0
 639 0004 FFF7FEFF 		bl	chDbgCheckClassI
 640              	.LVL61:
 641              		.loc 1 294 0
 642 0008 E368     		ldr	r3, [r4, #12]
 643              		.loc 1 295 0
 644 000a 2269     		ldr	r2, [r4, #16]
 645              		.loc 1 296 0
 646 000c 2068     		ldr	r0, [r4, #0]
 647              		.loc 1 294 0
 648 000e 6361     		str	r3, [r4, #20]
 649              		.loc 1 295 0
 650 0010 D11A     		subs	r1, r2, r3
 651              		.loc 1 296 0
 652 0012 A042     		cmp	r0, r4
 653              		.loc 1 294 0
 654 0014 A361     		str	r3, [r4, #24]
 655              		.loc 1 295 0
 656 0016 A160     		str	r1, [r4, #8]
 657              		.loc 1 296 0
 658 0018 0AD0     		beq	.L53
 659              		.loc 1 297 0
 660 001a 6FF00105 		mvn	r5, #1
 661              	.L57:
 662              	.LVL62:
 663              	.LBB29:
 664              	.LBB30:
 665              		.loc 2 55 0
 666 001e 0368     		ldr	r3, [r0, #0]
 667 0020 2360     		str	r3, [r4, #0]
 668 0022 5C60     		str	r4, [r3, #4]
 669              	.LBE30:
 670              	.LBE29:
 671              		.loc 1 297 0
 672 0024 FFF7FEFF 		bl	chSchReadyI
 673              	.LVL63:
 674 0028 8562     		str	r5, [r0, #40]
 675              		.loc 1 296 0
 676 002a 2068     		ldr	r0, [r4, #0]
 677 002c A042     		cmp	r0, r4
 678 002e F6D1     		bne	.L57
 679              	.LVL64:
 680              	.L53:
 681 0030 38BD     		pop	{r3, r4, r5, pc}
ARM GAS  /tmp/ccNDKjOb.s 			page 13


 682              		.cfi_endproc
 683              	.LFE14:
 684              		.size	chOQResetI, .-chOQResetI
 685 0032 00BFAFF3 		.section	.text.chOQPutTimeout,"ax",%progbits
 685      0080AFF3 
 685      0080AFF3 
 685      0080
 686              		.align	2
 687              		.p2align 4,,15
 688              		.global	chOQPutTimeout
 689              		.thumb
 690              		.thumb_func
 691              		.type	chOQPutTimeout, %function
 692              	chOQPutTimeout:
 693              	.LFB15:
 694              		.loc 1 322 0
 695              		.cfi_startproc
 696              		@ args = 0, pretend = 0, frame = 0
 697              		@ frame_needed = 0, uses_anonymous_args = 0
 698              	.LVL65:
 699 0000 2DE9F041 		push	{r4, r5, r6, r7, r8, lr}
 700              	.LCFI8:
 701              		.cfi_def_cfa_offset 24
 702              		.cfi_offset 4, -24
 703              		.cfi_offset 5, -20
 704              		.cfi_offset 6, -16
 705              		.cfi_offset 7, -12
 706              		.cfi_offset 8, -8
 707              		.cfi_offset 14, -4
 708              	.LBB31:
 709              		.loc 1 324 0
 710 0004 2023     		movs	r3, #32
 711              	.LVL66:
 712              	.LBE31:
 713              		.loc 1 322 0
 714 0006 0446     		mov	r4, r0
 715 0008 8846     		mov	r8, r1
 716 000a 1646     		mov	r6, r2
 717              	.LBB32:
 718              		.loc 1 324 0
 719              	@ 324 "/home/gokul/ChibiOS_2.5.0/os/kernel/src/chqueues.c" 1
 720 000c 83F31188 		msr     BASEPRI, r3
 721              	@ 0 "" 2
 722              	.LVL67:
 723              		.thumb
 724              	.LBE32:
 725 0010 FFF7FEFF 		bl	dbg_check_lock
 726              	.LVL68:
 727              	.L60:
 728              		.loc 1 325 0 discriminator 1
 729 0014 A568     		ldr	r5, [r4, #8]
 730              	.LBB33:
 731              		.loc 1 328 0 discriminator 1
 732 0016 2046     		mov	r0, r4
 733 0018 3146     		mov	r1, r6
 734              	.LBE33:
 735              		.loc 1 325 0 discriminator 1
ARM GAS  /tmp/ccNDKjOb.s 			page 14


 736 001a 5DB9     		cbnz	r5, .L69
 737              	.LVL69:
 738              	.LBB35:
 739              		.loc 1 328 0
 740 001c FFF7FEFF 		bl	qwait
 741              	.LVL70:
 742 0020 071E     		subs	r7, r0, #0
 743 0022 F7DA     		bge	.L60
 744              		.loc 1 329 0
 745 0024 FFF7FEFF 		bl	dbg_check_unlock
 746              	.LVL71:
 747              	.LBB34:
 748 0028 2B46     		mov	r3, r5
 749              	.LVL72:
 750              	@ 329 "/home/gokul/ChibiOS_2.5.0/os/kernel/src/chqueues.c" 1
 751 002a 83F31188 		msr     BASEPRI, r3
 752              	@ 0 "" 2
 753              	.LVL73:
 754              		.thumb
 755              	.LBE34:
 756              	.LBE35:
 757              		.loc 1 344 0
 758 002e 3846     		mov	r0, r7
 759 0030 BDE8F081 		pop	{r4, r5, r6, r7, r8, pc}
 760              	.LVL74:
 761              	.L69:
 762              		.loc 1 335 0
 763 0034 6369     		ldr	r3, [r4, #20]
 764              		.loc 1 334 0
 765 0036 013D     		subs	r5, r5, #1
 766 0038 A560     		str	r5, [r4, #8]
 767              		.loc 1 335 0
 768 003a 03F8018B 		strb	r8, [r3], #1
 769              		.loc 1 336 0
 770 003e 2269     		ldr	r2, [r4, #16]
 771              		.loc 1 335 0
 772 0040 6361     		str	r3, [r4, #20]
 773              		.loc 1 336 0
 774 0042 9342     		cmp	r3, r2
 775              		.loc 1 337 0
 776 0044 28BF     		it	cs
 777 0046 E368     		ldrcs	r3, [r4, #12]
 778              		.loc 1 339 0
 779 0048 E169     		ldr	r1, [r4, #28]
 780              	.LVL75:
 781              		.loc 1 337 0
 782 004a 28BF     		it	cs
 783 004c 6361     		strcs	r3, [r4, #20]
 784              		.loc 1 339 0
 785 004e 09B1     		cbz	r1, .L64
 786              		.loc 1 340 0
 787 0050 2046     		mov	r0, r4
 788              	.LVL76:
 789 0052 8847     		blx	r1
 790              	.LVL77:
 791              	.L64:
 792              		.loc 1 342 0
ARM GAS  /tmp/ccNDKjOb.s 			page 15


 793 0054 FFF7FEFF 		bl	dbg_check_unlock
 794              	.LVL78:
 795              	.LBB36:
 796 0058 0023     		movs	r3, #0
 797              	.LVL79:
 798              	@ 342 "/home/gokul/ChibiOS_2.5.0/os/kernel/src/chqueues.c" 1
 799 005a 83F31188 		msr     BASEPRI, r3
 800              	@ 0 "" 2
 801              	.LVL80:
 802              		.thumb
 803              	.LBE36:
 804              		.loc 1 343 0
 805 005e 1F46     		mov	r7, r3
 806              		.loc 1 344 0
 807 0060 3846     		mov	r0, r7
 808 0062 BDE8F081 		pop	{r4, r5, r6, r7, r8, pc}
 809              		.cfi_endproc
 810              	.LFE15:
 811              		.size	chOQPutTimeout, .-chOQPutTimeout
 812 0066 00BFAFF3 		.section	.text.chOQGetI,"ax",%progbits
 812      0080AFF3 
 812      0080
 813              		.align	2
 814              		.p2align 4,,15
 815              		.global	chOQGetI
 816              		.thumb
 817              		.thumb_func
 818              		.type	chOQGetI, %function
 819              	chOQGetI:
 820              	.LFB16:
 821              		.loc 1 356 0
 822              		.cfi_startproc
 823              		@ args = 0, pretend = 0, frame = 0
 824              		@ frame_needed = 0, uses_anonymous_args = 0
 825              	.LVL81:
 826 0000 38B5     		push	{r3, r4, r5, lr}
 827              	.LCFI9:
 828              		.cfi_def_cfa_offset 16
 829              		.cfi_offset 3, -16
 830              		.cfi_offset 4, -12
 831              		.cfi_offset 5, -8
 832              		.cfi_offset 14, -4
 833              		.loc 1 356 0
 834 0002 0446     		mov	r4, r0
 835              		.loc 1 359 0
 836 0004 FFF7FEFF 		bl	chDbgCheckClassI
 837              	.LVL82:
 838              		.loc 1 361 0
 839 0008 A369     		ldr	r3, [r4, #24]
 840 000a 6269     		ldr	r2, [r4, #20]
 841 000c A068     		ldr	r0, [r4, #8]
 842 000e 9A42     		cmp	r2, r3
 843 0010 16D0     		beq	.L71
 844              	.L72:
 845              		.loc 1 364 0
 846 0012 411C     		adds	r1, r0, #1
 847 0014 A160     		str	r1, [r4, #8]
ARM GAS  /tmp/ccNDKjOb.s 			page 16


 848              		.loc 1 365 0
 849 0016 13F8015B 		ldrb	r5, [r3], #1	@ zero_extendqisi2
 850              	.LVL83:
 851              		.loc 1 366 0
 852 001a 2269     		ldr	r2, [r4, #16]
 853              		.loc 1 365 0
 854 001c A361     		str	r3, [r4, #24]
 855              		.loc 1 366 0
 856 001e 9342     		cmp	r3, r2
 857              		.loc 1 367 0
 858 0020 28BF     		it	cs
 859 0022 E368     		ldrcs	r3, [r4, #12]
 860              		.loc 1 369 0
 861 0024 2068     		ldr	r0, [r4, #0]
 862              		.loc 1 367 0
 863 0026 28BF     		it	cs
 864 0028 A361     		strcs	r3, [r4, #24]
 865              		.loc 1 369 0
 866 002a A042     		cmp	r0, r4
 867 002c 06D0     		beq	.L75
 868              	.LVL84:
 869              	.LBB37:
 870              	.LBB38:
 871              		.loc 2 55 0
 872 002e 0368     		ldr	r3, [r0, #0]
 873 0030 2360     		str	r3, [r4, #0]
 874 0032 5C60     		str	r4, [r3, #4]
 875              	.LBE38:
 876              	.LBE37:
 877              		.loc 1 370 0
 878 0034 FFF7FEFF 		bl	chSchReadyI
 879              	.LVL85:
 880 0038 0021     		movs	r1, #0
 881 003a 8162     		str	r1, [r0, #40]
 882              	.LVL86:
 883              	.L75:
 884              		.loc 1 372 0
 885 003c 2846     		mov	r0, r5
 886 003e 38BD     		pop	{r3, r4, r5, pc}
 887              	.LVL87:
 888              	.L71:
 889              		.loc 1 361 0 discriminator 1
 890 0040 0028     		cmp	r0, #0
 891 0042 E6D0     		beq	.L72
 892              		.loc 1 362 0
 893 0044 6FF00200 		mvn	r0, #2
 894              		.loc 1 373 0
 895 0048 38BD     		pop	{r3, r4, r5, pc}
 896              		.cfi_endproc
 897              	.LFE16:
 898              		.size	chOQGetI, .-chOQGetI
 899              		.section	.text.chOQWriteTimeout,"ax",%progbits
 900              		.align	2
 901              		.p2align 4,,15
 902              		.global	chOQWriteTimeout
 903              		.thumb
 904              		.thumb_func
ARM GAS  /tmp/ccNDKjOb.s 			page 17


 905              		.type	chOQWriteTimeout, %function
 906              	chOQWriteTimeout:
 907              	.LFB17:
 908              		.loc 1 400 0
 909              		.cfi_startproc
 910              		@ args = 0, pretend = 0, frame = 0
 911              		@ frame_needed = 0, uses_anonymous_args = 0
 912              	.LVL88:
 913 0000 2DE9F047 		push	{r4, r5, r6, r7, r8, r9, sl, lr}
 914              	.LCFI10:
 915              		.cfi_def_cfa_offset 32
 916              		.cfi_offset 4, -32
 917              		.cfi_offset 5, -28
 918              		.cfi_offset 6, -24
 919              		.cfi_offset 7, -20
 920              		.cfi_offset 8, -16
 921              		.cfi_offset 9, -12
 922              		.cfi_offset 10, -8
 923              		.cfi_offset 14, -4
 924              		.loc 1 400 0
 925 0004 0446     		mov	r4, r0
 926              		.loc 1 404 0
 927 0006 1646     		mov	r6, r2
 928              		.loc 1 400 0
 929 0008 8846     		mov	r8, r1
 930 000a 9A46     		mov	sl, r3
 931              		.loc 1 401 0
 932 000c D0F81C90 		ldr	r9, [r0, #28]
 933              	.LVL89:
 934              		.loc 1 404 0
 935 0010 002A     		cmp	r2, #0
 936 0012 39D0     		beq	.L97
 937              	.LVL90:
 938              	.L78:
 939              	.LBB39:
 940              		.loc 1 406 0
 941 0014 2023     		movs	r3, #32
 942              	.LVL91:
 943              	@ 406 "/home/gokul/ChibiOS_2.5.0/os/kernel/src/chqueues.c" 1
 944 0016 83F31188 		msr     BASEPRI, r3
 945              	@ 0 "" 2
 946              	.LVL92:
 947              		.thumb
 948              	.LBE39:
 949 001a FFF7FEFF 		bl	dbg_check_lock
 950              	.LVL93:
 951              		.loc 1 402 0
 952 001e 0027     		movs	r7, #0
 953              	.LVL94:
 954              	.L96:
 955              		.loc 1 408 0 discriminator 1
 956 0020 A568     		ldr	r5, [r4, #8]
 957              		.loc 1 420 0 discriminator 1
 958 0022 2046     		mov	r0, r4
 959              		.loc 1 414 0 discriminator 1
 960 0024 6B1E     		subs	r3, r5, #1
 961              		.loc 1 408 0 discriminator 1
ARM GAS  /tmp/ccNDKjOb.s 			page 18


 962 0026 0DB3     		cbz	r5, .L82
 963              	.LVL95:
 964              	.L98:
 965              		.loc 1 414 0
 966 0028 A360     		str	r3, [r4, #8]
 967              		.loc 1 415 0
 968 002a 6569     		ldr	r5, [r4, #20]
 969 002c 18F8011B 		ldrb	r1, [r8], #1	@ zero_extendqisi2
 970              	.LVL96:
 971 0030 05F8011B 		strb	r1, [r5], #1
 972              		.loc 1 416 0
 973 0034 2269     		ldr	r2, [r4, #16]
 974              		.loc 1 415 0
 975 0036 6561     		str	r5, [r4, #20]
 976              	.LVL97:
 977              		.loc 1 416 0
 978 0038 9542     		cmp	r5, r2
 979              		.loc 1 417 0
 980 003a 24BF     		itt	cs
 981 003c E268     		ldrcs	r2, [r4, #12]
 982 003e 6261     		strcs	r2, [r4, #20]
 983              		.loc 1 419 0
 984 0040 B9F1000F 		cmp	r9, #0
 985 0044 00D0     		beq	.L84
 986              		.loc 1 420 0
 987 0046 C847     		blx	r9
 988              	.LVL98:
 989              	.L84:
 990              		.loc 1 422 0
 991 0048 FFF7FEFF 		bl	dbg_check_unlock
 992              	.LVL99:
 993              	.LBB40:
 994 004c 0023     		movs	r3, #0
 995              	.LVL100:
 996              	@ 422 "/home/gokul/ChibiOS_2.5.0/os/kernel/src/chqueues.c" 1
 997 004e 83F31188 		msr     BASEPRI, r3
 998              	@ 0 "" 2
 999              	.LVL101:
 1000              		.thumb
 1001              	.LBE40:
 1002              		.loc 1 423 0
 1003 0052 0137     		adds	r7, r7, #1
 1004              	.LVL102:
 1005              		.loc 1 424 0
 1006 0054 013E     		subs	r6, r6, #1
 1007              	.LVL103:
 1008 0056 14D0     		beq	.L81
 1009              	.LBB41:
 1010              		.loc 1 426 0
 1011 0058 2023     		movs	r3, #32
 1012              	.LVL104:
 1013              	@ 426 "/home/gokul/ChibiOS_2.5.0/os/kernel/src/chqueues.c" 1
 1014 005a 83F31188 		msr     BASEPRI, r3
 1015              	@ 0 "" 2
 1016              	.LVL105:
 1017              		.thumb
 1018              	.LBE41:
ARM GAS  /tmp/ccNDKjOb.s 			page 19


 1019 005e FFF7FEFF 		bl	dbg_check_lock
 1020              	.LVL106:
 1021              		.loc 1 408 0
 1022 0062 A568     		ldr	r5, [r4, #8]
 1023              		.loc 1 420 0
 1024 0064 2046     		mov	r0, r4
 1025              		.loc 1 414 0
 1026 0066 6B1E     		subs	r3, r5, #1
 1027              		.loc 1 408 0
 1028 0068 002D     		cmp	r5, #0
 1029 006a DDD1     		bne	.L98
 1030              	.LVL107:
 1031              	.L82:
 1032              		.loc 1 409 0
 1033 006c 2046     		mov	r0, r4
 1034              	.LVL108:
 1035 006e 5146     		mov	r1, sl
 1036 0070 FFF7FEFF 		bl	qwait
 1037              	.LVL109:
 1038 0074 0028     		cmp	r0, #0
 1039 0076 D3D0     		beq	.L96
 1040              		.loc 1 410 0
 1041 0078 FFF7FEFF 		bl	dbg_check_unlock
 1042              	.LVL110:
 1043              	.LBB42:
 1044 007c 2B46     		mov	r3, r5
 1045              	.LVL111:
 1046              	@ 410 "/home/gokul/ChibiOS_2.5.0/os/kernel/src/chqueues.c" 1
 1047 007e 83F31188 		msr     BASEPRI, r3
 1048              	@ 0 "" 2
 1049              	.LVL112:
 1050              		.thumb
 1051              	.L81:
 1052              	.LBE42:
 1053              		.loc 1 428 0
 1054 0082 3846     		mov	r0, r7
 1055 0084 BDE8F087 		pop	{r4, r5, r6, r7, r8, r9, sl, pc}
 1056              	.LVL113:
 1057              	.L97:
 1058              		.loc 1 404 0 discriminator 1
 1059 0088 0148     		ldr	r0, .L99
 1060              	.LVL114:
 1061 008a FFF7FEFF 		bl	chDbgPanic
 1062              	.LVL115:
 1063 008e C1E7     		b	.L78
 1064              	.L100:
 1065              		.align	2
 1066              	.L99:
 1067 0090 14000000 		.word	.LC1
 1068              		.cfi_endproc
 1069              	.LFE17:
 1070              		.size	chOQWriteTimeout, .-chOQWriteTimeout
 1071 0094 AFF30080 		.section	.rodata.str1.4,"aMS",%progbits,1
 1071      AFF30080 
 1071      AFF30080 
 1072              		.align	2
 1073              	.LC0:
ARM GAS  /tmp/ccNDKjOb.s 			page 20


 1074 0000 22636849 		.ascii	"\"chIQReadTimeout\"()\000"
 1074      51526561 
 1074      6454696D 
 1074      656F7574 
 1074      22282900 
 1075              	.LC1:
 1076 0014 2263684F 		.ascii	"\"chOQWriteTimeout\"()\000"
 1076      51577269 
 1076      74655469 
 1076      6D656F75 
 1076      74222829 
 1077 0029 000000   		.text
 1078              	.Letext0:
 1079              		.file 3 "/opt/gcc-arm-none-eabi-4_7-2013q1/bin/../lib/gcc/arm-none-eabi/4.7.3/include/stddef.h"
 1080              		.file 4 "/opt/gcc-arm-none-eabi-4_7-2013q1/bin/../lib/gcc/arm-none-eabi/4.7.3/../../../../arm-none
 1081              		.file 5 "/home/gokul/ChibiOS_2.5.0/os/ports/GCC/ARMCMx/chtypes.h"
 1082              		.file 6 "/home/gokul/ChibiOS_2.5.0/os/kernel/include/chlists.h"
 1083              		.file 7 "/home/gokul/ChibiOS_2.5.0/os/kernel/include/chthreads.h"
 1084              		.file 8 "/home/gokul/ChibiOS_2.5.0/os/ports/GCC/ARMCMx/chcore_v7m.h"
 1085              		.file 9 "/home/gokul/ChibiOS_2.5.0/os/kernel/include/chschd.h"
 1086              		.file 10 "/home/gokul/ChibiOS_2.5.0/os/kernel/include/chmtx.h"
 1087              		.file 11 "/home/gokul/ChibiOS_2.5.0/os/kernel/include/chqueues.h"
 1088              		.file 12 "/home/gokul/ChibiOS_2.5.0/os/kernel/include/chdebug.h"