ARM GAS  /tmp/ccTyIPRq.s 			page 1


   1              		.syntax unified
   2              		.cpu cortex-m4
   3              		.fpu softvfp
   4              		.eabi_attribute 20, 1
   5              		.eabi_attribute 21, 1
   6              		.eabi_attribute 23, 3
   7              		.eabi_attribute 24, 1
   8              		.eabi_attribute 25, 1
   9              		.eabi_attribute 26, 1
  10              		.eabi_attribute 30, 2
  11              		.eabi_attribute 34, 1
  12              		.eabi_attribute 18, 4
  13              		.thumb
  14              		.file	"chsem.c"
  15              		.text
  16              	.Ltext0:
  17              		.cfi_sections	.debug_frame
  18              		.section	.text.chSemInit,"ax",%progbits
  19              		.align	2
  20              		.p2align 4,,15
  21              		.global	chSemInit
  22              		.thumb
  23              		.thumb_func
  24              		.type	chSemInit, %function
  25              	chSemInit:
  26              	.LFB7:
  27              		.file 1 "/home/gokul/ChibiOS_2.5.0/os/kernel/src/chsem.c"
  28              		.loc 1 79 0
  29              		.cfi_startproc
  30              		@ args = 0, pretend = 0, frame = 0
  31              		@ frame_needed = 0, uses_anonymous_args = 0
  32              	.LVL0:
  33 0000 38B5     		push	{r3, r4, r5, lr}
  34              	.LCFI0:
  35              		.cfi_def_cfa_offset 16
  36              		.cfi_offset 3, -16
  37              		.cfi_offset 4, -12
  38              		.cfi_offset 5, -8
  39              		.cfi_offset 14, -4
  40              		.loc 1 81 0
  41 0002 0446     		mov	r4, r0
  42              		.loc 1 79 0
  43 0004 0D46     		mov	r5, r1
  44              		.loc 1 81 0
  45 0006 28B1     		cbz	r0, .L2
  46              		.loc 1 81 0 is_stmt 0 discriminator 2
  47 0008 0029     		cmp	r1, #0
  48 000a 03DB     		blt	.L2
  49              	.LVL1:
  50              	.L3:
  51              		.loc 1 83 0 is_stmt 1
  52 000c 6460     		str	r4, [r4, #4]
  53 000e 2460     		str	r4, [r4, #0]
  54              		.loc 1 84 0
  55 0010 A560     		str	r5, [r4, #8]
  56 0012 38BD     		pop	{r3, r4, r5, pc}
  57              	.LVL2:
ARM GAS  /tmp/ccTyIPRq.s 			page 2


  58              	.L2:
  59              		.loc 1 81 0 discriminator 1
  60 0014 0148     		ldr	r0, .L8
  61              	.LVL3:
  62 0016 FFF7FEFF 		bl	chDbgPanic
  63              	.LVL4:
  64 001a F7E7     		b	.L3
  65              	.L9:
  66              		.align	2
  67              	.L8:
  68 001c 00000000 		.word	.LC0
  69              		.cfi_endproc
  70              	.LFE7:
  71              		.size	chSemInit, .-chSemInit
  72              		.section	.text.chSemResetI,"ax",%progbits
  73              		.align	2
  74              		.p2align 4,,15
  75              		.global	chSemResetI
  76              		.thumb
  77              		.thumb_func
  78              		.type	chSemResetI, %function
  79              	chSemResetI:
  80              	.LFB9:
  81              		.loc 1 129 0
  82              		.cfi_startproc
  83              		@ args = 0, pretend = 0, frame = 0
  84              		@ frame_needed = 0, uses_anonymous_args = 0
  85              	.LVL5:
  86 0000 F8B5     		push	{r3, r4, r5, r6, r7, lr}
  87              	.LCFI1:
  88              		.cfi_def_cfa_offset 24
  89              		.cfi_offset 3, -24
  90              		.cfi_offset 4, -20
  91              		.cfi_offset 5, -16
  92              		.cfi_offset 6, -12
  93              		.cfi_offset 7, -8
  94              		.cfi_offset 14, -4
  95              		.loc 1 129 0
  96 0002 0446     		mov	r4, r0
  97 0004 0D46     		mov	r5, r1
  98              		.loc 1 132 0
  99 0006 FFF7FEFF 		bl	chDbgCheckClassI
 100              	.LVL6:
 101              		.loc 1 133 0
 102 000a 002C     		cmp	r4, #0
 103 000c 3DD0     		beq	.L11
 104              		.loc 1 133 0 is_stmt 0 discriminator 2
 105 000e 002D     		cmp	r5, #0
 106 0010 3BDB     		blt	.L11
 107              	.L12:
 108              		.loc 1 134 0 is_stmt 1
 109 0012 A768     		ldr	r7, [r4, #8]
 110 0014 2368     		ldr	r3, [r4, #0]
 111 0016 002F     		cmp	r7, #0
 112 0018 34DB     		blt	.L13
 113              		.loc 1 134 0 is_stmt 0 discriminator 2
 114 001a A342     		cmp	r3, r4
ARM GAS  /tmp/ccTyIPRq.s 			page 3


 115 001c 03D0     		beq	.L15
 116              	.L14:
 117              		.loc 1 134 0 discriminator 3
 118 001e 1E48     		ldr	r0, .L32
 119 0020 FFF7FEFF 		bl	chDbgPanic
 120              	.LVL7:
 121 0024 A768     		ldr	r7, [r4, #8]
 122              	.L15:
 123              	.LVL8:
 124              		.loc 1 141 0 is_stmt 1
 125 0026 0137     		adds	r7, r7, #1
 126              	.LVL9:
 127 0028 002F     		cmp	r7, #0
 128              		.loc 1 140 0
 129 002a A560     		str	r5, [r4, #8]
 130              	.LVL10:
 131              		.loc 1 141 0
 132 002c 29DC     		bgt	.L10
 133              	.LBB24:
 134              	.LBB25:
 135              		.file 2 "/home/gokul/ChibiOS_2.5.0/os/kernel/include/chinline.h"
 136              		.loc 2 60 0
 137 002e 6068     		ldr	r0, [r4, #4]
 138              		.loc 2 62 0
 139 0030 4168     		ldr	r1, [r0, #4]
 140 0032 6160     		str	r1, [r4, #4]
 141 0034 0C60     		str	r4, [r1, #0]
 142              	.LBE25:
 143              	.LBE24:
 144              		.loc 1 142 0
 145 0036 FFF7FEFF 		bl	chSchReadyI
 146              	.LVL11:
 147 003a 6FF00106 		mvn	r6, #1
 148 003e 07F00102 		and	r2, r7, #1
 149              	.LVL12:
 150 0042 8662     		str	r6, [r0, #40]
 151              		.loc 1 141 0
 152 0044 7D1C     		adds	r5, r7, #1
 153              	.LVL13:
 154 0046 27B3     		cbz	r7, .L30
 155 0048 4AB1     		cbz	r2, .L21
 156              	.LBB29:
 157              	.LBB26:
 158              		.loc 2 60 0
 159 004a 6068     		ldr	r0, [r4, #4]
 160              		.loc 2 62 0
 161 004c 4368     		ldr	r3, [r0, #4]
 162 004e 6360     		str	r3, [r4, #4]
 163 0050 1C60     		str	r4, [r3, #0]
 164              	.LBE26:
 165              	.LBE29:
 166              		.loc 1 142 0
 167 0052 FFF7FEFF 		bl	chSchReadyI
 168              	.LVL14:
 169              		.loc 1 141 0
 170 0056 0135     		adds	r5, r5, #1
 171 0058 012D     		cmp	r5, #1
ARM GAS  /tmp/ccTyIPRq.s 			page 4


 172              		.loc 1 142 0
 173 005a 8662     		str	r6, [r0, #40]
 174              	.LVL15:
 175              		.loc 1 141 0
 176 005c 1AD0     		beq	.L31
 177              	.L21:
 178              	.LBB30:
 179              	.LBB27:
 180              		.loc 2 60 0
 181 005e 6068     		ldr	r0, [r4, #4]
 182              		.loc 2 62 0
 183 0060 4168     		ldr	r1, [r0, #4]
 184 0062 6160     		str	r1, [r4, #4]
 185 0064 0C60     		str	r4, [r1, #0]
 186              	.LBE27:
 187              	.LBE30:
 188              		.loc 1 142 0
 189 0066 FFF7FEFF 		bl	chSchReadyI
 190              	.LVL16:
 191 006a 8662     		str	r6, [r0, #40]
 192              	.LBB31:
 193              	.LBB28:
 194              		.loc 2 60 0
 195 006c 6068     		ldr	r0, [r4, #4]
 196              		.loc 2 62 0
 197 006e 4268     		ldr	r2, [r0, #4]
 198 0070 6260     		str	r2, [r4, #4]
 199 0072 1460     		str	r4, [r2, #0]
 200              	.LBE28:
 201              	.LBE31:
 202              		.loc 1 142 0
 203 0074 FFF7FEFF 		bl	chSchReadyI
 204              	.LVL17:
 205              		.loc 1 141 0
 206 0078 6B1C     		adds	r3, r5, #1
 207              		.loc 1 142 0
 208 007a 8662     		str	r6, [r0, #40]
 209              		.loc 1 141 0
 210 007c 0235     		adds	r5, r5, #2
 211 007e 002B     		cmp	r3, #0
 212 0080 EDD1     		bne	.L21
 213              	.LVL18:
 214              	.L10:
 215 0082 F8BD     		pop	{r3, r4, r5, r6, r7, pc}
 216              	.LVL19:
 217              	.L13:
 218              		.loc 1 134 0 discriminator 4
 219 0084 A342     		cmp	r3, r4
 220 0086 CED1     		bne	.L15
 221 0088 C9E7     		b	.L14
 222              	.L11:
 223              		.loc 1 133 0 discriminator 1
 224 008a 0448     		ldr	r0, .L32+4
 225 008c FFF7FEFF 		bl	chDbgPanic
 226              	.LVL20:
 227 0090 BFE7     		b	.L12
 228              	.LVL21:
ARM GAS  /tmp/ccTyIPRq.s 			page 5


 229              	.L30:
 230 0092 F8BD     		pop	{r3, r4, r5, r6, r7, pc}
 231              	.LVL22:
 232              	.L31:
 233 0094 F8BD     		pop	{r3, r4, r5, r6, r7, pc}
 234              	.L33:
 235 0096 00BF     		.align	2
 236              	.L32:
 237 0098 20000000 		.word	.LC2
 238 009c 10000000 		.word	.LC1
 239              		.cfi_endproc
 240              	.LFE9:
 241              		.size	chSemResetI, .-chSemResetI
 242              		.section	.text.chSemReset,"ax",%progbits
 243              		.align	2
 244              		.p2align 4,,15
 245              		.global	chSemReset
 246              		.thumb
 247              		.thumb_func
 248              		.type	chSemReset, %function
 249              	chSemReset:
 250              	.LFB8:
 251              		.loc 1 102 0
 252              		.cfi_startproc
 253              		@ args = 0, pretend = 0, frame = 0
 254              		@ frame_needed = 0, uses_anonymous_args = 0
 255              	.LVL23:
 256 0000 38B5     		push	{r3, r4, r5, lr}
 257              	.LCFI2:
 258              		.cfi_def_cfa_offset 16
 259              		.cfi_offset 3, -16
 260              		.cfi_offset 4, -12
 261              		.cfi_offset 5, -8
 262              		.cfi_offset 14, -4
 263              		.loc 1 102 0
 264 0002 0546     		mov	r5, r0
 265 0004 0C46     		mov	r4, r1
 266              	.LBB32:
 267              		.loc 1 104 0
 268 0006 2023     		movs	r3, #32
 269              	.LVL24:
 270              	@ 104 "/home/gokul/ChibiOS_2.5.0/os/kernel/src/chsem.c" 1
 271 0008 83F31188 		msr     BASEPRI, r3
 272              	@ 0 "" 2
 273              	.LVL25:
 274              		.thumb
 275              	.LBE32:
 276 000c FFF7FEFF 		bl	dbg_check_lock
 277              	.LVL26:
 278              		.loc 1 105 0
 279 0010 2846     		mov	r0, r5
 280 0012 2146     		mov	r1, r4
 281 0014 FFF7FEFF 		bl	chSemResetI
 282              	.LVL27:
 283              		.loc 1 106 0
 284 0018 FFF7FEFF 		bl	chSchRescheduleS
 285              	.LVL28:
ARM GAS  /tmp/ccTyIPRq.s 			page 6


 286              		.loc 1 107 0
 287 001c FFF7FEFF 		bl	dbg_check_unlock
 288              	.LVL29:
 289              	.LBB33:
 290 0020 0023     		movs	r3, #0
 291              	.LVL30:
 292              	@ 107 "/home/gokul/ChibiOS_2.5.0/os/kernel/src/chsem.c" 1
 293 0022 83F31188 		msr     BASEPRI, r3
 294              	@ 0 "" 2
 295              	.LVL31:
 296              		.thumb
 297 0026 38BD     		pop	{r3, r4, r5, pc}
 298              	.LBE33:
 299              		.cfi_endproc
 300              	.LFE8:
 301              		.size	chSemReset, .-chSemReset
 302 0028 AFF30080 		.section	.text.chSemWaitS,"ax",%progbits
 302      AFF30080 
 303              		.align	2
 304              		.p2align 4,,15
 305              		.global	chSemWaitS
 306              		.thumb
 307              		.thumb_func
 308              		.type	chSemWaitS, %function
 309              	chSemWaitS:
 310              	.LFB11:
 311              		.loc 1 178 0
 312              		.cfi_startproc
 313              		@ args = 0, pretend = 0, frame = 0
 314              		@ frame_needed = 0, uses_anonymous_args = 0
 315              	.LVL32:
 316 0000 38B5     		push	{r3, r4, r5, lr}
 317              	.LCFI3:
 318              		.cfi_def_cfa_offset 16
 319              		.cfi_offset 3, -16
 320              		.cfi_offset 4, -12
 321              		.cfi_offset 5, -8
 322              		.cfi_offset 14, -4
 323              		.loc 1 178 0
 324 0002 0446     		mov	r4, r0
 325              		.loc 1 180 0
 326 0004 FFF7FEFF 		bl	chDbgCheckClassS
 327              	.LVL33:
 328              		.loc 1 181 0
 329 0008 1CB3     		cbz	r4, .L43
 330              	.L36:
 331              		.loc 1 182 0
 332 000a A368     		ldr	r3, [r4, #8]
 333 000c 2268     		ldr	r2, [r4, #0]
 334 000e 002B     		cmp	r3, #0
 335 0010 0BDB     		blt	.L37
 336              		.loc 1 182 0 is_stmt 0 discriminator 2
 337 0012 A242     		cmp	r2, r4
 338 0014 03D0     		beq	.L39
 339              	.L38:
 340              		.loc 1 182 0 discriminator 3
 341 0016 1148     		ldr	r0, .L45
ARM GAS  /tmp/ccTyIPRq.s 			page 7


 342 0018 FFF7FEFF 		bl	chDbgPanic
 343              	.LVL34:
 344 001c A368     		ldr	r3, [r4, #8]
 345              	.L39:
 346              		.loc 1 187 0 is_stmt 1
 347 001e 581E     		subs	r0, r3, #1
 348 0020 0028     		cmp	r0, #0
 349 0022 A060     		str	r0, [r4, #8]
 350 0024 07DB     		blt	.L44
 351              	.L41:
 352              		.loc 1 193 0
 353 0026 0020     		movs	r0, #0
 354              		.loc 1 194 0
 355 0028 38BD     		pop	{r3, r4, r5, pc}
 356              	.L37:
 357              		.loc 1 182 0 discriminator 4
 358 002a A242     		cmp	r2, r4
 359 002c F3D0     		beq	.L38
 360              		.loc 1 187 0
 361 002e 581E     		subs	r0, r3, #1
 362 0030 0028     		cmp	r0, #0
 363 0032 A060     		str	r0, [r4, #8]
 364 0034 F7DA     		bge	.L41
 365              	.L44:
 366              		.loc 1 188 0
 367 0036 0A4D     		ldr	r5, .L45+4
 368 0038 A969     		ldr	r1, [r5, #24]
 369 003a 8C62     		str	r4, [r1, #40]
 370              	.LVL35:
 371              	.LBB34:
 372              	.LBB35:
 373              		.loc 2 48 0
 374 003c 6268     		ldr	r2, [r4, #4]
 375              		.loc 2 47 0
 376 003e 0C60     		str	r4, [r1, #0]
 377              		.loc 2 48 0
 378 0040 4A60     		str	r2, [r1, #4]
 379              	.LBE35:
 380              	.LBE34:
 381              		.loc 1 190 0
 382 0042 0320     		movs	r0, #3
 383              	.LBB37:
 384              	.LBB36:
 385              		.loc 2 49 0
 386 0044 6160     		str	r1, [r4, #4]
 387 0046 1160     		str	r1, [r2, #0]
 388              	.LBE36:
 389              	.LBE37:
 390              		.loc 1 190 0
 391 0048 FFF7FEFF 		bl	chSchGoSleepS
 392              	.LVL36:
 393              		.loc 1 191 0
 394 004c AB69     		ldr	r3, [r5, #24]
 395 004e 986A     		ldr	r0, [r3, #40]
 396 0050 38BD     		pop	{r3, r4, r5, pc}
 397              	.LVL37:
 398              	.L43:
ARM GAS  /tmp/ccTyIPRq.s 			page 8


 399              		.loc 1 181 0 discriminator 1
 400 0052 0448     		ldr	r0, .L45+8
 401 0054 FFF7FEFF 		bl	chDbgPanic
 402              	.LVL38:
 403 0058 D7E7     		b	.L36
 404              	.L46:
 405 005a 00BF     		.align	2
 406              	.L45:
 407 005c 44000000 		.word	.LC4
 408 0060 00000000 		.word	rlist
 409 0064 34000000 		.word	.LC3
 410              		.cfi_endproc
 411              	.LFE11:
 412              		.size	chSemWaitS, .-chSemWaitS
 413 0068 AFF30080 		.section	.text.chSemWait,"ax",%progbits
 413      AFF30080 
 414              		.align	2
 415              		.p2align 4,,15
 416              		.global	chSemWait
 417              		.thumb
 418              		.thumb_func
 419              		.type	chSemWait, %function
 420              	chSemWait:
 421              	.LFB10:
 422              		.loc 1 157 0
 423              		.cfi_startproc
 424              		@ args = 0, pretend = 0, frame = 0
 425              		@ frame_needed = 0, uses_anonymous_args = 0
 426              	.LVL39:
 427 0000 10B5     		push	{r4, lr}
 428              	.LCFI4:
 429              		.cfi_def_cfa_offset 8
 430              		.cfi_offset 4, -8
 431              		.cfi_offset 14, -4
 432              	.LBB38:
 433              		.loc 1 160 0
 434 0002 2023     		movs	r3, #32
 435              	.LVL40:
 436              	.LBE38:
 437              		.loc 1 157 0
 438 0004 0446     		mov	r4, r0
 439              	.LBB39:
 440              		.loc 1 160 0
 441              	@ 160 "/home/gokul/ChibiOS_2.5.0/os/kernel/src/chsem.c" 1
 442 0006 83F31188 		msr     BASEPRI, r3
 443              	@ 0 "" 2
 444              	.LVL41:
 445              		.thumb
 446              	.LBE39:
 447 000a FFF7FEFF 		bl	dbg_check_lock
 448              	.LVL42:
 449              		.loc 1 161 0
 450 000e 2046     		mov	r0, r4
 451 0010 FFF7FEFF 		bl	chSemWaitS
 452              	.LVL43:
 453 0014 0446     		mov	r4, r0
 454              	.LVL44:
ARM GAS  /tmp/ccTyIPRq.s 			page 9


 455              		.loc 1 162 0
 456 0016 FFF7FEFF 		bl	dbg_check_unlock
 457              	.LVL45:
 458              	.LBB40:
 459 001a 0023     		movs	r3, #0
 460              	.LVL46:
 461              	@ 162 "/home/gokul/ChibiOS_2.5.0/os/kernel/src/chsem.c" 1
 462 001c 83F31188 		msr     BASEPRI, r3
 463              	@ 0 "" 2
 464              	.LVL47:
 465              		.thumb
 466              	.LBE40:
 467              		.loc 1 164 0
 468 0020 2046     		mov	r0, r4
 469 0022 10BD     		pop	{r4, pc}
 470              		.cfi_endproc
 471              	.LFE10:
 472              		.size	chSemWait, .-chSemWait
 473 0024 AFF30080 		.section	.text.chSemWaitTimeoutS,"ax",%progbits
 473      AFF30080 
 473      AFF30080 
 474              		.align	2
 475              		.p2align 4,,15
 476              		.global	chSemWaitTimeoutS
 477              		.thumb
 478              		.thumb_func
 479              		.type	chSemWaitTimeoutS, %function
 480              	chSemWaitTimeoutS:
 481              	.LFB13:
 482              		.loc 1 243 0
 483              		.cfi_startproc
 484              		@ args = 0, pretend = 0, frame = 0
 485              		@ frame_needed = 0, uses_anonymous_args = 0
 486              	.LVL48:
 487 0000 38B5     		push	{r3, r4, r5, lr}
 488              	.LCFI5:
 489              		.cfi_def_cfa_offset 16
 490              		.cfi_offset 3, -16
 491              		.cfi_offset 4, -12
 492              		.cfi_offset 5, -8
 493              		.cfi_offset 14, -4
 494              		.loc 1 243 0
 495 0002 0446     		mov	r4, r0
 496 0004 0D46     		mov	r5, r1
 497              		.loc 1 245 0
 498 0006 FFF7FEFF 		bl	chDbgCheckClassS
 499              	.LVL49:
 500              		.loc 1 246 0
 501 000a 002C     		cmp	r4, #0
 502 000c 24D0     		beq	.L57
 503              	.L49:
 504              		.loc 1 247 0
 505 000e A368     		ldr	r3, [r4, #8]
 506 0010 2268     		ldr	r2, [r4, #0]
 507 0012 002B     		cmp	r3, #0
 508 0014 0BDB     		blt	.L50
 509              		.loc 1 247 0 is_stmt 0 discriminator 2
ARM GAS  /tmp/ccTyIPRq.s 			page 10


 510 0016 A242     		cmp	r2, r4
 511 0018 03D0     		beq	.L52
 512              	.L51:
 513              		.loc 1 247 0 discriminator 3
 514 001a 1348     		ldr	r0, .L60
 515 001c FFF7FEFF 		bl	chDbgPanic
 516              	.LVL50:
 517 0020 A368     		ldr	r3, [r4, #8]
 518              	.L52:
 519              		.loc 1 252 0 is_stmt 1
 520 0022 581E     		subs	r0, r3, #1
 521 0024 0028     		cmp	r0, #0
 522 0026 A060     		str	r0, [r4, #8]
 523 0028 07DB     		blt	.L58
 524              	.L55:
 525              		.loc 1 261 0
 526 002a 0020     		movs	r0, #0
 527              		.loc 1 262 0
 528 002c 38BD     		pop	{r3, r4, r5, pc}
 529              	.L50:
 530              		.loc 1 247 0 discriminator 4
 531 002e A242     		cmp	r2, r4
 532 0030 F3D0     		beq	.L51
 533              		.loc 1 252 0
 534 0032 581E     		subs	r0, r3, #1
 535 0034 0028     		cmp	r0, #0
 536 0036 A060     		str	r0, [r4, #8]
 537 0038 F7DA     		bge	.L55
 538              	.L58:
 539              		.loc 1 253 0
 540 003a 8DB1     		cbz	r5, .L59
 541              		.loc 1 257 0
 542 003c 0B49     		ldr	r1, .L60+4
 543 003e 8B69     		ldr	r3, [r1, #24]
 544 0040 9C62     		str	r4, [r3, #40]
 545              	.LVL51:
 546              	.LBB41:
 547              	.LBB42:
 548              		.loc 2 48 0
 549 0042 6268     		ldr	r2, [r4, #4]
 550              		.loc 2 47 0
 551 0044 1C60     		str	r4, [r3, #0]
 552              	.LBE42:
 553              	.LBE41:
 554              		.loc 1 259 0
 555 0046 0320     		movs	r0, #3
 556 0048 2946     		mov	r1, r5
 557              	.LBB44:
 558              	.LBB43:
 559              		.loc 2 48 0
 560 004a 5A60     		str	r2, [r3, #4]
 561              		.loc 2 49 0
 562 004c 6360     		str	r3, [r4, #4]
 563 004e 1360     		str	r3, [r2, #0]
 564              	.LBE43:
 565              	.LBE44:
 566              		.loc 1 262 0
ARM GAS  /tmp/ccTyIPRq.s 			page 11


 567 0050 BDE83840 		pop	{r3, r4, r5, lr}
 568              		.loc 1 259 0
 569 0054 FFF7FEBF 		b	chSchGoSleepTimeoutS
 570              	.LVL52:
 571              	.L57:
 572              		.loc 1 246 0 discriminator 1
 573 0058 0548     		ldr	r0, .L60+8
 574 005a FFF7FEFF 		bl	chDbgPanic
 575              	.LVL53:
 576 005e D6E7     		b	.L49
 577              	.L59:
 578              		.loc 1 254 0
 579 0060 A360     		str	r3, [r4, #8]
 580              		.loc 1 255 0
 581 0062 4FF0FF30 		mov	r0, #-1
 582 0066 38BD     		pop	{r3, r4, r5, pc}
 583              	.L61:
 584              		.align	2
 585              	.L60:
 586 0068 70000000 		.word	.LC6
 587 006c 00000000 		.word	rlist
 588 0070 58000000 		.word	.LC5
 589              		.cfi_endproc
 590              	.LFE13:
 591              		.size	chSemWaitTimeoutS, .-chSemWaitTimeoutS
 592 0074 AFF30080 		.section	.text.chSemWaitTimeout,"ax",%progbits
 592      AFF30080 
 592      AFF30080 
 593              		.align	2
 594              		.p2align 4,,15
 595              		.global	chSemWaitTimeout
 596              		.thumb
 597              		.thumb_func
 598              		.type	chSemWaitTimeout, %function
 599              	chSemWaitTimeout:
 600              	.LFB12:
 601              		.loc 1 215 0
 602              		.cfi_startproc
 603              		@ args = 0, pretend = 0, frame = 0
 604              		@ frame_needed = 0, uses_anonymous_args = 0
 605              	.LVL54:
 606 0000 38B5     		push	{r3, r4, r5, lr}
 607              	.LCFI6:
 608              		.cfi_def_cfa_offset 16
 609              		.cfi_offset 3, -16
 610              		.cfi_offset 4, -12
 611              		.cfi_offset 5, -8
 612              		.cfi_offset 14, -4
 613              		.loc 1 215 0
 614 0002 0546     		mov	r5, r0
 615 0004 0C46     		mov	r4, r1
 616              	.LBB45:
 617              		.loc 1 218 0
 618 0006 2023     		movs	r3, #32
 619              	.LVL55:
 620              	@ 218 "/home/gokul/ChibiOS_2.5.0/os/kernel/src/chsem.c" 1
 621 0008 83F31188 		msr     BASEPRI, r3
ARM GAS  /tmp/ccTyIPRq.s 			page 12


 622              	@ 0 "" 2
 623              	.LVL56:
 624              		.thumb
 625              	.LBE45:
 626 000c FFF7FEFF 		bl	dbg_check_lock
 627              	.LVL57:
 628              		.loc 1 219 0
 629 0010 2146     		mov	r1, r4
 630 0012 2846     		mov	r0, r5
 631 0014 FFF7FEFF 		bl	chSemWaitTimeoutS
 632              	.LVL58:
 633 0018 0446     		mov	r4, r0
 634              	.LVL59:
 635              		.loc 1 220 0
 636 001a FFF7FEFF 		bl	dbg_check_unlock
 637              	.LVL60:
 638              	.LBB46:
 639 001e 0023     		movs	r3, #0
 640              	.LVL61:
 641              	@ 220 "/home/gokul/ChibiOS_2.5.0/os/kernel/src/chsem.c" 1
 642 0020 83F31188 		msr     BASEPRI, r3
 643              	@ 0 "" 2
 644              	.LVL62:
 645              		.thumb
 646              	.LBE46:
 647              		.loc 1 222 0
 648 0024 2046     		mov	r0, r4
 649 0026 38BD     		pop	{r3, r4, r5, pc}
 650              		.cfi_endproc
 651              	.LFE12:
 652              		.size	chSemWaitTimeout, .-chSemWaitTimeout
 653 0028 AFF30080 		.section	.text.chSemSignal,"ax",%progbits
 653      AFF30080 
 654              		.align	2
 655              		.p2align 4,,15
 656              		.global	chSemSignal
 657              		.thumb
 658              		.thumb_func
 659              		.type	chSemSignal, %function
 660              	chSemSignal:
 661              	.LFB14:
 662              		.loc 1 271 0
 663              		.cfi_startproc
 664              		@ args = 0, pretend = 0, frame = 0
 665              		@ frame_needed = 0, uses_anonymous_args = 0
 666              	.LVL63:
 667 0000 10B5     		push	{r4, lr}
 668              	.LCFI7:
 669              		.cfi_def_cfa_offset 8
 670              		.cfi_offset 4, -8
 671              		.cfi_offset 14, -4
 672              		.loc 1 273 0
 673 0002 0446     		mov	r4, r0
 674 0004 18B3     		cbz	r0, .L69
 675              	.LVL64:
 676              	.L64:
 677              		.loc 1 274 0
ARM GAS  /tmp/ccTyIPRq.s 			page 13


 678 0006 A368     		ldr	r3, [r4, #8]
 679 0008 2068     		ldr	r0, [r4, #0]
 680 000a 002B     		cmp	r3, #0
 681 000c 14DB     		blt	.L65
 682              		.loc 1 274 0 is_stmt 0 discriminator 2
 683 000e A042     		cmp	r0, r4
 684 0010 02D0     		beq	.L67
 685              	.L66:
 686              		.loc 1 274 0 discriminator 3
 687 0012 1148     		ldr	r0, .L71
 688 0014 FFF7FEFF 		bl	chDbgPanic
 689              	.LVL65:
 690              	.L67:
 691              	.LBB47:
 692              		.loc 1 279 0 is_stmt 1
 693 0018 2023     		movs	r3, #32
 694              	.LVL66:
 695              	@ 279 "/home/gokul/ChibiOS_2.5.0/os/kernel/src/chsem.c" 1
 696 001a 83F31188 		msr     BASEPRI, r3
 697              	@ 0 "" 2
 698              	.LVL67:
 699              		.thumb
 700              	.LBE47:
 701 001e FFF7FEFF 		bl	dbg_check_lock
 702              	.LVL68:
 703              		.loc 1 280 0
 704 0022 A168     		ldr	r1, [r4, #8]
 705 0024 4A1C     		adds	r2, r1, #1
 706 0026 002A     		cmp	r2, #0
 707 0028 A260     		str	r2, [r4, #8]
 708 002a 08DD     		ble	.L70
 709              	.L68:
 710              		.loc 1 282 0
 711 002c FFF7FEFF 		bl	dbg_check_unlock
 712              	.LVL69:
 713              	.LBB48:
 714 0030 0023     		movs	r3, #0
 715              	.LVL70:
 716              	@ 282 "/home/gokul/ChibiOS_2.5.0/os/kernel/src/chsem.c" 1
 717 0032 83F31188 		msr     BASEPRI, r3
 718              	@ 0 "" 2
 719              	.LVL71:
 720              		.thumb
 721 0036 10BD     		pop	{r4, pc}
 722              	.LVL72:
 723              	.L65:
 724              	.LBE48:
 725              		.loc 1 274 0 discriminator 4
 726 0038 A042     		cmp	r0, r4
 727 003a EDD1     		bne	.L67
 728 003c E9E7     		b	.L66
 729              	.L70:
 730              	.LVL73:
 731              	.LBB49:
 732              	.LBB50:
 733              		.loc 2 53 0
 734 003e 2068     		ldr	r0, [r4, #0]
ARM GAS  /tmp/ccTyIPRq.s 			page 14


 735              	.LVL74:
 736              		.loc 2 55 0
 737 0040 0368     		ldr	r3, [r0, #0]
 738              	.LBE50:
 739              	.LBE49:
 740              		.loc 1 281 0
 741 0042 0021     		movs	r1, #0
 742              	.LBB52:
 743              	.LBB51:
 744              		.loc 2 55 0
 745 0044 2360     		str	r3, [r4, #0]
 746 0046 5C60     		str	r4, [r3, #4]
 747              	.LBE51:
 748              	.LBE52:
 749              		.loc 1 281 0
 750 0048 FFF7FEFF 		bl	chSchWakeupS
 751              	.LVL75:
 752 004c EEE7     		b	.L68
 753              	.LVL76:
 754              	.L69:
 755              		.loc 1 273 0 discriminator 1
 756 004e 0348     		ldr	r0, .L71+4
 757              	.LVL77:
 758 0050 FFF7FEFF 		bl	chDbgPanic
 759              	.LVL78:
 760 0054 D7E7     		b	.L64
 761              	.L72:
 762 0056 00BF     		.align	2
 763              	.L71:
 764 0058 98000000 		.word	.LC8
 765 005c 88000000 		.word	.LC7
 766              		.cfi_endproc
 767              	.LFE14:
 768              		.size	chSemSignal, .-chSemSignal
 769              		.section	.text.chSemSignalI,"ax",%progbits
 770              		.align	2
 771              		.p2align 4,,15
 772              		.global	chSemSignalI
 773              		.thumb
 774              		.thumb_func
 775              		.type	chSemSignalI, %function
 776              	chSemSignalI:
 777              	.LFB15:
 778              		.loc 1 296 0
 779              		.cfi_startproc
 780              		@ args = 0, pretend = 0, frame = 0
 781              		@ frame_needed = 0, uses_anonymous_args = 0
 782              	.LVL79:
 783 0000 10B5     		push	{r4, lr}
 784              	.LCFI8:
 785              		.cfi_def_cfa_offset 8
 786              		.cfi_offset 4, -8
 787              		.cfi_offset 14, -4
 788              		.loc 1 296 0
 789 0002 0446     		mov	r4, r0
 790              		.loc 1 298 0
 791 0004 FFF7FEFF 		bl	chDbgCheckClassI
ARM GAS  /tmp/ccTyIPRq.s 			page 15


 792              	.LVL80:
 793              		.loc 1 299 0
 794 0008 002C     		cmp	r4, #0
 795 000a 1FD0     		beq	.L80
 796              	.L74:
 797              		.loc 1 300 0
 798 000c A368     		ldr	r3, [r4, #8]
 799 000e 2268     		ldr	r2, [r4, #0]
 800 0010 002B     		cmp	r3, #0
 801 0012 0ADB     		blt	.L75
 802              		.loc 1 300 0 is_stmt 0 discriminator 2
 803 0014 A242     		cmp	r2, r4
 804 0016 03D0     		beq	.L77
 805              	.L76:
 806              		.loc 1 300 0 discriminator 3
 807 0018 0E48     		ldr	r0, .L82
 808 001a FFF7FEFF 		bl	chDbgPanic
 809              	.LVL81:
 810 001e A368     		ldr	r3, [r4, #8]
 811              	.L77:
 812              		.loc 1 305 0 is_stmt 1
 813 0020 581C     		adds	r0, r3, #1
 814 0022 0028     		cmp	r0, #0
 815 0024 A060     		str	r0, [r4, #8]
 816 0026 06DD     		ble	.L81
 817              	.L73:
 818 0028 10BD     		pop	{r4, pc}
 819              	.L75:
 820              		.loc 1 300 0 discriminator 4
 821 002a A242     		cmp	r2, r4
 822 002c F4D0     		beq	.L76
 823              		.loc 1 305 0
 824 002e 581C     		adds	r0, r3, #1
 825 0030 0028     		cmp	r0, #0
 826 0032 A060     		str	r0, [r4, #8]
 827 0034 F8DC     		bgt	.L73
 828              	.L81:
 829              	.LVL82:
 830              	.LBB53:
 831              	.LBB54:
 832              	.LBB55:
 833              		.loc 2 53 0
 834 0036 2168     		ldr	r1, [r4, #0]
 835              	.LVL83:
 836              		.loc 2 55 0
 837 0038 0A68     		ldr	r2, [r1, #0]
 838              	.LBE55:
 839              	.LBE54:
 840              		.loc 1 309 0
 841 003a 0023     		movs	r3, #0
 842              		.loc 1 310 0
 843 003c 0846     		mov	r0, r1
 844              	.LBB57:
 845              	.LBB56:
 846              		.loc 2 55 0
 847 003e 2260     		str	r2, [r4, #0]
 848 0040 5460     		str	r4, [r2, #4]
ARM GAS  /tmp/ccTyIPRq.s 			page 16


 849              	.LBE56:
 850              	.LBE57:
 851              		.loc 1 309 0
 852 0042 8B62     		str	r3, [r1, #40]
 853              	.LBE53:
 854              		.loc 1 312 0
 855 0044 BDE81040 		pop	{r4, lr}
 856              	.LBB58:
 857              		.loc 1 310 0
 858 0048 FFF7FEBF 		b	chSchReadyI
 859              	.LVL84:
 860              	.L80:
 861              	.LBE58:
 862              		.loc 1 299 0 discriminator 1
 863 004c 0248     		ldr	r0, .L82+4
 864 004e FFF7FEFF 		bl	chDbgPanic
 865              	.LVL85:
 866 0052 DBE7     		b	.L74
 867              	.L83:
 868              		.align	2
 869              	.L82:
 870 0054 C0000000 		.word	.LC10
 871 0058 AC000000 		.word	.LC9
 872              		.cfi_endproc
 873              	.LFE15:
 874              		.size	chSemSignalI, .-chSemSignalI
 875 005c AFF30080 		.section	.text.chSemAddCounterI,"ax",%progbits
 876              		.align	2
 877              		.p2align 4,,15
 878              		.global	chSemAddCounterI
 879              		.thumb
 880              		.thumb_func
 881              		.type	chSemAddCounterI, %function
 882              	chSemAddCounterI:
 883              	.LFB16:
 884              		.loc 1 327 0
 885              		.cfi_startproc
 886              		@ args = 0, pretend = 0, frame = 0
 887              		@ frame_needed = 0, uses_anonymous_args = 0
 888              	.LVL86:
 889 0000 F8B5     		push	{r3, r4, r5, r6, r7, lr}
 890              	.LCFI9:
 891              		.cfi_def_cfa_offset 24
 892              		.cfi_offset 3, -24
 893              		.cfi_offset 4, -20
 894              		.cfi_offset 5, -16
 895              		.cfi_offset 6, -12
 896              		.cfi_offset 7, -8
 897              		.cfi_offset 14, -4
 898              		.loc 1 327 0
 899 0002 0446     		mov	r4, r0
 900 0004 0D46     		mov	r5, r1
 901              		.loc 1 329 0
 902 0006 FFF7FEFF 		bl	chDbgCheckClassI
 903              	.LVL87:
 904              		.loc 1 330 0
 905 000a 002C     		cmp	r4, #0
ARM GAS  /tmp/ccTyIPRq.s 			page 17


 906 000c 48D0     		beq	.L85
 907              		.loc 1 330 0 is_stmt 0 discriminator 2
 908 000e 002D     		cmp	r5, #0
 909 0010 46DD     		ble	.L85
 910              	.L86:
 911              		.loc 1 331 0 is_stmt 1
 912 0012 A368     		ldr	r3, [r4, #8]
 913 0014 2068     		ldr	r0, [r4, #0]
 914 0016 002B     		cmp	r3, #0
 915 0018 3FDB     		blt	.L87
 916              		.loc 1 331 0 is_stmt 0 discriminator 2
 917 001a A042     		cmp	r0, r4
 918 001c 02D0     		beq	.L89
 919              	.L88:
 920              		.loc 1 331 0 discriminator 3
 921 001e 2B48     		ldr	r0, .L116
 922 0020 FFF7FEFF 		bl	chDbgPanic
 923              	.LVL88:
 924              	.L89:
 925              		.loc 1 336 0 is_stmt 1 discriminator 1
 926 0024 002D     		cmp	r5, #0
 927 0026 37DD     		ble	.L84
 928              		.loc 1 337 0
 929 0028 A168     		ldr	r1, [r4, #8]
 930              		.loc 1 338 0
 931 002a 0026     		movs	r6, #0
 932              		.loc 1 337 0
 933 002c 4B1C     		adds	r3, r1, #1
 934 002e 6A1E     		subs	r2, r5, #1
 935 0030 B342     		cmp	r3, r6
 936 0032 A360     		str	r3, [r4, #8]
 937 0034 02F00107 		and	r7, r2, #1
 938 0038 36DD     		ble	.L110
 939              	.L98:
 940              		.loc 1 336 0
 941 003a 013D     		subs	r5, r5, #1
 942              	.LVL89:
 943 003c 2CD0     		beq	.L84
 944 003e 77B1     		cbz	r7, .L96
 945              		.loc 1 337 0
 946 0040 A068     		ldr	r0, [r4, #8]
 947 0042 421C     		adds	r2, r0, #1
 948 0044 002A     		cmp	r2, #0
 949 0046 A260     		str	r2, [r4, #8]
 950 0048 36DD     		ble	.L111
 951              	.L100:
 952              	.LVL90:
 953              		.loc 1 336 0
 954 004a 013D     		subs	r5, r5, #1
 955 004c 07D1     		bne	.L96
 956 004e 3BE0     		b	.L115
 957              	.L91:
 958              		.loc 1 337 0
 959 0050 A368     		ldr	r3, [r4, #8]
 960 0052 591C     		adds	r1, r3, #1
 961 0054 0029     		cmp	r1, #0
 962 0056 A160     		str	r1, [r4, #8]
ARM GAS  /tmp/ccTyIPRq.s 			page 18


 963 0058 14DD     		ble	.L113
 964              	.L103:
 965              		.loc 1 336 0
 966 005a 013D     		subs	r5, r5, #1
 967 005c 1BD0     		beq	.L114
 968              	.L96:
 969              		.loc 1 337 0
 970 005e A168     		ldr	r1, [r4, #8]
 971 0060 481C     		adds	r0, r1, #1
 972 0062 0028     		cmp	r0, #0
 973 0064 A060     		str	r0, [r4, #8]
 974              		.loc 1 339 0
 975 0066 05F1FF35 		add	r5, r5, #-1
 976              		.loc 1 337 0
 977 006a F1DC     		bgt	.L91
 978              	.LVL91:
 979              	.LBB59:
 980              	.LBB60:
 981              		.loc 2 53 0
 982 006c 2068     		ldr	r0, [r4, #0]
 983              	.LVL92:
 984              		.loc 2 55 0
 985 006e 0268     		ldr	r2, [r0, #0]
 986 0070 2260     		str	r2, [r4, #0]
 987 0072 5460     		str	r4, [r2, #4]
 988              	.LBE60:
 989              	.LBE59:
 990              		.loc 1 338 0
 991 0074 FFF7FEFF 		bl	chSchReadyI
 992              	.LVL93:
 993 0078 8662     		str	r6, [r0, #40]
 994              		.loc 1 337 0
 995 007a A368     		ldr	r3, [r4, #8]
 996 007c 591C     		adds	r1, r3, #1
 997 007e 0029     		cmp	r1, #0
 998 0080 A160     		str	r1, [r4, #8]
 999 0082 EADC     		bgt	.L103
 1000              	.LVL94:
 1001              	.L113:
 1002              	.LBB64:
 1003              	.LBB61:
 1004              		.loc 2 53 0
 1005 0084 2068     		ldr	r0, [r4, #0]
 1006              		.loc 2 55 0
 1007 0086 0268     		ldr	r2, [r0, #0]
 1008 0088 2260     		str	r2, [r4, #0]
 1009 008a 5460     		str	r4, [r2, #4]
 1010              	.LBE61:
 1011              	.LBE64:
 1012              		.loc 1 338 0
 1013 008c FFF7FEFF 		bl	chSchReadyI
 1014              	.LVL95:
 1015              		.loc 1 336 0
 1016 0090 013D     		subs	r5, r5, #1
 1017              		.loc 1 338 0
 1018 0092 8662     		str	r6, [r0, #40]
 1019              		.loc 1 336 0
ARM GAS  /tmp/ccTyIPRq.s 			page 19


 1020 0094 E3D1     		bne	.L96
 1021              	.LVL96:
 1022              	.L114:
 1023 0096 F8BD     		pop	{r3, r4, r5, r6, r7, pc}
 1024              	.L84:
 1025 0098 F8BD     		pop	{r3, r4, r5, r6, r7, pc}
 1026              	.LVL97:
 1027              	.L87:
 1028              		.loc 1 331 0 discriminator 4
 1029 009a A042     		cmp	r0, r4
 1030 009c C2D1     		bne	.L89
 1031 009e BEE7     		b	.L88
 1032              	.L85:
 1033              		.loc 1 330 0 discriminator 1
 1034 00a0 0B48     		ldr	r0, .L116+4
 1035 00a2 FFF7FEFF 		bl	chDbgPanic
 1036              	.LVL98:
 1037 00a6 B4E7     		b	.L86
 1038              	.L110:
 1039              	.LVL99:
 1040              	.LBB65:
 1041              	.LBB62:
 1042              		.loc 2 53 0
 1043 00a8 2068     		ldr	r0, [r4, #0]
 1044              		.loc 2 55 0
 1045 00aa 0168     		ldr	r1, [r0, #0]
 1046 00ac 2160     		str	r1, [r4, #0]
 1047 00ae 4C60     		str	r4, [r1, #4]
 1048              	.LBE62:
 1049              	.LBE65:
 1050              		.loc 1 338 0
 1051 00b0 FFF7FEFF 		bl	chSchReadyI
 1052              	.LVL100:
 1053 00b4 8662     		str	r6, [r0, #40]
 1054 00b6 C0E7     		b	.L98
 1055              	.LVL101:
 1056              	.L111:
 1057              	.LBB66:
 1058              	.LBB63:
 1059              		.loc 2 53 0
 1060 00b8 2068     		ldr	r0, [r4, #0]
 1061              		.loc 2 55 0
 1062 00ba 0368     		ldr	r3, [r0, #0]
 1063 00bc 2360     		str	r3, [r4, #0]
 1064 00be 5C60     		str	r4, [r3, #4]
 1065              	.LBE63:
 1066              	.LBE66:
 1067              		.loc 1 338 0
 1068 00c0 FFF7FEFF 		bl	chSchReadyI
 1069              	.LVL102:
 1070 00c4 8662     		str	r6, [r0, #40]
 1071 00c6 C0E7     		b	.L100
 1072              	.LVL103:
 1073              	.L115:
 1074 00c8 F8BD     		pop	{r3, r4, r5, r6, r7, pc}
 1075              	.L117:
 1076 00ca 00BF     		.align	2
ARM GAS  /tmp/ccTyIPRq.s 			page 20


 1077              	.L116:
 1078 00cc EC000000 		.word	.LC12
 1079 00d0 D4000000 		.word	.LC11
 1080              		.cfi_endproc
 1081              	.LFE16:
 1082              		.size	chSemAddCounterI, .-chSemAddCounterI
 1083 00d4 AFF30080 		.section	.text.chSemSignalWait,"ax",%progbits
 1083      AFF30080 
 1083      AFF30080 
 1084              		.align	2
 1085              		.p2align 4,,15
 1086              		.global	chSemSignalWait
 1087              		.thumb
 1088              		.thumb_func
 1089              		.type	chSemSignalWait, %function
 1090              	chSemSignalWait:
 1091              	.LFB17:
 1092              		.loc 1 359 0
 1093              		.cfi_startproc
 1094              		@ args = 0, pretend = 0, frame = 0
 1095              		@ frame_needed = 0, uses_anonymous_args = 0
 1096              	.LVL104:
 1097 0000 38B5     		push	{r3, r4, r5, lr}
 1098              	.LCFI10:
 1099              		.cfi_def_cfa_offset 16
 1100              		.cfi_offset 3, -16
 1101              		.cfi_offset 4, -12
 1102              		.cfi_offset 5, -8
 1103              		.cfi_offset 14, -4
 1104              		.loc 1 362 0
 1105 0002 0546     		mov	r5, r0
 1106              		.loc 1 359 0
 1107 0004 0C46     		mov	r4, r1
 1108              		.loc 1 362 0
 1109 0006 0028     		cmp	r0, #0
 1110 0008 35D0     		beq	.L119
 1111              		.loc 1 362 0 is_stmt 0 discriminator 2
 1112 000a 0029     		cmp	r1, #0
 1113 000c 33D0     		beq	.L119
 1114              	.LVL105:
 1115              	.L120:
 1116              		.loc 1 363 0 is_stmt 1
 1117 000e AB68     		ldr	r3, [r5, #8]
 1118 0010 2868     		ldr	r0, [r5, #0]
 1119 0012 002B     		cmp	r3, #0
 1120 0014 26DB     		blt	.L121
 1121              		.loc 1 363 0 is_stmt 0 discriminator 2
 1122 0016 A842     		cmp	r0, r5
 1123 0018 02D0     		beq	.L123
 1124              	.L122:
 1125              		.loc 1 363 0 discriminator 3
 1126 001a 2448     		ldr	r0, .L137
 1127 001c FFF7FEFF 		bl	chDbgPanic
 1128              	.LVL106:
 1129              	.L123:
 1130              		.loc 1 367 0 is_stmt 1
 1131 0020 A168     		ldr	r1, [r4, #8]
ARM GAS  /tmp/ccTyIPRq.s 			page 21


 1132 0022 2268     		ldr	r2, [r4, #0]
 1133 0024 0029     		cmp	r1, #0
 1134 0026 23DB     		blt	.L124
 1135              	.L136:
 1136              		.loc 1 367 0 is_stmt 0 discriminator 2
 1137 0028 A242     		cmp	r2, r4
 1138 002a 02D0     		beq	.L126
 1139              	.L125:
 1140              		.loc 1 367 0 discriminator 3
 1141 002c 2048     		ldr	r0, .L137+4
 1142 002e FFF7FEFF 		bl	chDbgPanic
 1143              	.LVL107:
 1144              	.L126:
 1145              	.LBB67:
 1146              		.loc 1 372 0 is_stmt 1
 1147 0032 2023     		movs	r3, #32
 1148              	.LVL108:
 1149              	@ 372 "/home/gokul/ChibiOS_2.5.0/os/kernel/src/chsem.c" 1
 1150 0034 83F31188 		msr     BASEPRI, r3
 1151              	@ 0 "" 2
 1152              	.LVL109:
 1153              		.thumb
 1154              	.LBE67:
 1155 0038 FFF7FEFF 		bl	dbg_check_lock
 1156              	.LVL110:
 1157              		.loc 1 373 0
 1158 003c AB68     		ldr	r3, [r5, #8]
 1159 003e 581C     		adds	r0, r3, #1
 1160 0040 0028     		cmp	r0, #0
 1161 0042 A860     		str	r0, [r5, #8]
 1162 0044 28DD     		ble	.L134
 1163              	.L127:
 1164              		.loc 1 375 0
 1165 0046 A368     		ldr	r3, [r4, #8]
 1166 0048 581E     		subs	r0, r3, #1
 1167 004a 0028     		cmp	r0, #0
 1168 004c A060     		str	r0, [r4, #8]
 1169 004e 16DB     		blt	.L135
 1170              		.loc 1 383 0
 1171 0050 FFF7FEFF 		bl	chSchRescheduleS
 1172              	.LVL111:
 1173              		.loc 1 384 0
 1174 0054 0024     		movs	r4, #0
 1175              	.LVL112:
 1176              	.L129:
 1177              		.loc 1 386 0
 1178 0056 FFF7FEFF 		bl	dbg_check_unlock
 1179              	.LVL113:
 1180              	.LBB68:
 1181 005a 0023     		movs	r3, #0
 1182              	.LVL114:
 1183              	@ 386 "/home/gokul/ChibiOS_2.5.0/os/kernel/src/chsem.c" 1
 1184 005c 83F31188 		msr     BASEPRI, r3
 1185              	@ 0 "" 2
 1186              	.LVL115:
 1187              		.thumb
 1188              	.LBE68:
ARM GAS  /tmp/ccTyIPRq.s 			page 22


 1189              		.loc 1 388 0
 1190 0060 2046     		mov	r0, r4
 1191 0062 38BD     		pop	{r3, r4, r5, pc}
 1192              	.LVL116:
 1193              	.L121:
 1194              		.loc 1 363 0 discriminator 4
 1195 0064 A842     		cmp	r0, r5
 1196 0066 D8D0     		beq	.L122
 1197              		.loc 1 367 0
 1198 0068 A168     		ldr	r1, [r4, #8]
 1199 006a 2268     		ldr	r2, [r4, #0]
 1200 006c 0029     		cmp	r1, #0
 1201 006e DBDA     		bge	.L136
 1202              	.L124:
 1203              		.loc 1 367 0 is_stmt 0 discriminator 4
 1204 0070 A242     		cmp	r2, r4
 1205 0072 DED1     		bne	.L126
 1206 0074 DAE7     		b	.L125
 1207              	.LVL117:
 1208              	.L119:
 1209              		.loc 1 362 0 is_stmt 1 discriminator 1
 1210 0076 0F48     		ldr	r0, .L137+8
 1211              	.LVL118:
 1212 0078 FFF7FEFF 		bl	chDbgPanic
 1213              	.LVL119:
 1214 007c C7E7     		b	.L120
 1215              	.L135:
 1216              	.LBB69:
 1217              		.loc 1 376 0
 1218 007e 0E4D     		ldr	r5, .L137+12
 1219              	.LVL120:
 1220              	.LBB70:
 1221              	.LBB71:
 1222              		.loc 2 48 0
 1223 0080 6168     		ldr	r1, [r4, #4]
 1224              	.LBE71:
 1225              	.LBE70:
 1226              		.loc 1 376 0
 1227 0082 AD69     		ldr	r5, [r5, #24]
 1228              	.LVL121:
 1229              		.loc 1 379 0
 1230 0084 0320     		movs	r0, #3
 1231              	.LBB74:
 1232              	.LBB72:
 1233              		.loc 2 47 0
 1234 0086 2C60     		str	r4, [r5, #0]
 1235              		.loc 2 48 0
 1236 0088 6960     		str	r1, [r5, #4]
 1237              		.loc 2 49 0
 1238 008a 6560     		str	r5, [r4, #4]
 1239              	.LBE72:
 1240              	.LBE74:
 1241              		.loc 1 378 0
 1242 008c AC62     		str	r4, [r5, #40]
 1243              	.LBB75:
 1244              	.LBB73:
 1245              		.loc 2 49 0
ARM GAS  /tmp/ccTyIPRq.s 			page 23


 1246 008e 0D60     		str	r5, [r1, #0]
 1247              	.LBE73:
 1248              	.LBE75:
 1249              		.loc 1 379 0
 1250 0090 FFF7FEFF 		bl	chSchGoSleepS
 1251              	.LVL122:
 1252              		.loc 1 380 0
 1253 0094 AC6A     		ldr	r4, [r5, #40]
 1254              	.LVL123:
 1255 0096 DEE7     		b	.L129
 1256              	.LVL124:
 1257              	.L134:
 1258              	.LBE69:
 1259              	.LBB76:
 1260              	.LBB77:
 1261              		.loc 2 53 0
 1262 0098 2868     		ldr	r0, [r5, #0]
 1263              	.LVL125:
 1264              		.loc 2 55 0
 1265 009a 0168     		ldr	r1, [r0, #0]
 1266 009c 2960     		str	r1, [r5, #0]
 1267 009e 4D60     		str	r5, [r1, #4]
 1268              	.LBE77:
 1269              	.LBE76:
 1270              		.loc 1 374 0
 1271 00a0 FFF7FEFF 		bl	chSchReadyI
 1272              	.LVL126:
 1273 00a4 0022     		movs	r2, #0
 1274 00a6 8262     		str	r2, [r0, #40]
 1275 00a8 CDE7     		b	.L127
 1276              	.L138:
 1277 00aa 00BF     		.align	2
 1278              	.L137:
 1279 00ac 18010000 		.word	.LC14
 1280 00b0 30010000 		.word	.LC15
 1281 00b4 04010000 		.word	.LC13
 1282 00b8 00000000 		.word	rlist
 1283              		.cfi_endproc
 1284              	.LFE17:
 1285              		.size	chSemSignalWait, .-chSemSignalWait
 1286 00bc AFF30080 		.section	.rodata.str1.4,"aMS",%progbits,1
 1287              		.align	2
 1288              	.LC0:
 1289 0000 22636853 		.ascii	"\"chSemInit\"()\000"
 1289      656D496E 
 1289      69742228 
 1289      2900
 1290 000e 0000     		.space	2
 1291              	.LC1:
 1292 0010 22636853 		.ascii	"\"chSemResetI\"()\000"
 1292      656D5265 
 1292      73657449 
 1292      22282900 
 1293              	.LC2:
 1294 0020 63685365 		.ascii	"chSemResetI(), #1\000"
 1294      6D526573 
 1294      65744928 
ARM GAS  /tmp/ccTyIPRq.s 			page 24


 1294      292C2023 
 1294      3100
 1295 0032 0000     		.space	2
 1296              	.LC3:
 1297 0034 22636853 		.ascii	"\"chSemWaitS\"()\000"
 1297      656D5761 
 1297      69745322 
 1297      282900
 1298 0043 00       		.space	1
 1299              	.LC4:
 1300 0044 63685365 		.ascii	"chSemWaitS(), #1\000"
 1300      6D576169 
 1300      74532829 
 1300      2C202331 
 1300      00
 1301 0055 000000   		.space	3
 1302              	.LC5:
 1303 0058 22636853 		.ascii	"\"chSemWaitTimeoutS\"()\000"
 1303      656D5761 
 1303      69745469 
 1303      6D656F75 
 1303      74532228 
 1304 006e 0000     		.space	2
 1305              	.LC6:
 1306 0070 63685365 		.ascii	"chSemWaitTimeoutS(), #1\000"
 1306      6D576169 
 1306      7454696D 
 1306      656F7574 
 1306      5328292C 
 1307              	.LC7:
 1308 0088 22636853 		.ascii	"\"chSemSignal\"()\000"
 1308      656D5369 
 1308      676E616C 
 1308      22282900 
 1309              	.LC8:
 1310 0098 63685365 		.ascii	"chSemSignal(), #1\000"
 1310      6D536967 
 1310      6E616C28 
 1310      292C2023 
 1310      3100
 1311 00aa 0000     		.space	2
 1312              	.LC9:
 1313 00ac 22636853 		.ascii	"\"chSemSignalI\"()\000"
 1313      656D5369 
 1313      676E616C 
 1313      49222829 
 1313      00
 1314 00bd 000000   		.space	3
 1315              	.LC10:
 1316 00c0 63685365 		.ascii	"chSemSignalI(), #1\000"
 1316      6D536967 
 1316      6E616C49 
 1316      28292C20 
 1316      233100
 1317 00d3 00       		.space	1
 1318              	.LC11:
 1319 00d4 22636853 		.ascii	"\"chSemAddCounterI\"()\000"
ARM GAS  /tmp/ccTyIPRq.s 			page 25


 1319      656D4164 
 1319      64436F75 
 1319      6E746572 
 1319      49222829 
 1320 00e9 000000   		.space	3
 1321              	.LC12:
 1322 00ec 63685365 		.ascii	"chSemAddCounterI(), #1\000"
 1322      6D416464 
 1322      436F756E 
 1322      74657249 
 1322      28292C20 
 1323 0103 00       		.space	1
 1324              	.LC13:
 1325 0104 22636853 		.ascii	"\"chSemSignalWait\"()\000"
 1325      656D5369 
 1325      676E616C 
 1325      57616974 
 1325      22282900 
 1326              	.LC14:
 1327 0118 63685365 		.ascii	"chSemSignalWait(), #1\000"
 1327      6D536967 
 1327      6E616C57 
 1327      61697428 
 1327      292C2023 
 1328 012e 0000     		.space	2
 1329              	.LC15:
 1330 0130 63685365 		.ascii	"chSemSignalWait(), #2\000"
 1330      6D536967 
 1330      6E616C57 
 1330      61697428 
 1330      292C2023 
 1331 0146 0000     		.text
 1332              	.Letext0:
 1333              		.file 3 "/opt/gcc-arm-none-eabi-4_7-2013q1/bin/../lib/gcc/arm-none-eabi/4.7.3/../../../../arm-none
 1334              		.file 4 "/home/gokul/ChibiOS_2.5.0/os/ports/GCC/ARMCMx/chtypes.h"
 1335              		.file 5 "/home/gokul/ChibiOS_2.5.0/os/kernel/include/chlists.h"
 1336              		.file 6 "/home/gokul/ChibiOS_2.5.0/os/kernel/include/chthreads.h"
 1337              		.file 7 "/home/gokul/ChibiOS_2.5.0/os/ports/GCC/ARMCMx/chcore_v7m.h"
 1338              		.file 8 "/home/gokul/ChibiOS_2.5.0/os/kernel/include/chschd.h"
 1339              		.file 9 "/home/gokul/ChibiOS_2.5.0/os/kernel/include/chsem.h"
 1340              		.file 10 "/home/gokul/ChibiOS_2.5.0/os/kernel/include/chmtx.h"
 1341              		.file 11 "/home/gokul/ChibiOS_2.5.0/os/kernel/include/chdebug.h"