ARM GAS  /tmp/cc6JDISj.s 			page 1


   1              		.syntax unified
   2              		.cpu cortex-m4
   3              		.fpu softvfp
   4              		.eabi_attribute 20, 1
   5              		.eabi_attribute 21, 1
   6              		.eabi_attribute 23, 3
   7              		.eabi_attribute 24, 1
   8              		.eabi_attribute 25, 1
   9              		.eabi_attribute 26, 1
  10              		.eabi_attribute 30, 2
  11              		.eabi_attribute 34, 1
  12              		.eabi_attribute 18, 4
  13              		.thumb
  14              		.file	"chthreads.c"
  15              		.text
  16              	.Ltext0:
  17              		.cfi_sections	.debug_frame
  18              		.section	.text._thread_init,"ax",%progbits
  19              		.align	2
  20              		.p2align 4,,15
  21              		.global	_thread_init
  22              		.thumb
  23              		.thumb_func
  24              		.type	_thread_init, %function
  25              	_thread_init:
  26              	.LFB7:
  27              		.file 1 "/home/gokul/ChibiOS_2.5.0/os/kernel/src/chthreads.c"
  28              		.loc 1 69 0
  29              		.cfi_startproc
  30              		@ args = 0, pretend = 0, frame = 0
  31              		@ frame_needed = 0, uses_anonymous_args = 0
  32              		@ link register save eliminated.
  33              	.LVL0:
  34 0000 2DE9F001 		push	{r4, r5, r6, r7, r8}
  35              	.LCFI0:
  36              		.cfi_def_cfa_offset 20
  37              		.cfi_offset 4, -20
  38              		.cfi_offset 5, -16
  39              		.cfi_offset 6, -12
  40              		.cfi_offset 7, -8
  41              		.cfi_offset 8, -4
  42              		.loc 1 92 0
  43 0004 40F20004 		movw	r4, #:lower16:rlist
  44 0008 C0F20004 		movt	r4, #:upper16:rlist
  45              		.loc 1 73 0
  46 000c 0022     		movs	r2, #0
  47              		.loc 1 92 0
  48 000e 6569     		ldr	r5, [r4, #20]
  49              		.loc 1 78 0
  50 0010 4164     		str	r1, [r0, #68]
  51              		.loc 1 92 0
  52 0012 0461     		str	r4, [r0, #16]
  53              		.loc 1 98 0
  54 0014 00F13006 		add	r6, r0, #48
  55              		.loc 1 71 0
  56 0018 8160     		str	r1, [r0, #8]
  57              		.loc 1 95 0
ARM GAS  /tmp/cc6JDISj.s 			page 2


  58 001a 00F12C0C 		add	ip, r0, #44
  59              		.loc 1 101 0
  60 001e 00F14C07 		add	r7, r0, #76
  61              		.loc 1 92 0
  62 0022 4561     		str	r5, [r0, #20]
  63              		.loc 1 72 0
  64 0024 4FF00208 		mov	r8, #2
  65              		.loc 1 92 0
  66 0028 6061     		str	r0, [r4, #20]
  67              		.loc 1 88 0
  68 002a 0121     		movs	r1, #1
  69              	.LVL1:
  70              		.loc 1 75 0
  71 002c 1424     		movs	r4, #20
  72              		.loc 1 72 0
  73 002e 80F82080 		strb	r8, [r0, #32]
  74              		.loc 1 73 0
  75 0032 80F82120 		strb	r2, [r0, #33]
  76              		.loc 1 75 0
  77 0036 80F82340 		strb	r4, [r0, #35]
  78              		.loc 1 79 0
  79 003a 0264     		str	r2, [r0, #64]
  80              		.loc 1 82 0
  81 003c C263     		str	r2, [r0, #60]
  82              		.loc 1 85 0
  83 003e 4262     		str	r2, [r0, #36]
  84              		.loc 1 88 0
  85 0040 80F82210 		strb	r1, [r0, #34]
  86              		.loc 1 91 0
  87 0044 8261     		str	r2, [r0, #24]
  88              		.loc 1 92 0
  89 0046 2861     		str	r0, [r5, #16]
  90              		.loc 1 95 0
  91 0048 C0F82CC0 		str	ip, [r0, #44]
  92              		.loc 1 98 0
  93 004c 4663     		str	r6, [r0, #52]
  94 004e 0663     		str	r6, [r0, #48]
  95              		.loc 1 101 0
  96 0050 C761     		str	r7, [r0, #28]
  97              		.loc 1 107 0
  98 0052 BDE8F001 		pop	{r4, r5, r6, r7, r8}
  99 0056 7047     		bx	lr
 100              		.cfi_endproc
 101              	.LFE7:
 102              		.size	_thread_init, .-_thread_init
 103 0058 AFF30080 		.section	.text._thread_memfill,"ax",%progbits
 103      AFF30080 
 104              		.align	2
 105              		.p2align 4,,15
 106              		.global	_thread_memfill
 107              		.thumb
 108              		.thumb_func
 109              		.type	_thread_memfill, %function
 110              	_thread_memfill:
 111              	.LFB8:
 112              		.loc 1 119 0
 113              		.cfi_startproc
ARM GAS  /tmp/cc6JDISj.s 			page 3


 114              		@ args = 0, pretend = 0, frame = 0
 115              		@ frame_needed = 0, uses_anonymous_args = 0
 116              		@ link register save eliminated.
 117              	.LVL2:
 118              		.loc 1 121 0
 119 0000 8842     		cmp	r0, r1
 120 0002 14D2     		bcs	.L2
 121              		.loc 1 122 0
 122 0004 0346     		mov	r3, r0
 123 0006 C043     		mvns	r0, r0
 124              	.LVL3:
 125 0008 03F8012B 		strb	r2, [r3], #1
 126              	.LVL4:
 127 000c 0818     		adds	r0, r1, r0
 128              		.loc 1 121 0
 129 000e 8B42     		cmp	r3, r1
 130 0010 00F00100 		and	r0, r0, #1
 131 0014 0CD0     		beq	.L16
 132 0016 18B1     		cbz	r0, .L6
 133              		.loc 1 122 0
 134 0018 03F8012B 		strb	r2, [r3], #1
 135              	.LVL5:
 136              		.loc 1 121 0
 137 001c 8B42     		cmp	r3, r1
 138 001e 08D0     		beq	.L17
 139              	.L6:
 140              		.loc 1 122 0
 141 0020 1846     		mov	r0, r3
 142 0022 00F8012B 		strb	r2, [r0], #1
 143 0026 5A70     		strb	r2, [r3, #1]
 144 0028 431C     		adds	r3, r0, #1
 145              		.loc 1 121 0
 146 002a 8B42     		cmp	r3, r1
 147 002c F8D1     		bne	.L6
 148              	.L2:
 149 002e 7047     		bx	lr
 150              	.LVL6:
 151              	.L16:
 152 0030 7047     		bx	lr
 153              	.LVL7:
 154              	.L17:
 155 0032 7047     		bx	lr
 156              		.cfi_endproc
 157              	.LFE8:
 158              		.size	_thread_memfill, .-_thread_memfill
 159 0034 AFF30080 		.section	.text.chThdCreateI,"ax",%progbits
 159      AFF30080 
 159      AFF30080 
 160              		.align	2
 161              		.p2align 4,,15
 162              		.global	chThdCreateI
 163              		.thumb
 164              		.thumb_func
 165              		.type	chThdCreateI, %function
 166              	chThdCreateI:
 167              	.LFB9:
 168              		.loc 1 151 0
ARM GAS  /tmp/cc6JDISj.s 			page 4


 169              		.cfi_startproc
 170              		@ args = 4, pretend = 0, frame = 0
 171              		@ frame_needed = 0, uses_anonymous_args = 0
 172              	.LVL8:
 173 0000 2DE9F84F 		push	{r3, r4, r5, r6, r7, r8, r9, sl, fp, lr}
 174              	.LCFI1:
 175              		.cfi_def_cfa_offset 40
 176              		.cfi_offset 3, -40
 177              		.cfi_offset 4, -36
 178              		.cfi_offset 5, -32
 179              		.cfi_offset 6, -28
 180              		.cfi_offset 7, -24
 181              		.cfi_offset 8, -20
 182              		.cfi_offset 9, -16
 183              		.cfi_offset 10, -12
 184              		.cfi_offset 11, -8
 185              		.cfi_offset 14, -4
 186              		.loc 1 151 0
 187 0004 0446     		mov	r4, r0
 188              	.LVL9:
 189 0006 0D46     		mov	r5, r1
 190 0008 9046     		mov	r8, r2
 191 000a 9946     		mov	r9, r3
 192              		.loc 1 155 0
 193 000c FFF7FEFF 		bl	chDbgCheckClassI
 194              	.LVL10:
 195              		.loc 1 157 0
 196 0010 0CB1     		cbz	r4, .L19
 197              		.loc 1 157 0 is_stmt 0 discriminator 2
 198 0012 AF2D     		cmp	r5, #175
 199 0014 38D8     		bhi	.L24
 200              	.L19:
 201              		.loc 1 157 0 discriminator 1
 202 0016 2048     		ldr	r0, .L25
 203 0018 FFF7FEFF 		bl	chDbgPanic
 204              	.LVL11:
 205              	.L20:
 206              	.LBB16:
 207              	.LBB17:
 208              		.loc 1 92 0 is_stmt 1
 209 001c 1F4E     		ldr	r6, .L25+4
 210              	.LBE17:
 211              	.LBE16:
 212              		.loc 1 160 0
 213 001e 0A9B     		ldr	r3, [sp, #40]
 214              	.LBB22:
 215              	.LBB18:
 216              		.loc 1 92 0
 217 0020 D6F814C0 		ldr	ip, [r6, #20]
 218              	.LBE18:
 219              	.LBE22:
 220              		.loc 1 160 0
 221 0024 A5F12401 		sub	r1, r5, #36
 222 0028 6718     		adds	r7, r4, r1
 223 002a E760     		str	r7, [r4, #12]
 224 002c 44F80190 		str	r9, [r4, r1]
 225 0030 1B49     		ldr	r1, .L25+8
ARM GAS  /tmp/cc6JDISj.s 			page 5


 226 0032 7B60     		str	r3, [r7, #4]
 227              	.LBB23:
 228              	.LBB19:
 229              		.loc 1 72 0
 230 0034 0223     		movs	r3, #2
 231              	.LBE19:
 232              	.LBE23:
 233              		.loc 1 160 0
 234 0036 3962     		str	r1, [r7, #32]
 235              	.LVL12:
 236              	.LBB24:
 237              	.LBB20:
 238              		.loc 1 73 0
 239 0038 0025     		movs	r5, #0
 240              	.LVL13:
 241              		.loc 1 98 0
 242 003a 04F13002 		add	r2, r4, #48
 243              		.loc 1 95 0
 244 003e 04F12C0B 		add	fp, r4, #44
 245              		.loc 1 101 0
 246 0042 04F14C0A 		add	sl, r4, #76
 247              		.loc 1 72 0
 248 0046 84F82030 		strb	r3, [r4, #32]
 249              		.loc 1 75 0
 250 004a 1421     		movs	r1, #20
 251              		.loc 1 88 0
 252 004c 0123     		movs	r3, #1
 253              		.loc 1 92 0
 254 004e 2661     		str	r6, [r4, #16]
 255              		.loc 1 71 0
 256 0050 C4F80880 		str	r8, [r4, #8]
 257              		.loc 1 92 0
 258 0054 C4F814C0 		str	ip, [r4, #20]
 259              	.LBE20:
 260              	.LBE24:
 261              		.loc 1 162 0
 262 0058 2046     		mov	r0, r4
 263              	.LBB25:
 264              	.LBB21:
 265              		.loc 1 92 0
 266 005a 7461     		str	r4, [r6, #20]
 267              		.loc 1 73 0
 268 005c 84F82150 		strb	r5, [r4, #33]
 269              		.loc 1 75 0
 270 0060 84F82310 		strb	r1, [r4, #35]
 271              		.loc 1 78 0
 272 0064 C4F84480 		str	r8, [r4, #68]
 273              		.loc 1 79 0
 274 0068 2564     		str	r5, [r4, #64]
 275              		.loc 1 82 0
 276 006a E563     		str	r5, [r4, #60]
 277              		.loc 1 85 0
 278 006c 6562     		str	r5, [r4, #36]
 279              		.loc 1 88 0
 280 006e 84F82230 		strb	r3, [r4, #34]
 281              		.loc 1 91 0
 282 0072 A561     		str	r5, [r4, #24]
ARM GAS  /tmp/cc6JDISj.s 			page 6


 283              		.loc 1 92 0
 284 0074 CCF81040 		str	r4, [ip, #16]
 285              		.loc 1 95 0
 286 0078 C4F82CB0 		str	fp, [r4, #44]
 287              		.loc 1 98 0
 288 007c 6263     		str	r2, [r4, #52]
 289 007e 2263     		str	r2, [r4, #48]
 290              		.loc 1 101 0
 291 0080 C4F81CA0 		str	sl, [r4, #28]
 292              	.LBE21:
 293              	.LBE25:
 294              		.loc 1 162 0
 295 0084 BDE8F88F 		pop	{r3, r4, r5, r6, r7, r8, r9, sl, fp, pc}
 296              	.LVL14:
 297              	.L24:
 298              		.loc 1 157 0 discriminator 3
 299 0088 B8F17F0F 		cmp	r8, #127
 300 008c C3D8     		bhi	.L19
 301              		.loc 1 157 0 is_stmt 0 discriminator 4
 302 008e B9F1000F 		cmp	r9, #0
 303 0092 C3D1     		bne	.L20
 304 0094 BFE7     		b	.L19
 305              	.L26:
 306 0096 00BF     		.align	2
 307              	.L25:
 308 0098 00000000 		.word	.LC0
 309 009c 00000000 		.word	rlist
 310 00a0 00000000 		.word	_port_thread_start
 311              		.cfi_endproc
 312              	.LFE9:
 313              		.size	chThdCreateI, .-chThdCreateI
 314 00a4 AFF30080 		.section	.text.chThdCreateStatic,"ax",%progbits
 314      AFF30080 
 314      AFF30080 
 315              		.align	2
 316              		.p2align 4,,15
 317              		.global	chThdCreateStatic
 318              		.thumb
 319              		.thumb_func
 320              		.type	chThdCreateStatic, %function
 321              	chThdCreateStatic:
 322              	.LFB10:
 323              		.loc 1 181 0 is_stmt 1
 324              		.cfi_startproc
 325              		@ args = 4, pretend = 0, frame = 0
 326              		@ frame_needed = 0, uses_anonymous_args = 0
 327              	.LVL15:
 328 0000 2DE9F04F 		push	{r4, r5, r6, r7, r8, r9, sl, fp, lr}
 329              	.LCFI2:
 330              		.cfi_def_cfa_offset 36
 331              		.cfi_offset 4, -36
 332              		.cfi_offset 5, -32
 333              		.cfi_offset 6, -28
 334              		.cfi_offset 7, -24
 335              		.cfi_offset 8, -20
 336              		.cfi_offset 9, -16
 337              		.cfi_offset 10, -12
ARM GAS  /tmp/cc6JDISj.s 			page 7


 338              		.cfi_offset 11, -8
 339              		.cfi_offset 14, -4
 340 0004 9B46     		mov	fp, r3
 341 0006 83B0     		sub	sp, sp, #12
 342              	.LCFI3:
 343              		.cfi_def_cfa_offset 48
 344              		.loc 1 181 0
 345 0008 8046     		mov	r8, r0
 346 000a 8946     		mov	r9, r1
 347 000c 9246     		mov	sl, r2
 348              		.loc 1 185 0
 349 000e 00F14C03 		add	r3, r0, #76
 350              	.LVL16:
 351              		.loc 1 180 0
 352 0012 00F10104 		add	r4, r0, #1
 353 0016 00F14D07 		add	r7, r0, #77
 354              	.LBB26:
 355              	.LBB27:
 356              		.loc 1 122 0
 357 001a FF26     		movs	r6, #255
 358              	.LVL17:
 359              	.L28:
 360 001c 2546     		mov	r5, r4
 361 001e 04F8016C 		strb	r6, [r4, #-1]
 362 0022 05F8016B 		strb	r6, [r5], #1
 363 0026 6C1C     		adds	r4, r5, #1
 364              		.loc 1 121 0
 365 0028 BC42     		cmp	r4, r7
 366 002a F7D1     		bne	.L28
 367              	.LBE27:
 368              	.LBE26:
 369              		.loc 1 188 0
 370 002c 08EB0907 		add	r7, r8, r9
 371              	.LVL18:
 372              	.LBB28:
 373              	.LBB29:
 374              		.loc 1 121 0
 375 0030 BB42     		cmp	r3, r7
 376 0032 15D2     		bcs	.L31
 377              		.loc 1 122 0
 378 0034 1846     		mov	r0, r3
 379              	.LVL19:
 380 0036 5526     		movs	r6, #85
 381 0038 00F8016B 		strb	r6, [r0], #1
 382 003c D943     		mvns	r1, r3
 383              	.LVL20:
 384 003e 7A18     		adds	r2, r7, r1
 385              	.LVL21:
 386              		.loc 1 121 0
 387 0040 B842     		cmp	r0, r7
 388 0042 02F00103 		and	r3, r2, #1
 389              	.LVL22:
 390 0046 0BD0     		beq	.L31
 391 0048 1BB1     		cbz	r3, .L32
 392              		.loc 1 122 0
 393 004a 00F8016B 		strb	r6, [r0], #1
 394              	.LVL23:
ARM GAS  /tmp/cc6JDISj.s 			page 8


 395              		.loc 1 121 0
 396 004e B842     		cmp	r0, r7
 397 0050 06D0     		beq	.L31
 398              	.L32:
 399              		.loc 1 122 0
 400 0052 0546     		mov	r5, r0
 401 0054 05F8016B 		strb	r6, [r5], #1
 402 0058 4670     		strb	r6, [r0, #1]
 403 005a 681C     		adds	r0, r5, #1
 404              		.loc 1 121 0
 405 005c B842     		cmp	r0, r7
 406 005e F8D1     		bne	.L32
 407              	.L31:
 408              	.LBE29:
 409              	.LBE28:
 410              	.LBB30:
 411              		.loc 1 192 0
 412 0060 2023     		movs	r3, #32
 413              	.LVL24:
 414              	@ 192 "/home/gokul/ChibiOS_2.5.0/os/kernel/src/chthreads.c" 1
 415 0062 83F31188 		msr     BASEPRI, r3
 416              	@ 0 "" 2
 417              	.LVL25:
 418              		.thumb
 419              	.LBE30:
 420 0066 FFF7FEFF 		bl	dbg_check_lock
 421              	.LVL26:
 422              		.loc 1 193 0
 423 006a 0C9C     		ldr	r4, [sp, #48]
 424 006c 5B46     		mov	r3, fp
 425 006e 5246     		mov	r2, sl
 426 0070 4946     		mov	r1, r9
 427 0072 0094     		str	r4, [sp, #0]
 428 0074 4046     		mov	r0, r8
 429 0076 FFF7FEFF 		bl	chThdCreateI
 430              	.LVL27:
 431 007a 0021     		movs	r1, #0
 432 007c 0446     		mov	r4, r0
 433              	.LVL28:
 434 007e FFF7FEFF 		bl	chSchWakeupS
 435              	.LVL29:
 436              		.loc 1 194 0
 437 0082 FFF7FEFF 		bl	dbg_check_unlock
 438              	.LVL30:
 439              	.LBB31:
 440 0086 0023     		movs	r3, #0
 441              	.LVL31:
 442              	@ 194 "/home/gokul/ChibiOS_2.5.0/os/kernel/src/chthreads.c" 1
 443 0088 83F31188 		msr     BASEPRI, r3
 444              	@ 0 "" 2
 445              	.LVL32:
 446              		.thumb
 447              	.LBE31:
 448              		.loc 1 196 0
 449 008c 2046     		mov	r0, r4
 450 008e 03B0     		add	sp, sp, #12
 451 0090 BDE8F08F 		pop	{r4, r5, r6, r7, r8, r9, sl, fp, pc}
ARM GAS  /tmp/cc6JDISj.s 			page 9


 452              		.cfi_endproc
 453              	.LFE10:
 454              		.size	chThdCreateStatic, .-chThdCreateStatic
 455 0094 AFF30080 		.section	.text.chThdSetPriority,"ax",%progbits
 455      AFF30080 
 455      AFF30080 
 456              		.align	2
 457              		.p2align 4,,15
 458              		.global	chThdSetPriority
 459              		.thumb
 460              		.thumb_func
 461              		.type	chThdSetPriority, %function
 462              	chThdSetPriority:
 463              	.LFB11:
 464              		.loc 1 210 0
 465              		.cfi_startproc
 466              		@ args = 0, pretend = 0, frame = 0
 467              		@ frame_needed = 0, uses_anonymous_args = 0
 468              	.LVL33:
 469              		.loc 1 213 0
 470 0000 7F28     		cmp	r0, #127
 471              		.loc 1 210 0
 472 0002 38B5     		push	{r3, r4, r5, lr}
 473              	.LCFI4:
 474              		.cfi_def_cfa_offset 16
 475              		.cfi_offset 3, -16
 476              		.cfi_offset 4, -12
 477              		.cfi_offset 5, -8
 478              		.cfi_offset 14, -4
 479              		.loc 1 210 0
 480 0004 0446     		mov	r4, r0
 481              		.loc 1 213 0
 482 0006 17D8     		bhi	.L47
 483              	.LVL34:
 484              	.L44:
 485              	.LBB32:
 486              		.loc 1 215 0
 487 0008 2023     		movs	r3, #32
 488              	.LVL35:
 489              	@ 215 "/home/gokul/ChibiOS_2.5.0/os/kernel/src/chthreads.c" 1
 490 000a 83F31188 		msr     BASEPRI, r3
 491              	@ 0 "" 2
 492              	.LVL36:
 493              		.thumb
 494              	.LBE32:
 495 000e FFF7FEFF 		bl	dbg_check_lock
 496              	.LVL37:
 497              		.loc 1 217 0
 498 0012 0B4B     		ldr	r3, .L48
 499 0014 9869     		ldr	r0, [r3, #24]
 500 0016 456C     		ldr	r5, [r0, #68]
 501              	.LVL38:
 502              		.loc 1 218 0
 503 0018 8268     		ldr	r2, [r0, #8]
 504 001a 9542     		cmp	r5, r2
 505 001c 01D0     		beq	.L45
 506              		.loc 1 218 0 is_stmt 0 discriminator 1
ARM GAS  /tmp/cc6JDISj.s 			page 10


 507 001e 9442     		cmp	r4, r2
 508 0020 00D9     		bls	.L46
 509              	.L45:
 510              		.loc 1 219 0 is_stmt 1
 511 0022 8460     		str	r4, [r0, #8]
 512              	.L46:
 513              		.loc 1 220 0
 514 0024 4464     		str	r4, [r0, #68]
 515              		.loc 1 225 0
 516 0026 FFF7FEFF 		bl	chSchRescheduleS
 517              	.LVL39:
 518              		.loc 1 226 0
 519 002a FFF7FEFF 		bl	dbg_check_unlock
 520              	.LVL40:
 521              	.LBB33:
 522 002e 0023     		movs	r3, #0
 523              	.LVL41:
 524              	@ 226 "/home/gokul/ChibiOS_2.5.0/os/kernel/src/chthreads.c" 1
 525 0030 83F31188 		msr     BASEPRI, r3
 526              	@ 0 "" 2
 527              	.LVL42:
 528              		.thumb
 529              	.LBE33:
 530              		.loc 1 228 0
 531 0034 2846     		mov	r0, r5
 532 0036 38BD     		pop	{r3, r4, r5, pc}
 533              	.LVL43:
 534              	.L47:
 535              		.loc 1 213 0 discriminator 1
 536 0038 0248     		ldr	r0, .L48+4
 537              	.LVL44:
 538 003a FFF7FEFF 		bl	chDbgPanic
 539              	.LVL45:
 540 003e E3E7     		b	.L44
 541              	.L49:
 542              		.align	2
 543              	.L48:
 544 0040 00000000 		.word	rlist
 545 0044 14000000 		.word	.LC1
 546              		.cfi_endproc
 547              	.LFE11:
 548              		.size	chThdSetPriority, .-chThdSetPriority
 549 0048 AFF30080 		.section	.text.chThdResume,"ax",%progbits
 549      AFF30080 
 550              		.align	2
 551              		.p2align 4,,15
 552              		.global	chThdResume
 553              		.thumb
 554              		.thumb_func
 555              		.type	chThdResume, %function
 556              	chThdResume:
 557              	.LFB12:
 558              		.loc 1 243 0
 559              		.cfi_startproc
 560              		@ args = 0, pretend = 0, frame = 0
 561              		@ frame_needed = 0, uses_anonymous_args = 0
 562              	.LVL46:
ARM GAS  /tmp/cc6JDISj.s 			page 11


 563 0000 10B5     		push	{r4, lr}
 564              	.LCFI5:
 565              		.cfi_def_cfa_offset 8
 566              		.cfi_offset 4, -8
 567              		.cfi_offset 14, -4
 568              	.LBB34:
 569              		.loc 1 245 0
 570 0002 2023     		movs	r3, #32
 571              	.LVL47:
 572              	.LBE34:
 573              		.loc 1 243 0
 574 0004 0446     		mov	r4, r0
 575              	.LBB35:
 576              		.loc 1 245 0
 577              	@ 245 "/home/gokul/ChibiOS_2.5.0/os/kernel/src/chthreads.c" 1
 578 0006 83F31188 		msr     BASEPRI, r3
 579              	@ 0 "" 2
 580              	.LVL48:
 581              		.thumb
 582              	.LBE35:
 583 000a FFF7FEFF 		bl	dbg_check_lock
 584              	.LVL49:
 585              		.loc 1 246 0
 586 000e 94F82030 		ldrb	r3, [r4, #32]	@ zero_extendqisi2
 587 0012 022B     		cmp	r3, #2
 588 0014 02D0     		beq	.L51
 589              		.loc 1 246 0 is_stmt 0 discriminator 1
 590 0016 0748     		ldr	r0, .L55
 591 0018 FFF7FEFF 		bl	chDbgPanic
 592              	.LVL50:
 593              	.L51:
 594              		.loc 1 249 0 is_stmt 1
 595 001c 2046     		mov	r0, r4
 596 001e 0021     		movs	r1, #0
 597 0020 FFF7FEFF 		bl	chSchWakeupS
 598              	.LVL51:
 599              		.loc 1 250 0
 600 0024 FFF7FEFF 		bl	dbg_check_unlock
 601              	.LVL52:
 602              	.LBB36:
 603 0028 0023     		movs	r3, #0
 604              	.LVL53:
 605              	@ 250 "/home/gokul/ChibiOS_2.5.0/os/kernel/src/chthreads.c" 1
 606 002a 83F31188 		msr     BASEPRI, r3
 607              	@ 0 "" 2
 608              	.LVL54:
 609              		.thumb
 610              	.LBE36:
 611              		.loc 1 252 0
 612 002e 2046     		mov	r0, r4
 613 0030 10BD     		pop	{r4, pc}
 614              	.L56:
 615 0032 00BF     		.align	2
 616              	.L55:
 617 0034 2C000000 		.word	.LC2
 618              		.cfi_endproc
 619              	.LFE12:
ARM GAS  /tmp/cc6JDISj.s 			page 12


 620              		.size	chThdResume, .-chThdResume
 621 0038 AFF30080 		.section	.text.chThdTerminate,"ax",%progbits
 621      AFF30080 
 622              		.align	2
 623              		.p2align 4,,15
 624              		.global	chThdTerminate
 625              		.thumb
 626              		.thumb_func
 627              		.type	chThdTerminate, %function
 628              	chThdTerminate:
 629              	.LFB13:
 630              		.loc 1 266 0
 631              		.cfi_startproc
 632              		@ args = 0, pretend = 0, frame = 0
 633              		@ frame_needed = 0, uses_anonymous_args = 0
 634              	.LVL55:
 635 0000 10B5     		push	{r4, lr}
 636              	.LCFI6:
 637              		.cfi_def_cfa_offset 8
 638              		.cfi_offset 4, -8
 639              		.cfi_offset 14, -4
 640              	.LBB37:
 641              		.loc 1 268 0
 642 0002 2023     		movs	r3, #32
 643              	.LVL56:
 644              	.LBE37:
 645              		.loc 1 266 0
 646 0004 0446     		mov	r4, r0
 647              	.LBB38:
 648              		.loc 1 268 0
 649              	@ 268 "/home/gokul/ChibiOS_2.5.0/os/kernel/src/chthreads.c" 1
 650 0006 83F31188 		msr     BASEPRI, r3
 651              	@ 0 "" 2
 652              	.LVL57:
 653              		.thumb
 654              	.LBE38:
 655 000a FFF7FEFF 		bl	dbg_check_lock
 656              	.LVL58:
 657              		.loc 1 269 0
 658 000e 94F82130 		ldrb	r3, [r4, #33]	@ zero_extendqisi2
 659 0012 43F00400 		orr	r0, r3, #4
 660 0016 84F82100 		strb	r0, [r4, #33]
 661              		.loc 1 270 0
 662 001a FFF7FEFF 		bl	dbg_check_unlock
 663              	.LVL59:
 664              	.LBB39:
 665 001e 0023     		movs	r3, #0
 666              	.LVL60:
 667              	@ 270 "/home/gokul/ChibiOS_2.5.0/os/kernel/src/chthreads.c" 1
 668 0020 83F31188 		msr     BASEPRI, r3
 669              	@ 0 "" 2
 670              	.LVL61:
 671              		.thumb
 672 0024 10BD     		pop	{r4, pc}
 673              	.LBE39:
 674              		.cfi_endproc
 675              	.LFE13:
ARM GAS  /tmp/cc6JDISj.s 			page 13


 676              		.size	chThdTerminate, .-chThdTerminate
 677 0026 00BFAFF3 		.section	.text.chThdSleep,"ax",%progbits
 677      0080AFF3 
 677      0080
 678              		.align	2
 679              		.p2align 4,,15
 680              		.global	chThdSleep
 681              		.thumb
 682              		.thumb_func
 683              		.type	chThdSleep, %function
 684              	chThdSleep:
 685              	.LFB14:
 686              		.loc 1 285 0
 687              		.cfi_startproc
 688              		@ args = 0, pretend = 0, frame = 0
 689              		@ frame_needed = 0, uses_anonymous_args = 0
 690              	.LVL62:
 691 0000 10B5     		push	{r4, lr}
 692              	.LCFI7:
 693              		.cfi_def_cfa_offset 8
 694              		.cfi_offset 4, -8
 695              		.cfi_offset 14, -4
 696              		.loc 1 287 0
 697 0002 0446     		mov	r4, r0
 698 0004 10B9     		cbnz	r0, .L59
 699              		.loc 1 287 0 is_stmt 0 discriminator 1
 700 0006 0948     		ldr	r0, .L60
 701              	.LVL63:
 702 0008 FFF7FEFF 		bl	chDbgPanic
 703              	.LVL64:
 704              	.L59:
 705              	.LBB40:
 706              		.loc 1 289 0 is_stmt 1
 707 000c 2023     		movs	r3, #32
 708              	.LVL65:
 709              	@ 289 "/home/gokul/ChibiOS_2.5.0/os/kernel/src/chthreads.c" 1
 710 000e 83F31188 		msr     BASEPRI, r3
 711              	@ 0 "" 2
 712              	.LVL66:
 713              		.thumb
 714              	.LBE40:
 715 0012 FFF7FEFF 		bl	dbg_check_lock
 716              	.LVL67:
 717              		.loc 1 290 0
 718 0016 2146     		mov	r1, r4
 719 0018 0620     		movs	r0, #6
 720 001a FFF7FEFF 		bl	chSchGoSleepTimeoutS
 721              	.LVL68:
 722              		.loc 1 291 0
 723 001e FFF7FEFF 		bl	dbg_check_unlock
 724              	.LVL69:
 725              	.LBB41:
 726 0022 0023     		movs	r3, #0
 727              	.LVL70:
 728              	@ 291 "/home/gokul/ChibiOS_2.5.0/os/kernel/src/chthreads.c" 1
 729 0024 83F31188 		msr     BASEPRI, r3
 730              	@ 0 "" 2
ARM GAS  /tmp/cc6JDISj.s 			page 14


 731              	.LVL71:
 732              		.thumb
 733 0028 10BD     		pop	{r4, pc}
 734              	.L61:
 735 002a 00BF     		.align	2
 736              	.L60:
 737 002c 40000000 		.word	.LC3
 738              	.LBE41:
 739              		.cfi_endproc
 740              	.LFE14:
 741              		.size	chThdSleep, .-chThdSleep
 742              		.section	.text.chThdSleepUntil,"ax",%progbits
 743              		.align	2
 744              		.p2align 4,,15
 745              		.global	chThdSleepUntil
 746              		.thumb
 747              		.thumb_func
 748              		.type	chThdSleepUntil, %function
 749              	chThdSleepUntil:
 750              	.LFB15:
 751              		.loc 1 302 0
 752              		.cfi_startproc
 753              		@ args = 0, pretend = 0, frame = 0
 754              		@ frame_needed = 0, uses_anonymous_args = 0
 755              	.LVL72:
 756 0000 10B5     		push	{r4, lr}
 757              	.LCFI8:
 758              		.cfi_def_cfa_offset 8
 759              		.cfi_offset 4, -8
 760              		.cfi_offset 14, -4
 761              	.LBB42:
 762              		.loc 1 304 0
 763 0002 2023     		movs	r3, #32
 764              	.LVL73:
 765              	.LBE42:
 766              		.loc 1 302 0
 767 0004 0446     		mov	r4, r0
 768              	.LBB43:
 769              		.loc 1 304 0
 770              	@ 304 "/home/gokul/ChibiOS_2.5.0/os/kernel/src/chthreads.c" 1
 771 0006 83F31188 		msr     BASEPRI, r3
 772              	@ 0 "" 2
 773              	.LVL74:
 774              		.thumb
 775              	.LBE43:
 776 000a FFF7FEFF 		bl	dbg_check_lock
 777              	.LVL75:
 778              		.loc 1 305 0
 779 000e 064B     		ldr	r3, .L67
 780 0010 D968     		ldr	r1, [r3, #12]
 781              	.LVL76:
 782 0012 611A     		subs	r1, r4, r1
 783              	.LVL77:
 784 0014 02D0     		beq	.L63
 785              		.loc 1 306 0
 786 0016 0620     		movs	r0, #6
 787 0018 FFF7FEFF 		bl	chSchGoSleepTimeoutS
ARM GAS  /tmp/cc6JDISj.s 			page 15


 788              	.LVL78:
 789              	.L63:
 790              		.loc 1 307 0
 791 001c FFF7FEFF 		bl	dbg_check_unlock
 792              	.LVL79:
 793              	.LBB44:
 794 0020 0023     		movs	r3, #0
 795              	.LVL80:
 796              	@ 307 "/home/gokul/ChibiOS_2.5.0/os/kernel/src/chthreads.c" 1
 797 0022 83F31188 		msr     BASEPRI, r3
 798              	@ 0 "" 2
 799              	.LVL81:
 800              		.thumb
 801 0026 10BD     		pop	{r4, pc}
 802              	.L68:
 803              		.align	2
 804              	.L67:
 805 0028 00000000 		.word	vtlist
 806              	.LBE44:
 807              		.cfi_endproc
 808              	.LFE15:
 809              		.size	chThdSleepUntil, .-chThdSleepUntil
 810 002c AFF30080 		.section	.text.chThdYield,"ax",%progbits
 811              		.align	2
 812              		.p2align 4,,15
 813              		.global	chThdYield
 814              		.thumb
 815              		.thumb_func
 816              		.type	chThdYield, %function
 817              	chThdYield:
 818              	.LFB16:
 819              		.loc 1 317 0
 820              		.cfi_startproc
 821              		@ args = 0, pretend = 0, frame = 0
 822              		@ frame_needed = 0, uses_anonymous_args = 0
 823 0000 08B5     		push	{r3, lr}
 824              	.LCFI9:
 825              		.cfi_def_cfa_offset 8
 826              		.cfi_offset 3, -8
 827              		.cfi_offset 14, -4
 828              	.LBB45:
 829              		.loc 1 319 0
 830 0002 2023     		movs	r3, #32
 831              	.LVL82:
 832              	@ 319 "/home/gokul/ChibiOS_2.5.0/os/kernel/src/chthreads.c" 1
 833 0004 83F31188 		msr     BASEPRI, r3
 834              	@ 0 "" 2
 835              	.LVL83:
 836              		.thumb
 837              	.LBE45:
 838 0008 FFF7FEFF 		bl	dbg_check_lock
 839              	.LVL84:
 840              		.loc 1 320 0
 841 000c 074B     		ldr	r3, .L71
 842 000e 1A68     		ldr	r2, [r3, #0]
 843 0010 9869     		ldr	r0, [r3, #24]
 844 0012 9168     		ldr	r1, [r2, #8]
ARM GAS  /tmp/cc6JDISj.s 			page 16


 845 0014 8368     		ldr	r3, [r0, #8]
 846 0016 9942     		cmp	r1, r3
 847 0018 01D3     		bcc	.L70
 848              		.loc 1 320 0 is_stmt 0 discriminator 1
 849 001a FFF7FEFF 		bl	chSchDoRescheduleBehind
 850              	.LVL85:
 851              	.L70:
 852              		.loc 1 321 0 is_stmt 1
 853 001e FFF7FEFF 		bl	dbg_check_unlock
 854              	.LVL86:
 855              	.LBB46:
 856 0022 0023     		movs	r3, #0
 857              	.LVL87:
 858              	@ 321 "/home/gokul/ChibiOS_2.5.0/os/kernel/src/chthreads.c" 1
 859 0024 83F31188 		msr     BASEPRI, r3
 860              	@ 0 "" 2
 861              	.LVL88:
 862              		.thumb
 863 0028 08BD     		pop	{r3, pc}
 864              	.L72:
 865 002a 00BF     		.align	2
 866              	.L71:
 867 002c 00000000 		.word	rlist
 868              	.LBE46:
 869              		.cfi_endproc
 870              	.LFE16:
 871              		.size	chThdYield, .-chThdYield
 872              		.section	.text.chThdExitS,"ax",%progbits
 873              		.align	2
 874              		.p2align 4,,15
 875              		.global	chThdExitS
 876              		.thumb
 877              		.thumb_func
 878              		.type	chThdExitS, %function
 879              	chThdExitS:
 880              	.LFB18:
 881              		.loc 1 359 0
 882              		.cfi_startproc
 883              		@ args = 0, pretend = 0, frame = 0
 884              		@ frame_needed = 0, uses_anonymous_args = 0
 885              	.LVL89:
 886 0000 38B5     		push	{r3, r4, r5, lr}
 887              	.LCFI10:
 888              		.cfi_def_cfa_offset 16
 889              		.cfi_offset 3, -16
 890              		.cfi_offset 4, -12
 891              		.cfi_offset 5, -8
 892              		.cfi_offset 14, -4
 893              		.loc 1 360 0
 894 0002 104B     		ldr	r3, .L81
 895 0004 9C69     		ldr	r4, [r3, #24]
 896              	.LVL90:
 897              		.loc 1 367 0
 898 0006 2546     		mov	r5, r4
 899              		.loc 1 362 0
 900 0008 A062     		str	r0, [r4, #40]
 901              		.loc 1 367 0
ARM GAS  /tmp/cc6JDISj.s 			page 17


 902 000a 55F82C0F 		ldr	r0, [r5, #44]!
 903              	.LVL91:
 904 000e A842     		cmp	r0, r5
 905 0010 06D0     		beq	.L78
 906              	.LVL92:
 907              	.L79:
 908              	.LBB47:
 909              	.LBB48:
 910              		.file 2 "/home/gokul/ChibiOS_2.5.0/os/kernel/include/chinline.h"
 911              		.loc 2 82 0
 912 0012 0168     		ldr	r1, [r0, #0]
 913 0014 E162     		str	r1, [r4, #44]
 914              	.LBE48:
 915              	.LBE47:
 916              		.loc 1 368 0
 917 0016 FFF7FEFF 		bl	chSchReadyI
 918              	.LVL93:
 919              		.loc 1 367 0
 920 001a E06A     		ldr	r0, [r4, #44]
 921 001c A842     		cmp	r0, r5
 922 001e F8D1     		bne	.L79
 923              	.LVL94:
 924              	.L78:
 925              		.loc 1 373 0
 926 0020 94F82100 		ldrb	r0, [r4, #33]	@ zero_extendqisi2
 927 0024 8307     		lsls	r3, r0, #30
 928 0026 04D1     		bne	.L76
 929              		.loc 1 374 0
 930 0028 6369     		ldr	r3, [r4, #20]
 931 002a 2269     		ldr	r2, [r4, #16]
 932 002c 1A61     		str	r2, [r3, #16]
 933 002e 2169     		ldr	r1, [r4, #16]
 934 0030 4B61     		str	r3, [r1, #20]
 935              	.L76:
 936              		.loc 1 376 0
 937 0032 0E20     		movs	r0, #14
 938 0034 FFF7FEFF 		bl	chSchGoSleepS
 939              	.LVL95:
 940              		.loc 1 378 0
 941 0038 0348     		ldr	r0, .L81+4
 942              		.loc 1 379 0
 943 003a BDE83840 		pop	{r3, r4, r5, lr}
 944              		.loc 1 378 0
 945 003e FFF7FEBF 		b	chDbgPanic
 946              	.LVL96:
 947              	.L82:
 948 0042 00BF     		.align	2
 949              	.L81:
 950 0044 00000000 		.word	rlist
 951 0048 50000000 		.word	.LC4
 952              		.cfi_endproc
 953              	.LFE18:
 954              		.size	chThdExitS, .-chThdExitS
 955 004c AFF30080 		.section	.text.chThdExit,"ax",%progbits
 956              		.align	2
 957              		.p2align 4,,15
 958              		.global	chThdExit
ARM GAS  /tmp/cc6JDISj.s 			page 18


 959              		.thumb
 960              		.thumb_func
 961              		.type	chThdExit, %function
 962              	chThdExit:
 963              	.LFB17:
 964              		.loc 1 338 0
 965              		.cfi_startproc
 966              		@ args = 0, pretend = 0, frame = 0
 967              		@ frame_needed = 0, uses_anonymous_args = 0
 968              	.LVL97:
 969 0000 10B5     		push	{r4, lr}
 970              	.LCFI11:
 971              		.cfi_def_cfa_offset 8
 972              		.cfi_offset 4, -8
 973              		.cfi_offset 14, -4
 974              	.LBB49:
 975              		.loc 1 340 0
 976 0002 2023     		movs	r3, #32
 977              	.LVL98:
 978              	.LBE49:
 979              		.loc 1 338 0
 980 0004 0446     		mov	r4, r0
 981              	.LBB50:
 982              		.loc 1 340 0
 983              	@ 340 "/home/gokul/ChibiOS_2.5.0/os/kernel/src/chthreads.c" 1
 984 0006 83F31188 		msr     BASEPRI, r3
 985              	@ 0 "" 2
 986              	.LVL99:
 987              		.thumb
 988              	.LBE50:
 989 000a FFF7FEFF 		bl	dbg_check_lock
 990              	.LVL100:
 991              		.loc 1 341 0
 992 000e 2046     		mov	r0, r4
 993              		.loc 1 343 0
 994 0010 BDE81040 		pop	{r4, lr}
 995              		.loc 1 341 0
 996 0014 FFF7FEBF 		b	chThdExitS
 997              	.LVL101:
 998              		.cfi_endproc
 999              	.LFE17:
 1000              		.size	chThdExit, .-chThdExit
 1001 0018 AFF30080 		.section	.text.chThdWait,"ax",%progbits
 1001      AFF30080 
 1002              		.align	2
 1003              		.p2align 4,,15
 1004              		.global	chThdWait
 1005              		.thumb
 1006              		.thumb_func
 1007              		.type	chThdWait, %function
 1008              	chThdWait:
 1009              	.LFB19:
 1010              		.loc 1 413 0
 1011              		.cfi_startproc
 1012              		@ args = 0, pretend = 0, frame = 0
 1013              		@ frame_needed = 0, uses_anonymous_args = 0
 1014              	.LVL102:
ARM GAS  /tmp/cc6JDISj.s 			page 19


 1015 0000 38B5     		push	{r3, r4, r5, lr}
 1016              	.LCFI12:
 1017              		.cfi_def_cfa_offset 16
 1018              		.cfi_offset 3, -16
 1019              		.cfi_offset 4, -12
 1020              		.cfi_offset 5, -8
 1021              		.cfi_offset 14, -4
 1022              		.loc 1 416 0
 1023 0002 0446     		mov	r4, r0
 1024 0004 48B3     		cbz	r0, .L92
 1025              	.LVL103:
 1026              	.L85:
 1027              	.LBB51:
 1028              		.loc 1 418 0
 1029 0006 2023     		movs	r3, #32
 1030              	.LVL104:
 1031              	@ 418 "/home/gokul/ChibiOS_2.5.0/os/kernel/src/chthreads.c" 1
 1032 0008 83F31188 		msr     BASEPRI, r3
 1033              	@ 0 "" 2
 1034              	.LVL105:
 1035              		.thumb
 1036              	.LBE51:
 1037              		.loc 1 419 0
 1038 000c 154D     		ldr	r5, .L95
 1039              		.loc 1 418 0
 1040 000e FFF7FEFF 		bl	dbg_check_lock
 1041              	.LVL106:
 1042              		.loc 1 419 0
 1043 0012 AB69     		ldr	r3, [r5, #24]
 1044 0014 A342     		cmp	r3, r4
 1045 0016 1CD0     		beq	.L93
 1046              	.L86:
 1047              		.loc 1 421 0
 1048 0018 94F82200 		ldrb	r0, [r4, #34]	@ zero_extendqisi2
 1049 001c A8B1     		cbz	r0, .L94
 1050              	.L87:
 1051              		.loc 1 423 0
 1052 001e 94F82010 		ldrb	r1, [r4, #32]	@ zero_extendqisi2
 1053 0022 0E29     		cmp	r1, #14
 1054 0024 06D0     		beq	.L88
 1055              		.loc 1 424 0
 1056 0026 AD69     		ldr	r5, [r5, #24]
 1057              	.LVL107:
 1058              	.LBB52:
 1059              	.LBB53:
 1060              		.loc 2 75 0
 1061 0028 E26A     		ldr	r2, [r4, #44]
 1062              	.LBE53:
 1063              	.LBE52:
 1064              		.loc 1 425 0
 1065 002a 0720     		movs	r0, #7
 1066              	.LBB55:
 1067              	.LBB54:
 1068              		.loc 2 75 0
 1069 002c 2A60     		str	r2, [r5, #0]
 1070              		.loc 2 76 0
 1071 002e E562     		str	r5, [r4, #44]
ARM GAS  /tmp/cc6JDISj.s 			page 20


 1072              	.LBE54:
 1073              	.LBE55:
 1074              		.loc 1 425 0
 1075 0030 FFF7FEFF 		bl	chSchGoSleepS
 1076              	.LVL108:
 1077              	.L88:
 1078              		.loc 1 427 0
 1079 0034 A56A     		ldr	r5, [r4, #40]
 1080              	.LVL109:
 1081              		.loc 1 428 0
 1082 0036 FFF7FEFF 		bl	dbg_check_unlock
 1083              	.LVL110:
 1084              	.LBB56:
 1085 003a 0023     		movs	r3, #0
 1086              	.LVL111:
 1087              	@ 428 "/home/gokul/ChibiOS_2.5.0/os/kernel/src/chthreads.c" 1
 1088 003c 83F31188 		msr     BASEPRI, r3
 1089              	@ 0 "" 2
 1090              	.LVL112:
 1091              		.thumb
 1092              	.LBE56:
 1093              		.loc 1 430 0
 1094 0040 2046     		mov	r0, r4
 1095 0042 FFF7FEFF 		bl	chThdRelease
 1096              	.LVL113:
 1097              		.loc 1 433 0
 1098 0046 2846     		mov	r0, r5
 1099 0048 38BD     		pop	{r3, r4, r5, pc}
 1100              	.LVL114:
 1101              	.L94:
 1102              		.loc 1 421 0 discriminator 1
 1103 004a 0748     		ldr	r0, .L95+4
 1104 004c FFF7FEFF 		bl	chDbgPanic
 1105              	.LVL115:
 1106 0050 E5E7     		b	.L87
 1107              	.L93:
 1108              		.loc 1 419 0 discriminator 1
 1109 0052 0648     		ldr	r0, .L95+8
 1110 0054 FFF7FEFF 		bl	chDbgPanic
 1111              	.LVL116:
 1112 0058 DEE7     		b	.L86
 1113              	.LVL117:
 1114              	.L92:
 1115              		.loc 1 416 0 discriminator 1
 1116 005a 0548     		ldr	r0, .L95+12
 1117              	.LVL118:
 1118 005c FFF7FEFF 		bl	chDbgPanic
 1119              	.LVL119:
 1120 0060 D1E7     		b	.L85
 1121              	.L96:
 1122 0062 00BF     		.align	2
 1123              	.L95:
 1124 0064 00000000 		.word	rlist
 1125 0068 84000000 		.word	.LC7
 1126 006c 74000000 		.word	.LC6
 1127 0070 64000000 		.word	.LC5
 1128              		.cfi_endproc
ARM GAS  /tmp/cc6JDISj.s 			page 21


 1129              	.LFE19:
 1130              		.size	chThdWait, .-chThdWait
 1131 0074 AFF30080 		.section	.rodata.str1.4,"aMS",%progbits,1
 1131      AFF30080 
 1131      AFF30080 
 1132              		.align	2
 1133              	.LC0:
 1134 0000 22636854 		.ascii	"\"chThdCreateI\"()\000"
 1134      68644372 
 1134      65617465 
 1134      49222829 
 1134      00
 1135 0011 000000   		.space	3
 1136              	.LC1:
 1137 0014 22636854 		.ascii	"\"chThdSetPriority\"()\000"
 1137      68645365 
 1137      74507269 
 1137      6F726974 
 1137      79222829 
 1138 0029 000000   		.space	3
 1139              	.LC2:
 1140 002c 63685468 		.ascii	"chThdResume(), #1\000"
 1140      64526573 
 1140      756D6528 
 1140      292C2023 
 1140      3100
 1141 003e 0000     		.space	2
 1142              	.LC3:
 1143 0040 22636854 		.ascii	"\"chThdSleep\"()\000"
 1143      6864536C 
 1143      65657022 
 1143      282900
 1144 004f 00       		.space	1
 1145              	.LC4:
 1146 0050 63685468 		.ascii	"chThdExitS(), #1\000"
 1146      64457869 
 1146      74532829 
 1146      2C202331 
 1146      00
 1147 0061 000000   		.space	3
 1148              	.LC5:
 1149 0064 22636854 		.ascii	"\"chThdWait\"()\000"
 1149      68645761 
 1149      69742228 
 1149      2900
 1150 0072 0000     		.space	2
 1151              	.LC6:
 1152 0074 63685468 		.ascii	"chThdWait(), #1\000"
 1152      64576169 
 1152      7428292C 
 1152      20233100 
 1153              	.LC7:
 1154 0084 63685468 		.ascii	"chThdWait(), #2\000"
 1154      64576169 
 1154      7428292C 
 1154      20233200 
 1155              		.text
ARM GAS  /tmp/cc6JDISj.s 			page 22


 1156              	.Letext0:
 1157              		.file 3 "/opt/gcc-arm-none-eabi-4_7-2013q1/bin/../lib/gcc/arm-none-eabi/4.7.3/include/stddef.h"
 1158              		.file 4 "/opt/gcc-arm-none-eabi-4_7-2013q1/bin/../lib/gcc/arm-none-eabi/4.7.3/../../../../arm-none
 1159              		.file 5 "/home/gokul/ChibiOS_2.5.0/os/ports/GCC/ARMCMx/chtypes.h"
 1160              		.file 6 "/home/gokul/ChibiOS_2.5.0/os/kernel/include/chlists.h"
 1161              		.file 7 "/home/gokul/ChibiOS_2.5.0/os/kernel/include/chthreads.h"
 1162              		.file 8 "/home/gokul/ChibiOS_2.5.0/os/ports/GCC/ARMCMx/chcore_v7m.h"
 1163              		.file 9 "/home/gokul/ChibiOS_2.5.0/os/kernel/include/chvt.h"
 1164              		.file 10 "/home/gokul/ChibiOS_2.5.0/os/kernel/include/chschd.h"
 1165              		.file 11 "/home/gokul/ChibiOS_2.5.0/os/kernel/include/chmtx.h"
 1166              		.file 12 "/home/gokul/ChibiOS_2.5.0/os/kernel/include/chdebug.h"
 1167              		.file 13 "/home/gokul/ChibiOS_2.5.0/os/kernel/include/chdynamic.h"