ARM GAS  /tmp/cc4bFCY5.s 			page 1


   1              		.syntax unified
   2              		.cpu cortex-m4
   3              		.fpu softvfp
   4              		.eabi_attribute 20, 1
   5              		.eabi_attribute 21, 1
   6              		.eabi_attribute 23, 3
   7              		.eabi_attribute 24, 1
   8              		.eabi_attribute 25, 1
   9              		.eabi_attribute 26, 1
  10              		.eabi_attribute 30, 2
  11              		.eabi_attribute 34, 1
  12              		.eabi_attribute 18, 4
  13              		.thumb
  14              		.file	"icu.c"
  15              		.text
  16              	.Ltext0:
  17              		.cfi_sections	.debug_frame
  18              		.section	.text.icuInit,"ax",%progbits
  19              		.align	2
  20              		.p2align 4,,15
  21              		.global	icuInit
  22              		.thumb
  23              		.thumb_func
  24              		.type	icuInit, %function
  25              	icuInit:
  26              	.LFB118:
  27              		.file 1 "/home/gokul/ChibiOS_2.5.0/os/hal/src/icu.c"
  28              		.loc 1 61 0
  29              		.cfi_startproc
  30              		@ args = 0, pretend = 0, frame = 0
  31              		@ frame_needed = 0, uses_anonymous_args = 0
  32              		@ link register save eliminated.
  33              		.loc 1 64 0
  34              		.loc 1 63 0
  35 0000 FFF7FEBF 		b	icu_lld_init
  36              	.LVL0:
  37              		.cfi_endproc
  38              	.LFE118:
  39              		.size	icuInit, .-icuInit
  40 0004 AFF30080 		.section	.text.icuObjectInit,"ax",%progbits
  40      AFF30080 
  40      AFF30080 
  41              		.align	2
  42              		.p2align 4,,15
  43              		.global	icuObjectInit
  44              		.thumb
  45              		.thumb_func
  46              		.type	icuObjectInit, %function
  47              	icuObjectInit:
  48              	.LFB119:
  49              		.loc 1 73 0
  50              		.cfi_startproc
  51              		@ args = 0, pretend = 0, frame = 0
  52              		@ frame_needed = 0, uses_anonymous_args = 0
  53              		@ link register save eliminated.
  54              	.LVL1:
  55              		.loc 1 75 0
ARM GAS  /tmp/cc4bFCY5.s 			page 2


  56 0000 0123     		movs	r3, #1
  57              		.loc 1 76 0
  58 0002 0021     		movs	r1, #0
  59              		.loc 1 75 0
  60 0004 0370     		strb	r3, [r0, #0]
  61              		.loc 1 76 0
  62 0006 4160     		str	r1, [r0, #4]
  63 0008 7047     		bx	lr
  64              		.cfi_endproc
  65              	.LFE119:
  66              		.size	icuObjectInit, .-icuObjectInit
  67 000a 00BFAFF3 		.section	.text.icuStart,"ax",%progbits
  67      0080
  68              		.align	2
  69              		.p2align 4,,15
  70              		.global	icuStart
  71              		.thumb
  72              		.thumb_func
  73              		.type	icuStart, %function
  74              	icuStart:
  75              	.LFB120:
  76              		.loc 1 87 0
  77              		.cfi_startproc
  78              		@ args = 0, pretend = 0, frame = 0
  79              		@ frame_needed = 0, uses_anonymous_args = 0
  80              	.LVL2:
  81 0000 38B5     		push	{r3, r4, r5, lr}
  82              	.LCFI0:
  83              		.cfi_def_cfa_offset 16
  84              		.cfi_offset 3, -16
  85              		.cfi_offset 4, -12
  86              		.cfi_offset 5, -8
  87              		.cfi_offset 14, -4
  88              		.loc 1 89 0
  89 0002 0446     		mov	r4, r0
  90              		.loc 1 87 0
  91 0004 0D46     		mov	r5, r1
  92              		.loc 1 89 0
  93 0006 C0B1     		cbz	r0, .L4
  94              		.loc 1 89 0 is_stmt 0 discriminator 2
  95 0008 B9B1     		cbz	r1, .L4
  96              	.LVL3:
  97              	.L5:
  98              	.LBB2:
  99              		.loc 1 91 0 is_stmt 1
 100 000a 2023     		movs	r3, #32
 101              	.LVL4:
 102              	@ 91 "/home/gokul/ChibiOS_2.5.0/os/hal/src/icu.c" 1
 103 000c 83F31188 		msr     BASEPRI, r3
 104              	@ 0 "" 2
 105              	.LVL5:
 106              		.thumb
 107              	.LBE2:
 108 0010 FFF7FEFF 		bl	dbg_check_lock
 109              	.LVL6:
 110              		.loc 1 92 0
 111 0014 2378     		ldrb	r3, [r4, #0]	@ zero_extendqisi2
ARM GAS  /tmp/cc4bFCY5.s 			page 3


 112 0016 581E     		subs	r0, r3, #1
 113 0018 0128     		cmp	r0, #1
 114 001a 02D9     		bls	.L6
 115              		.loc 1 92 0 is_stmt 0 discriminator 1
 116 001c 0948     		ldr	r0, .L11
 117 001e FFF7FEFF 		bl	chDbgPanic
 118              	.LVL7:
 119              	.L6:
 120              		.loc 1 95 0 is_stmt 1
 121 0022 2046     		mov	r0, r4
 122              		.loc 1 94 0
 123 0024 6560     		str	r5, [r4, #4]
 124              		.loc 1 95 0
 125 0026 FFF7FEFF 		bl	icu_lld_start
 126              	.LVL8:
 127              		.loc 1 96 0
 128 002a 0221     		movs	r1, #2
 129 002c 2170     		strb	r1, [r4, #0]
 130              		.loc 1 97 0
 131 002e FFF7FEFF 		bl	dbg_check_unlock
 132              	.LVL9:
 133              	.LBB3:
 134 0032 0023     		movs	r3, #0
 135              	.LVL10:
 136              	@ 97 "/home/gokul/ChibiOS_2.5.0/os/hal/src/icu.c" 1
 137 0034 83F31188 		msr     BASEPRI, r3
 138              	@ 0 "" 2
 139              	.LVL11:
 140              		.thumb
 141 0038 38BD     		pop	{r3, r4, r5, pc}
 142              	.LVL12:
 143              	.L4:
 144              	.LBE3:
 145              		.loc 1 89 0 discriminator 1
 146 003a 0348     		ldr	r0, .L11+4
 147              	.LVL13:
 148 003c FFF7FEFF 		bl	chDbgPanic
 149              	.LVL14:
 150 0040 E3E7     		b	.L5
 151              	.L12:
 152 0042 00BF     		.align	2
 153              	.L11:
 154 0044 10000000 		.word	.LC1
 155 0048 00000000 		.word	.LC0
 156              		.cfi_endproc
 157              	.LFE120:
 158              		.size	icuStart, .-icuStart
 159 004c AFF30080 		.section	.text.icuStop,"ax",%progbits
 160              		.align	2
 161              		.p2align 4,,15
 162              		.global	icuStop
 163              		.thumb
 164              		.thumb_func
 165              		.type	icuStop, %function
 166              	icuStop:
 167              	.LFB121:
 168              		.loc 1 107 0
ARM GAS  /tmp/cc4bFCY5.s 			page 4


 169              		.cfi_startproc
 170              		@ args = 0, pretend = 0, frame = 0
 171              		@ frame_needed = 0, uses_anonymous_args = 0
 172              	.LVL15:
 173 0000 10B5     		push	{r4, lr}
 174              	.LCFI1:
 175              		.cfi_def_cfa_offset 8
 176              		.cfi_offset 4, -8
 177              		.cfi_offset 14, -4
 178              		.loc 1 109 0
 179 0002 0446     		mov	r4, r0
 180 0004 B0B1     		cbz	r0, .L16
 181              	.LVL16:
 182              	.L14:
 183              	.LBB4:
 184              		.loc 1 111 0
 185 0006 2023     		movs	r3, #32
 186              	.LVL17:
 187              	@ 111 "/home/gokul/ChibiOS_2.5.0/os/hal/src/icu.c" 1
 188 0008 83F31188 		msr     BASEPRI, r3
 189              	@ 0 "" 2
 190              	.LVL18:
 191              		.thumb
 192              	.LBE4:
 193 000c FFF7FEFF 		bl	dbg_check_lock
 194              	.LVL19:
 195              		.loc 1 112 0
 196 0010 2378     		ldrb	r3, [r4, #0]	@ zero_extendqisi2
 197 0012 581E     		subs	r0, r3, #1
 198 0014 0128     		cmp	r0, #1
 199 0016 02D9     		bls	.L15
 200              		.loc 1 112 0 is_stmt 0 discriminator 1
 201 0018 0848     		ldr	r0, .L17
 202 001a FFF7FEFF 		bl	chDbgPanic
 203              	.LVL20:
 204              	.L15:
 205              		.loc 1 114 0 is_stmt 1
 206 001e 2046     		mov	r0, r4
 207 0020 FFF7FEFF 		bl	icu_lld_stop
 208              	.LVL21:
 209              		.loc 1 115 0
 210 0024 0121     		movs	r1, #1
 211 0026 2170     		strb	r1, [r4, #0]
 212              		.loc 1 116 0
 213 0028 FFF7FEFF 		bl	dbg_check_unlock
 214              	.LVL22:
 215              	.LBB5:
 216 002c 0023     		movs	r3, #0
 217              	.LVL23:
 218              	@ 116 "/home/gokul/ChibiOS_2.5.0/os/hal/src/icu.c" 1
 219 002e 83F31188 		msr     BASEPRI, r3
 220              	@ 0 "" 2
 221              	.LVL24:
 222              		.thumb
 223 0032 10BD     		pop	{r4, pc}
 224              	.LVL25:
 225              	.L16:
ARM GAS  /tmp/cc4bFCY5.s 			page 5


 226              	.LBE5:
 227              		.loc 1 109 0 discriminator 1
 228 0034 0248     		ldr	r0, .L17+4
 229              	.LVL26:
 230 0036 FFF7FEFF 		bl	chDbgPanic
 231              	.LVL27:
 232 003a E4E7     		b	.L14
 233              	.L18:
 234              		.align	2
 235              	.L17:
 236 003c 2C000000 		.word	.LC3
 237 0040 20000000 		.word	.LC2
 238              		.cfi_endproc
 239              	.LFE121:
 240              		.size	icuStop, .-icuStop
 241 0044 AFF30080 		.section	.text.icuEnable,"ax",%progbits
 241      AFF30080 
 241      AFF30080 
 242              		.align	2
 243              		.p2align 4,,15
 244              		.global	icuEnable
 245              		.thumb
 246              		.thumb_func
 247              		.type	icuEnable, %function
 248              	icuEnable:
 249              	.LFB122:
 250              		.loc 1 126 0
 251              		.cfi_startproc
 252              		@ args = 0, pretend = 0, frame = 0
 253              		@ frame_needed = 0, uses_anonymous_args = 0
 254              	.LVL28:
 255 0000 10B5     		push	{r4, lr}
 256              	.LCFI2:
 257              		.cfi_def_cfa_offset 8
 258              		.cfi_offset 4, -8
 259              		.cfi_offset 14, -4
 260              		.loc 1 128 0
 261 0002 0446     		mov	r4, r0
 262 0004 A8B1     		cbz	r0, .L25
 263              	.LVL29:
 264              	.L20:
 265              	.LBB6:
 266              		.loc 1 130 0
 267 0006 2023     		movs	r3, #32
 268              	.LVL30:
 269              	@ 130 "/home/gokul/ChibiOS_2.5.0/os/hal/src/icu.c" 1
 270 0008 83F31188 		msr     BASEPRI, r3
 271              	@ 0 "" 2
 272              	.LVL31:
 273              		.thumb
 274              	.LBE6:
 275 000c FFF7FEFF 		bl	dbg_check_lock
 276              	.LVL32:
 277              		.loc 1 131 0
 278 0010 2378     		ldrb	r3, [r4, #0]	@ zero_extendqisi2
 279 0012 022B     		cmp	r3, #2
 280 0014 02D0     		beq	.L21
ARM GAS  /tmp/cc4bFCY5.s 			page 6


 281              		.loc 1 131 0 is_stmt 0 discriminator 1
 282 0016 0948     		ldr	r0, .L26
 283 0018 FFF7FEFF 		bl	chDbgPanic
 284              	.LVL33:
 285              	.L21:
 286              		.loc 1 132 0 is_stmt 1
 287 001c 2046     		mov	r0, r4
 288 001e FFF7FEFF 		bl	icu_lld_enable
 289              	.LVL34:
 290              		.loc 1 133 0
 291 0022 0320     		movs	r0, #3
 292 0024 2070     		strb	r0, [r4, #0]
 293              		.loc 1 134 0
 294 0026 FFF7FEFF 		bl	dbg_check_unlock
 295              	.LVL35:
 296              	.LBB7:
 297 002a 0023     		movs	r3, #0
 298              	.LVL36:
 299              	@ 134 "/home/gokul/ChibiOS_2.5.0/os/hal/src/icu.c" 1
 300 002c 83F31188 		msr     BASEPRI, r3
 301              	@ 0 "" 2
 302              	.LVL37:
 303              		.thumb
 304 0030 10BD     		pop	{r4, pc}
 305              	.LVL38:
 306              	.L25:
 307              	.LBE7:
 308              		.loc 1 128 0 discriminator 1
 309 0032 0348     		ldr	r0, .L26+4
 310              	.LVL39:
 311 0034 FFF7FEFF 		bl	chDbgPanic
 312              	.LVL40:
 313 0038 E5E7     		b	.L20
 314              	.L27:
 315 003a 00BF     		.align	2
 316              	.L26:
 317 003c 4C000000 		.word	.LC5
 318 0040 3C000000 		.word	.LC4
 319              		.cfi_endproc
 320              	.LFE122:
 321              		.size	icuEnable, .-icuEnable
 322 0044 AFF30080 		.section	.text.icuDisable,"ax",%progbits
 322      AFF30080 
 322      AFF30080 
 323              		.align	2
 324              		.p2align 4,,15
 325              		.global	icuDisable
 326              		.thumb
 327              		.thumb_func
 328              		.type	icuDisable, %function
 329              	icuDisable:
 330              	.LFB123:
 331              		.loc 1 144 0
 332              		.cfi_startproc
 333              		@ args = 0, pretend = 0, frame = 0
 334              		@ frame_needed = 0, uses_anonymous_args = 0
 335              	.LVL41:
ARM GAS  /tmp/cc4bFCY5.s 			page 7


 336 0000 10B5     		push	{r4, lr}
 337              	.LCFI3:
 338              		.cfi_def_cfa_offset 8
 339              		.cfi_offset 4, -8
 340              		.cfi_offset 14, -4
 341              		.loc 1 146 0
 342 0002 0446     		mov	r4, r0
 343 0004 B0B1     		cbz	r0, .L31
 344              	.LVL42:
 345              	.L29:
 346              	.LBB8:
 347              		.loc 1 148 0
 348 0006 2023     		movs	r3, #32
 349              	.LVL43:
 350              	@ 148 "/home/gokul/ChibiOS_2.5.0/os/hal/src/icu.c" 1
 351 0008 83F31188 		msr     BASEPRI, r3
 352              	@ 0 "" 2
 353              	.LVL44:
 354              		.thumb
 355              	.LBE8:
 356 000c FFF7FEFF 		bl	dbg_check_lock
 357              	.LVL45:
 358              		.loc 1 149 0
 359 0010 2378     		ldrb	r3, [r4, #0]	@ zero_extendqisi2
 360 0012 981E     		subs	r0, r3, #2
 361 0014 0328     		cmp	r0, #3
 362 0016 02D9     		bls	.L30
 363              		.loc 1 149 0 is_stmt 0 discriminator 1
 364 0018 0848     		ldr	r0, .L32
 365 001a FFF7FEFF 		bl	chDbgPanic
 366              	.LVL46:
 367              	.L30:
 368              		.loc 1 152 0 is_stmt 1
 369 001e 2046     		mov	r0, r4
 370 0020 FFF7FEFF 		bl	icu_lld_disable
 371              	.LVL47:
 372              		.loc 1 153 0
 373 0024 0221     		movs	r1, #2
 374 0026 2170     		strb	r1, [r4, #0]
 375              		.loc 1 154 0
 376 0028 FFF7FEFF 		bl	dbg_check_unlock
 377              	.LVL48:
 378              	.LBB9:
 379 002c 0023     		movs	r3, #0
 380              	.LVL49:
 381              	@ 154 "/home/gokul/ChibiOS_2.5.0/os/hal/src/icu.c" 1
 382 002e 83F31188 		msr     BASEPRI, r3
 383              	@ 0 "" 2
 384              	.LVL50:
 385              		.thumb
 386 0032 10BD     		pop	{r4, pc}
 387              	.LVL51:
 388              	.L31:
 389              	.LBE9:
 390              		.loc 1 146 0 discriminator 1
 391 0034 0248     		ldr	r0, .L32+4
 392              	.LVL52:
ARM GAS  /tmp/cc4bFCY5.s 			page 8


 393 0036 FFF7FEFF 		bl	chDbgPanic
 394              	.LVL53:
 395 003a E4E7     		b	.L29
 396              	.L33:
 397              		.align	2
 398              	.L32:
 399 003c 6C000000 		.word	.LC7
 400 0040 5C000000 		.word	.LC6
 401              		.cfi_endproc
 402              	.LFE123:
 403              		.size	icuDisable, .-icuDisable
 404 0044 AFF30080 		.section	.rodata.str1.4,"aMS",%progbits,1
 404      AFF30080 
 404      AFF30080 
 405              		.align	2
 406              	.LC0:
 407 0000 22696375 		.ascii	"\"icuStart\"()\000"
 407      53746172 
 407      74222829 
 407      00
 408 000d 000000   		.space	3
 409              	.LC1:
 410 0010 69637553 		.ascii	"icuStart(), #1\000"
 410      74617274 
 410      28292C20 
 410      233100
 411 001f 00       		.space	1
 412              	.LC2:
 413 0020 22696375 		.ascii	"\"icuStop\"()\000"
 413      53746F70 
 413      22282900 
 414              	.LC3:
 415 002c 69637553 		.ascii	"icuStop(), #1\000"
 415      746F7028 
 415      292C2023 
 415      3100
 416 003a 0000     		.space	2
 417              	.LC4:
 418 003c 22696375 		.ascii	"\"icuEnable\"()\000"
 418      456E6162 
 418      6C652228 
 418      2900
 419 004a 0000     		.space	2
 420              	.LC5:
 421 004c 69637545 		.ascii	"icuEnable(), #1\000"
 421      6E61626C 
 421      6528292C 
 421      20233100 
 422              	.LC6:
 423 005c 22696375 		.ascii	"\"icuDisable\"()\000"
 423      44697361 
 423      626C6522 
 423      282900
 424 006b 00       		.space	1
 425              	.LC7:
 426 006c 69637544 		.ascii	"icuDisable(), #1\000"
 426      69736162 
ARM GAS  /tmp/cc4bFCY5.s 			page 9


 426      6C652829 
 426      2C202331 
 426      00
 427 007d 000000   		.text
 428              	.Letext0:
 429              		.file 2 "/opt/gcc-arm-none-eabi-4_7-2013q1/bin/../lib/gcc/arm-none-eabi/4.7.3/../../../../arm-none
 430              		.file 3 "/home/gokul/ChibiOS_2.5.0/os/hal/platforms/STM32/stm32.h"
 431              		.file 4 "/home/gokul/ChibiOS_2.5.0/os/hal/include/icu.h"
 432              		.file 5 "/home/gokul/ChibiOS_2.5.0/os/hal/platforms/STM32/icu_lld.h"
 433              		.file 6 "/home/gokul/ChibiOS_2.5.0/os/kernel/include/chdebug.h"
 434              		.file 7 "/home/gokul/ChibiOS_2.5.0/os/ports/common/ARMCMx/CMSIS/include/core_cm4.h"