ARM GAS  /tmp/cc4bFCY5.s 			page 1


   1              		.syntax unified
   2              		.cpu cortex-m4
   3              		.fpu softvfp
   4              		.eabi_attribute 20, 1
   5              		.eabi_attribute 21, 1
   6              		.eabi_attribute 23, 3
   7              		.eabi_attribute 24, 1
   8              		.eabi_attribute 25, 1
   9              		.eabi_attribute 26, 1
  10              		.eabi_attribute 30, 2
  11              		.eabi_attribute 34, 1
  12              		.eabi_attribute 18, 4
  13              		.thumb
  14              		.file	"icu.c"
  15              		.text
  16              	.Ltext0:
  17              		.cfi_sections	.debug_frame
  18              		.section	.text.icuInit,"ax",%progbits
  19              		.align	2
  20              		.p2align 4,,15
  21              		.global	icuInit
  22              		.thumb
  23              		.thumb_func
  24              		.type	icuInit, %function
  25              	icuInit:
  26              	.LFB118:
  27              		.file 1 "/home/gokul/ChibiOS_2.5.0/os/hal/src/icu.c"
  28              		.loc 1 61 0
  29              		.cfi_startproc
  30              		@ args = 0, pretend = 0, frame = 0
  31              		@ frame_needed = 0, uses_anonymous_args = 0
  32              		@ link register save eliminated.
  33              		.loc 1 64 0
  34              		.loc 1 63 0
  35 0000 FFF7FEBF 		b	icu_lld_init
  36              	.LVL0:
  37              		.cfi_endproc
  38              	.LFE118:
  39              		.size	icuInit, .-icuInit
  40 0004 AFF30080 		.section	.text.icuObjectInit,"ax",%progbits
  40      AFF30080 
  40      AFF30080 
  41              		.align	2
  42              		.p2align 4,,15
  43              		.global	icuObjectInit
  44              		.thumb
  45              		.thumb_func
  46              		.type	icuObjectInit, %function
  47              	icuObjectInit:
  48              	.LFB119:
  49              		.loc 1 73 0
  50              		.cfi_startproc
  51              		@ args = 0, pretend = 0, frame = 0
  52              		@ frame_needed = 0, uses_anonymous_args = 0
  53              		@ link register save eliminated.
  54              	.LVL1:
  55              		.loc 1 75 0
ARM GAS  /tmp/cc4bFCY5.s 			page 2


  56 0000 0123     		movs	r3, #1
  57              		.loc 1 76 0
  58 0002 0021     		movs	r1, #0
  59              		.loc 1 75 0
  60 0004 0370     		strb	r3, [r0, #0]
  61              		.loc 1 76 0
  62 0006 4160     		str	r1, [r0, #4]
  63 0008 7047     		bx	lr
  64              		.cfi_endproc
  65              	.LFE119:
  66              		.size	icuObjectInit, .-icuObjectInit
  67 000a 00BFAFF3 		.section	.text.icuStart,"ax",%progbits
  67      0080
  68              		.align	2
  69              		.p2align 4,,15
  70              		.global	icuStart
  71              		.thumb
  72              		.thumb_func
  73              		.type	icuStart, %function
  74              	icuStart:
  75              	.LFB120:
  76              		.loc 1 87 0
  77              		.cfi_startproc
  78              		@ args = 0, pretend = 0, frame = 0
  79              		@ frame_needed = 0, uses_anonymous_args = 0
  80              	.LVL2:
  81 0000 38B5     		push	{r3, r4, r5, lr}
  82              	.LCFI0:
  83              		.cfi_def_cfa_offset 16
  84              		.cfi_offset 3, -16
  85              		.cfi_offset 4, -12
  86              		.cfi_offset 5, -8
  87              		.cfi_offset 14, -4
  88              		.loc 1 89 0
  89 0002 0446     		mov	r4, r0
  90              		.loc 1 87 0
  91 0004 0D46     		mov	r5, r1
  92              		.loc 1 89 0
  93 0006 C0B1     		cbz	r0, .L4
  94              		.loc 1 89 0 is_stmt 0 discriminator 2
  95 0008 B9B1     		cbz	r1, .L4
  96              	.LVL3:
  97              	.L5:
  98              	.LBB2:
  99              		.loc 1 91 0 is_stmt 1
 100 000a 2023     		movs	r3, #32
 101              	.LVL4:
 102              	@ 91 "/home/gokul/ChibiOS_2.5.0/os/hal/src/icu.c" 1
 103 000c 83F31188 		msr     BASEPRI, r3
 104              	@ 0 "" 2
 105              	.LVL5:
 106              		.thumb
 107              	.LBE2:
 108 0010 FFF7FEFF 		bl	dbg_check_lock
 109              	.LVL6:
 110              		.loc 1 92 0
 111 0014 2378     		ldrb	r3, [r4, #0]	@ zero_extendqisi2
ARM GAS  /tmp/cc4bFCY5.s 			page 3


 112 0016 581E     		subs	r0, r3, #1
 113 0018 0128     		cmp	r0, #1
 114 001a 02D9     		bls	.L6
 115              		.loc 1 92 0 is_stmt 0 discriminator 1
 116 001c 0948     		ldr	r0, .L11
 117 001e FFF7FEFF 		bl	chDbgPanic
 118              	.LVL7:
 119              	.L6:
 120              		.loc 1 95 0 is_stmt 1
 121 0022 2046     		mov	r0, r4
 122              		.loc 1 94 0
 123 0024 6560     		str	r5, [r4, #4]
 124              		.loc 1 95 0
 125 0026 FFF7FEFF 		bl	icu_lld_start
 126              	.LVL8:
 127              		.loc 1 96 0
 128 002a 0221     		movs	r1, #2
 129 002c 2170     		strb	r1, [r4, #0]
 130              		.loc 1 97 0
 131 002e FFF7FEFF 		bl	dbg_check_unlock
 132              	.LVL9:
 133              	.LBB3:
 134 0032 0023     		movs	r3, #0
 135              	.LVL10:
 136              	@ 97 "/home/gokul/ChibiOS_2.5.0/os/hal/src/icu.c" 1
 137 0034 83F31188 		msr     BASEPRI, r3
 138              	@ 0 "" 2
 139              	.LVL11:
 140              		.thumb
 141 0038 38BD     		pop	{r3, r4, r5, pc}
 142              	.LVL12:
 143              	.L4:
 144              	.LBE3:
 145              		.loc 1 89 0 discriminator 1
 146 003a 0348     		ldr	r0, .L11+4
 147              	.LVL13:
 148 003c FFF7FEFF 		bl	chDbgPanic
 149              	.LVL14:
 150 0040 E3E7     		b	.L5
 151              	.L12:
 152 0042 00BF     		.align	2
 153              	.L11:
 154 0044 10000000 		.word	.LC1
 155 0048 00000000 		.word	.LC0
 156              		.cfi_endproc
 157              	.LFE120:
 158              		.size	icuStart, .-icuStart
 159 004c AFF30080 		.section	.text.icuStop,"ax",%progbits
 160              		.align	2
 161              		.p2align 4,,15
 162              		.global	icuStop
 163              		.thumb
 164              		.thumb_func
 165              		.type	icuStop, %function
 166              	icuStop:
 167              	.LFB121:
 168              		.loc 1 107 0
ARM GAS  /tmp/cc4bFCY5.s 			page 4


 169              		.cfi_startproc
 170              		@ args = 0, pretend = 0, frame = 0
 171              		@ frame_needed = 0, uses_anonymous_args = 0
 172              	.LVL15:
 173 0000 10B5     		push	{r4, lr}
 174              	.LCFI1:
 175              		.cfi_def_cfa_offset 8
 176              		.cfi_offset 4, -8
 177              		.cfi_offset 14, -4
 178              		.loc 1 109 0
 179 0002 0446     		mov	r4, r0
 180 0004 B0B1     		cbz	r0, .L16
 181              	.LVL16:
 182              	.L14:
 183              	.LBB4:
 184              		.loc 1 111 0
 185 0006 2023     		movs	r3, #32
 186              	.LVL17:
 187              	@ 111 "/home/gokul/ChibiOS_2.5.0/os/hal/src/icu.c" 1
 188 0008 83F31188 		msr     BASEPRI, r3
 189              	@ 0 "" 2
 190              	.LVL18:
 191              		.thumb
 192              	.LBE4:
 193 000c FFF7FEFF 		bl	dbg_check_lock
 194              	.LVL19:
 195              		.loc 1 112 0
 196 0010 2378     		ldrb	r3, [r4, #0]	@ zero_extendqisi2
 197 0012 581E     		subs	r0, r3, #1
 198 0014 0128     		cmp	r0, #1
 199 0016 02D9     		bls	.L15
 200              		.loc 1 112 0 is_stmt 0 discriminator 1
 201 0018 0848     		ldr	r0, .L17
 202 001a FFF7FEFF 		bl	chDbgPanic
 203              	.LVL20:
 204              	.L15:
 205              		.loc 1 114 0 is_stmt 1
 206 001e 2046     		mov	r0, r4
 207 0020 FFF7FEFF 		bl	icu_lld_stop
 208              	.LVL21:
 209              		.loc 1 115 0
 210 0024 0121     		movs	r1, #1
 211 0026 2170     		strb	r1, [r4, #0]
 212              		.loc 1 116 0
 213 0028 FFF7FEFF 		bl	dbg_check_unlock
 214              	.LVL22:
 215              	.LBB5:
 216 002c 0023     		movs	r3, #0
 217              	.LVL23:
 218              	@ 116 "/home/gokul/ChibiOS_2.5.0/os/hal/src/icu.c" 1
 219 002e 83F31188 		msr     BASEPRI, r3
 220              	@ 0 "" 2
 221              	.LVL24:
 222              		.thumb
 223 0032 10BD     		pop	{r4, pc}
 224              	.LVL25:
 225              	.L16:
ARM GAS  /tmp/cc4bFCY5.s 			page 5


 226              	.LBE5:
 227              		.loc 1 109 0 discriminator 1
 228 0034 0248     		ldr	r0, .L17+4
 229              	.LVL26:
 230 0036 FFF7FEFF 		bl	chDbgPanic
 231              	.LVL27:
 232 003a E4E7     		b	.L14
 233              	.L18:
 234              		.align	2
 235              	.L17:
 236 003c 2C000000 		.word	.LC3
 237 0040 20000000 		.word	.LC2
 238              		.cfi_endproc
 239              	.LFE121:
 240              		.size	icuStop, .-icuStop
 241 0044 AFF30080 		.section	.text.icuEnable,"ax",%progbits
 241      AFF30080 
 241      AFF30080 
 242              		.align	2
 243              		.p2align 4,,15
 244              		.global	icuEnable
 245              		.thumb
 246              		.thumb_func
 247              		.type	icuEnable, %function
 248              	icuEnable:
 249              	.LFB122:
 250              		.loc 1 126 0
 251              		.cfi_startproc
 252              		@ args = 0, pretend = 0, frame = 0
 253              		@ frame_needed = 0, uses_anonymous_args = 0
 254              	.LVL28:
 255 0000 10B5     		push	{r4, lr}
 256              	.LCFI2:
 257              		.cfi_def_cfa_offset 8
 258              		.cfi_offset 4, -8
 259              		.cfi_offset 14, -4
 260              		.loc 1 128 0
 261 0002 0446     		mov	r4, r0
 262 0004 A8B1     		cbz	r0, .L25
 263              	.LVL29:
 264              	.L20:
 265              	.LBB6:
 266              		.loc 1 130 0
 267 0006 2023     		movs	r3, #32
 268              	.LVL30:
 269              	@ 130 "/home/gokul/ChibiOS_2.5.0/os/hal/src/icu.c" 1
 270 0008 83F31188 		msr     BASEPRI, r3
 271              	@ 0 "" 2
 272              	.LVL31:
 273              		.thumb
 274              	.LBE6:
 275 000c FFF7FEFF 		bl	dbg_check_lock
 276              	.LVL32:
 277              		.loc 1 131 0
 278 0010 2378     		ldrb	r3, [r4, #0]	@ zero_extendqisi2
 279 0012 022B     		cmp	r3, #2
 280 0014 02D0     		beq	.L21
ARM GAS  /tmp/cc4bFCY5.s 			page 6


 281              		.loc 1 131 0 is_stmt 0 discriminator 1
 282 0016 0948     		ldr	r0, .L26
 283 0018 FFF7FEFF 		bl	chDbgPanic
 284              	.LVL33:
 285              	.L21:
 286              		.loc 1 132 0 is_stmt 1
 287 001c 2046     		mov	r0, r4
 288 001e FFF7FEFF 		bl	icu_lld_enable
 289              	.LVL34:
 290              		.loc 1 133 0
 291 0022 0320     		movs	r0, #3
 292 0024 2070     		strb	r0, [r4, #0]
 293              		.loc 1 134 0
 294 0026 FFF7FEFF 		bl	dbg_check_unlock
 295              	.LVL35:
 296              	.LBB7:
 297 002a 0023     		movs	r3, #0
 298              	.LVL36:
 299              	@ 134 "/home/gokul/ChibiOS_2.5.0/os/hal/src/icu.c" 1
 300 002c 83F31188 		msr     BASEPRI, r3
 301              	@ 0 "" 2
 302              	.LVL37:
 303              		.thumb
 304 0030 10BD     		pop	{r4, pc}
 305              	.LVL38:
 306              	.L25:
 307              	.LBE7:
 308              		.loc 1 128 0 discriminator 1
 309 0032 0348     		ldr	r0, .L26+4
 310              	.LVL39:
 311 0034 FFF7FEFF 		bl	chDbgPanic
 312              	.LVL40:
 313 0038 E5E7     		b	.L20
 314              	.L27:
 315 003a 00BF     		.align	2
 316              	.L26:
 317 003c 4C000000 		.word	.LC5
 318 0040 3C000000 		.word	.LC4
 319              		.cfi_endproc
 320              	.LFE122:
 321              		.size	icuEnable, .-icuEnable
 322 0044 AFF30080 		.section	.text.icuDisable,"ax",%progbits
 322      AFF30080 
 322      AFF30080 
 323              		.align	2
 324              		.p2align 4,,15
 325              		.global	icuDisable
 326              		.thumb
 327              		.thumb_func
 328              		.type	icuDisable, %function
 329              	icuDisable:
 330              	.LFB123:
 331              		.loc 1 144 0
 332              		.cfi_startproc
 333              		@ args = 0, pretend = 0, frame = 0
 334              		@ frame_needed = 0, uses_anonymous_args = 0
 335              	.LVL41:
ARM GAS  /tmp/cc4bFCY5.s 			page 7


 336 0000 10B5     		push	{r4, lr}
 337              	.LCFI3:
 338              		.cfi_def_cfa_offset 8
 339              		.cfi_offset 4, -8
 340              		.cfi_offset 14, -4
 341              		.loc 1 146 0
 342 0002 0446     		mov	r4, r0
 343 0004 B0B1     		cbz	r0, .L31
 344              	.LVL42:
 345              	.L29:
 346              	.LBB8:
 347              		.loc 1 148 0
 348 0006 2023     		movs	r3, #32
 349              	.LVL43:
 350              	@ 148 "/home/gokul/ChibiOS_2.5.0/os/hal/src/icu.c" 1
 351 0008 83F31188 		msr     BASEPRI, r3
 352              	@ 0 "" 2
 353              	.LVL44:
 354              		.thumb
 355              	.LBE8:
 356 000c FFF7FEFF 		bl	dbg_check_lock
 357              	.LVL45:
 358              		.loc 1 149 0
 359 0010 2378     		ldrb	r3, [r4, #0]	@ zero_extendqisi2
 360 0012 981E     		subs	r0, r3, #2
 361 0014 0328     		cmp	r0, #3
 362 0016 02D9     		bls	.L30
 363              		.loc 1 149 0 is_stmt 0 discriminator 1
 364 0018 0848     		ldr	r0, .L32
 365 001a FFF7FEFF 		bl	chDbgPanic
 366              	.LVL46:
 367              	.L30:
 368              		.loc 1 152 0 is_stmt 1
 369 001e 2046     		mov	r0, r4
 370 0020 FFF7FEFF 		bl	icu_lld_disable
 371              	.LVL47:
 372              		.loc 1 153 0
 373 0024 0221     		movs	r1, #2
 374 0026 2170     		strb	r1, [r4, #0]
 375              		.loc 1 154 0
 376 0028 FFF7FEFF 		bl	dbg_check_unlock
 377              	.LVL48:
 378              	.LBB9:
 379 002c 0023     		movs	r3, #0
 380              	.LVL49:
 381              	@ 154 "/home/gokul/ChibiOS_2.5.0/os/hal/src/icu.c" 1
 382 002e 83F31188 		msr     BASEPRI, r3
 383              	@ 0 "" 2
 384              	.LVL50:
 385              		.thumb
 386 0032 10BD     		pop	{r4, pc}
 387              	.LVL51:
 388              	.L31:
 389              	.LBE9:
 390              		.loc 1 146 0 discriminator 1
 391 0034 0248     		ldr	r0, .L32+4
 392              	.LVL52:
ARM GAS  /tmp/cc4bFCY5.s 			page 8


 393 0036 FFF7FEFF 		bl	chDbgPanic
 394              	.LVL53:
 395 003a E4E7     		b	.L29
 396              	.L33:
 397              		.align	2
 398              	.L32:
 399 003c 6C000000 		.word	.LC7
 400 0040 5C000000 		.word	.LC6
 401              		.cfi_endproc
 402              	.LFE123:
 403              		.size	icuDisable, .-icuDisable
 404 0044 AFF30080 		.section	.rodata.str1.4,"aMS",%progbits,1
 404      AFF30080 
 404      AFF30080 
 405              		.align	2
 406              	.LC0:
 407 0000 22696375 		.ascii	"\"icuStart\"()\000"
 407      53746172 
 407      74222829 
 407      00
 408 000d 000000   		.space	3
 409              	.LC1:
 410 0010 69637553 		.ascii	"icuStart(), #1\000"
 410      74617274 
 410      28292C20 
 410      233100
 411 001f 00       		.space	1
 412              	.LC2:
 413 0020 22696375 		.ascii	"\"icuStop\"()\000"
 413      53746F70 
 413      22282900 
 414              	.LC3:
 415 002c 69637553 		.ascii	"icuStop(), #1\000"
 415      746F7028 
 415      292C2023 
 415      3100
 416 003a 0000     		.space	2
 417              	.LC4:
 418 003c 22696375 		.ascii	"\"icuEnable\"()\000"
 418      456E6162 
 418      6C652228 
 418      2900
 419 004a 0000     		.space	2
 420              	.LC5:
 421 004c 69637545 		.ascii	"icuEnable(), #1\000"
 421      6E61626C 
 421      6528292C 
 421      20233100 
 422              	.LC6:
 423 005c 22696375 		.ascii	"\"icuDisable\"()\000"
 423      44697361 
 423      626C6522 
 423      282900
 424 006b 00       		.space	1
 425              	.LC7:
 426 006c 69637544 		.ascii	"icuDisable(), #1\000"
 426      69736162 
ARM GAS  /tmp/cc4bFCY5.s 			page 9


 426      6C652829 
 426      2C202331 
 426      00
 427 007d 000000   		.text
 428              	.Letext0:
 429              		.file 2 "/opt/gcc-arm-none-eabi-4_7-2013q1/bin/../lib/gcc/arm-none-eabi/4.7.3/../../../../arm-none
 430              		.file 3 "/home/gokul/ChibiOS_2.5.0/os/hal/platforms/STM32/stm32.h"
 431              		.file 4 "/home/gokul/ChibiOS_2.5.0/os/hal/include/icu.h"
 432              		.file 5 "/home/gokul/ChibiOS_2.5.0/os/hal/platforms/STM32/icu_lld.h"
 433              		.file 6 "/home/gokul/ChibiOS_2.5.0/os/kernel/include/chdebug.h"
 434              		.file 7 "/home/gokul/ChibiOS_2.5.0/os/ports/common/ARMCMx/CMSIS/include/core_cm4.h"
 435              		.section	.debug_info,"",%progbits
 436              	.Ldebug_info0:
 437 0000 FD070000 		.4byte	0x7fd
 438 0004 0200     		.2byte	0x2
 439 0006 00000000 		.4byte	.Ldebug_abbrev0
 440 000a 04       		.byte	0x4
 441 000b 01       		.uleb128 0x1
 442 000c 61010000 		.4byte	.LASF79
 443 0010 01       		.byte	0x1
 444 0011 41030000 		.4byte	.LASF80
 445 0015 00000000 		.4byte	.Ldebug_ranges0+0
 446 0019 00000000 		.4byte	0
 447 001d 00000000 		.4byte	0
 448 0021 00000000 		.4byte	.Ldebug_line0
 449 0025 02       		.uleb128 0x2
 450 0026 04       		.byte	0x4
 451 0027 05       		.byte	0x5
 452 0028 696E7400 		.ascii	"int\000"
 453 002c 03       		.uleb128 0x3
 454 002d 04       		.byte	0x4
 455 002e 07       		.byte	0x7
 456 002f 30020000 		.4byte	.LASF0
 457 0033 03       		.uleb128 0x3
 458 0034 01       		.byte	0x1
 459 0035 06       		.byte	0x6
 460 0036 FF010000 		.4byte	.LASF1
 461 003a 03       		.uleb128 0x3
 462 003b 01       		.byte	0x1
 463 003c 08       		.byte	0x8
 464 003d C3010000 		.4byte	.LASF2
 465 0041 03       		.uleb128 0x3
 466 0042 02       		.byte	0x2
 467 0043 05       		.byte	0x5
 468 0044 4F000000 		.4byte	.LASF3
 469 0048 04       		.uleb128 0x4
 470 0049 3D020000 		.4byte	.LASF5
 471 004d 02       		.byte	0x2
 472 004e 36       		.byte	0x36
 473 004f 53000000 		.4byte	0x53
 474 0053 03       		.uleb128 0x3
 475 0054 02       		.byte	0x2
 476 0055 07       		.byte	0x7
 477 0056 70020000 		.4byte	.LASF4
 478 005a 04       		.uleb128 0x4
 479 005b B1020000 		.4byte	.LASF6
 480 005f 02       		.byte	0x2
ARM GAS  /tmp/cc4bFCY5.s 			page 10


 481 0060 4F       		.byte	0x4f
 482 0061 65000000 		.4byte	0x65
 483 0065 03       		.uleb128 0x3
 484 0066 04       		.byte	0x4
 485 0067 05       		.byte	0x5
 486 0068 4C010000 		.4byte	.LASF7
 487 006c 04       		.uleb128 0x4
 488 006d 27020000 		.4byte	.LASF8
 489 0071 02       		.byte	0x2
 490 0072 50       		.byte	0x50
 491 0073 77000000 		.4byte	0x77
 492 0077 03       		.uleb128 0x3
 493 0078 04       		.byte	0x4
 494 0079 07       		.byte	0x7
 495 007a 0A030000 		.4byte	.LASF9
 496 007e 03       		.uleb128 0x3
 497 007f 08       		.byte	0x8
 498 0080 05       		.byte	0x5
 499 0081 17010000 		.4byte	.LASF10
 500 0085 03       		.uleb128 0x3
 501 0086 08       		.byte	0x8
 502 0087 07       		.byte	0x7
 503 0088 25010000 		.4byte	.LASF11
 504 008c 05       		.uleb128 0x5
 505 008d 6C000000 		.4byte	0x6c
 506 0091 03       		.uleb128 0x3
 507 0092 04       		.byte	0x4
 508 0093 07       		.byte	0x7
 509 0094 5E000000 		.4byte	.LASF12
 510 0098 06       		.uleb128 0x6
 511 0099 04       		.byte	0x4
 512 009a 9E000000 		.4byte	0x9e
 513 009e 07       		.uleb128 0x7
 514 009f A3000000 		.4byte	0xa3
 515 00a3 03       		.uleb128 0x3
 516 00a4 01       		.byte	0x1
 517 00a5 08       		.byte	0x8
 518 00a6 83020000 		.4byte	.LASF13
 519 00aa 08       		.uleb128 0x8
 520 00ab 6C000000 		.4byte	0x6c
 521 00af BA000000 		.4byte	0xba
 522 00b3 09       		.uleb128 0x9
 523 00b4 91000000 		.4byte	0x91
 524 00b8 03       		.byte	0x3
 525 00b9 00       		.byte	0
 526 00ba 05       		.uleb128 0x5
 527 00bb 48000000 		.4byte	0x48
 528 00bf 05       		.uleb128 0x5
 529 00c0 5A000000 		.4byte	0x5a
 530 00c4 0A       		.uleb128 0xa
 531 00c5 54       		.byte	0x54
 532 00c6 03       		.byte	0x3
 533 00c7 5C       		.byte	0x5c
 534 00c8 99020000 		.4byte	0x299
 535 00cc 0B       		.uleb128 0xb
 536 00cd 43523100 		.ascii	"CR1\000"
 537 00d1 03       		.byte	0x3
ARM GAS  /tmp/cc4bFCY5.s 			page 11


 538 00d2 5D       		.byte	0x5d
 539 00d3 BA000000 		.4byte	0xba
 540 00d7 02       		.byte	0x2
 541 00d8 23       		.byte	0x23
 542 00d9 00       		.uleb128 0
 543 00da 0C       		.uleb128 0xc
 544 00db 92000000 		.4byte	.LASF14
 545 00df 03       		.byte	0x3
 546 00e0 5E       		.byte	0x5e
 547 00e1 48000000 		.4byte	0x48
 548 00e5 02       		.byte	0x2
 549 00e6 23       		.byte	0x23
 550 00e7 02       		.uleb128 0x2
 551 00e8 0B       		.uleb128 0xb
 552 00e9 43523200 		.ascii	"CR2\000"
 553 00ed 03       		.byte	0x3
 554 00ee 5F       		.byte	0x5f
 555 00ef BA000000 		.4byte	0xba
 556 00f3 02       		.byte	0x2
 557 00f4 23       		.byte	0x23
 558 00f5 04       		.uleb128 0x4
 559 00f6 0C       		.uleb128 0xc
 560 00f7 9A000000 		.4byte	.LASF15
 561 00fb 03       		.byte	0x3
 562 00fc 60       		.byte	0x60
 563 00fd 48000000 		.4byte	0x48
 564 0101 02       		.byte	0x2
 565 0102 23       		.byte	0x23
 566 0103 06       		.uleb128 0x6
 567 0104 0C       		.uleb128 0xc
 568 0105 BE010000 		.4byte	.LASF16
 569 0109 03       		.byte	0x3
 570 010a 61       		.byte	0x61
 571 010b BA000000 		.4byte	0xba
 572 010f 02       		.byte	0x2
 573 0110 23       		.byte	0x23
 574 0111 08       		.uleb128 0x8
 575 0112 0C       		.uleb128 0xc
 576 0113 9B030000 		.4byte	.LASF17
 577 0117 03       		.byte	0x3
 578 0118 62       		.byte	0x62
 579 0119 48000000 		.4byte	0x48
 580 011d 02       		.byte	0x2
 581 011e 23       		.byte	0x23
 582 011f 0A       		.uleb128 0xa
 583 0120 0C       		.uleb128 0xc
 584 0121 46020000 		.4byte	.LASF18
 585 0125 03       		.byte	0x3
 586 0126 63       		.byte	0x63
 587 0127 BA000000 		.4byte	0xba
 588 012b 02       		.byte	0x2
 589 012c 23       		.byte	0x23
 590 012d 0C       		.uleb128 0xc
 591 012e 0C       		.uleb128 0xc
 592 012f AB000000 		.4byte	.LASF19
 593 0133 03       		.byte	0x3
 594 0134 64       		.byte	0x64
ARM GAS  /tmp/cc4bFCY5.s 			page 12


 595 0135 48000000 		.4byte	0x48
 596 0139 02       		.byte	0x2
 597 013a 23       		.byte	0x23
 598 013b 0E       		.uleb128 0xe
 599 013c 0B       		.uleb128 0xb
 600 013d 535200   		.ascii	"SR\000"
 601 0140 03       		.byte	0x3
 602 0141 65       		.byte	0x65
 603 0142 BA000000 		.4byte	0xba
 604 0146 02       		.byte	0x2
 605 0147 23       		.byte	0x23
 606 0148 10       		.uleb128 0x10
 607 0149 0C       		.uleb128 0xc
 608 014a B3000000 		.4byte	.LASF20
 609 014e 03       		.byte	0x3
 610 014f 66       		.byte	0x66
 611 0150 48000000 		.4byte	0x48
 612 0154 02       		.byte	0x2
 613 0155 23       		.byte	0x23
 614 0156 12       		.uleb128 0x12
 615 0157 0B       		.uleb128 0xb
 616 0158 45475200 		.ascii	"EGR\000"
 617 015c 03       		.byte	0x3
 618 015d 67       		.byte	0x67
 619 015e BA000000 		.4byte	0xba
 620 0162 02       		.byte	0x2
 621 0163 23       		.byte	0x23
 622 0164 14       		.uleb128 0x14
 623 0165 0C       		.uleb128 0xc
 624 0166 BB000000 		.4byte	.LASF21
 625 016a 03       		.byte	0x3
 626 016b 68       		.byte	0x68
 627 016c 48000000 		.4byte	0x48
 628 0170 02       		.byte	0x2
 629 0171 23       		.byte	0x23
 630 0172 16       		.uleb128 0x16
 631 0173 0C       		.uleb128 0xc
 632 0174 5B010000 		.4byte	.LASF22
 633 0178 03       		.byte	0x3
 634 0179 69       		.byte	0x69
 635 017a BA000000 		.4byte	0xba
 636 017e 02       		.byte	0x2
 637 017f 23       		.byte	0x23
 638 0180 18       		.uleb128 0x18
 639 0181 0C       		.uleb128 0xc
 640 0182 C3000000 		.4byte	.LASF23
 641 0186 03       		.byte	0x3
 642 0187 6A       		.byte	0x6a
 643 0188 48000000 		.4byte	0x48
 644 018c 02       		.byte	0x2
 645 018d 23       		.byte	0x23
 646 018e 1A       		.uleb128 0x1a
 647 018f 0C       		.uleb128 0xc
 648 0190 49000000 		.4byte	.LASF24
 649 0194 03       		.byte	0x3
 650 0195 6B       		.byte	0x6b
 651 0196 BA000000 		.4byte	0xba
ARM GAS  /tmp/cc4bFCY5.s 			page 13


 652 019a 02       		.byte	0x2
 653 019b 23       		.byte	0x23
 654 019c 1C       		.uleb128 0x1c
 655 019d 0C       		.uleb128 0xc
 656 019e CB000000 		.4byte	.LASF25
 657 01a2 03       		.byte	0x3
 658 01a3 6C       		.byte	0x6c
 659 01a4 48000000 		.4byte	0x48
 660 01a8 02       		.byte	0x2
 661 01a9 23       		.byte	0x23
 662 01aa 1E       		.uleb128 0x1e
 663 01ab 0C       		.uleb128 0xc
 664 01ac 15000000 		.4byte	.LASF26
 665 01b0 03       		.byte	0x3
 666 01b1 6D       		.byte	0x6d
 667 01b2 BA000000 		.4byte	0xba
 668 01b6 02       		.byte	0x2
 669 01b7 23       		.byte	0x23
 670 01b8 20       		.uleb128 0x20
 671 01b9 0C       		.uleb128 0xc
 672 01ba 02030000 		.4byte	.LASF27
 673 01be 03       		.byte	0x3
 674 01bf 6E       		.byte	0x6e
 675 01c0 48000000 		.4byte	0x48
 676 01c4 02       		.byte	0x2
 677 01c5 23       		.byte	0x23
 678 01c6 22       		.uleb128 0x22
 679 01c7 0B       		.uleb128 0xb
 680 01c8 434E5400 		.ascii	"CNT\000"
 681 01cc 03       		.byte	0x3
 682 01cd 6F       		.byte	0x6f
 683 01ce 8C000000 		.4byte	0x8c
 684 01d2 02       		.byte	0x2
 685 01d3 23       		.byte	0x23
 686 01d4 24       		.uleb128 0x24
 687 01d5 0B       		.uleb128 0xb
 688 01d6 50534300 		.ascii	"PSC\000"
 689 01da 03       		.byte	0x3
 690 01db 70       		.byte	0x70
 691 01dc BA000000 		.4byte	0xba
 692 01e0 02       		.byte	0x2
 693 01e1 23       		.byte	0x23
 694 01e2 28       		.uleb128 0x28
 695 01e3 0C       		.uleb128 0xc
 696 01e4 AE030000 		.4byte	.LASF28
 697 01e8 03       		.byte	0x3
 698 01e9 71       		.byte	0x71
 699 01ea 48000000 		.4byte	0x48
 700 01ee 02       		.byte	0x2
 701 01ef 23       		.byte	0x23
 702 01f0 2A       		.uleb128 0x2a
 703 01f1 0B       		.uleb128 0xb
 704 01f2 41525200 		.ascii	"ARR\000"
 705 01f6 03       		.byte	0x3
 706 01f7 72       		.byte	0x72
 707 01f8 8C000000 		.4byte	0x8c
 708 01fc 02       		.byte	0x2
ARM GAS  /tmp/cc4bFCY5.s 			page 14


 709 01fd 23       		.byte	0x23
 710 01fe 2C       		.uleb128 0x2c
 711 01ff 0B       		.uleb128 0xb
 712 0200 52435200 		.ascii	"RCR\000"
 713 0204 03       		.byte	0x3
 714 0205 73       		.byte	0x73
 715 0206 BA000000 		.4byte	0xba
 716 020a 02       		.byte	0x2
 717 020b 23       		.byte	0x23
 718 020c 30       		.uleb128 0x30
 719 020d 0C       		.uleb128 0xc
 720 020e 22030000 		.4byte	.LASF29
 721 0212 03       		.byte	0x3
 722 0213 74       		.byte	0x74
 723 0214 48000000 		.4byte	0x48
 724 0218 02       		.byte	0x2
 725 0219 23       		.byte	0x23
 726 021a 32       		.uleb128 0x32
 727 021b 0B       		.uleb128 0xb
 728 021c 43435200 		.ascii	"CCR\000"
 729 0220 03       		.byte	0x3
 730 0221 75       		.byte	0x75
 731 0222 99020000 		.4byte	0x299
 732 0226 02       		.byte	0x2
 733 0227 23       		.byte	0x23
 734 0228 34       		.uleb128 0x34
 735 0229 0C       		.uleb128 0xc
 736 022a AC020000 		.4byte	.LASF30
 737 022e 03       		.byte	0x3
 738 022f 76       		.byte	0x76
 739 0230 BA000000 		.4byte	0xba
 740 0234 02       		.byte	0x2
 741 0235 23       		.byte	0x23
 742 0236 44       		.uleb128 0x44
 743 0237 0C       		.uleb128 0xc
 744 0238 A2000000 		.4byte	.LASF31
 745 023c 03       		.byte	0x3
 746 023d 77       		.byte	0x77
 747 023e 48000000 		.4byte	0x48
 748 0242 02       		.byte	0x2
 749 0243 23       		.byte	0x23
 750 0244 46       		.uleb128 0x46
 751 0245 0B       		.uleb128 0xb
 752 0246 44435200 		.ascii	"DCR\000"
 753 024a 03       		.byte	0x3
 754 024b 78       		.byte	0x78
 755 024c BA000000 		.4byte	0xba
 756 0250 02       		.byte	0x2
 757 0251 23       		.byte	0x23
 758 0252 48       		.uleb128 0x48
 759 0253 0C       		.uleb128 0xc
 760 0254 55020000 		.4byte	.LASF32
 761 0258 03       		.byte	0x3
 762 0259 79       		.byte	0x79
 763 025a 48000000 		.4byte	0x48
 764 025e 02       		.byte	0x2
 765 025f 23       		.byte	0x23
ARM GAS  /tmp/cc4bFCY5.s 			page 15


 766 0260 4A       		.uleb128 0x4a
 767 0261 0C       		.uleb128 0xc
 768 0262 3E000000 		.4byte	.LASF33
 769 0266 03       		.byte	0x3
 770 0267 7A       		.byte	0x7a
 771 0268 BA000000 		.4byte	0xba
 772 026c 02       		.byte	0x2
 773 026d 23       		.byte	0x23
 774 026e 4C       		.uleb128 0x4c
 775 026f 0C       		.uleb128 0xc
 776 0270 5E020000 		.4byte	.LASF34
 777 0274 03       		.byte	0x3
 778 0275 7B       		.byte	0x7b
 779 0276 48000000 		.4byte	0x48
 780 027a 02       		.byte	0x2
 781 027b 23       		.byte	0x23
 782 027c 4E       		.uleb128 0x4e
 783 027d 0B       		.uleb128 0xb
 784 027e 4F5200   		.ascii	"OR\000"
 785 0281 03       		.byte	0x3
 786 0282 7C       		.byte	0x7c
 787 0283 BA000000 		.4byte	0xba
 788 0287 02       		.byte	0x2
 789 0288 23       		.byte	0x23
 790 0289 50       		.uleb128 0x50
 791 028a 0C       		.uleb128 0xc
 792 028b 67020000 		.4byte	.LASF35
 793 028f 03       		.byte	0x3
 794 0290 7D       		.byte	0x7d
 795 0291 48000000 		.4byte	0x48
 796 0295 02       		.byte	0x2
 797 0296 23       		.byte	0x23
 798 0297 52       		.uleb128 0x52
 799 0298 00       		.byte	0
 800 0299 05       		.uleb128 0x5
 801 029a AA000000 		.4byte	0xaa
 802 029e 04       		.uleb128 0x4
 803 029f 96020000 		.4byte	.LASF36
 804 02a3 03       		.byte	0x3
 805 02a4 7E       		.byte	0x7e
 806 02a5 C4000000 		.4byte	0xc4
 807 02a9 06       		.uleb128 0x6
 808 02aa 04       		.byte	0x4
 809 02ab 8C000000 		.4byte	0x8c
 810 02af 0D       		.uleb128 0xd
 811 02b0 01       		.byte	0x1
 812 02b1 04       		.byte	0x4
 813 02b2 35       		.byte	0x35
 814 02b3 DC020000 		.4byte	0x2dc
 815 02b7 0E       		.uleb128 0xe
 816 02b8 E1020000 		.4byte	.LASF37
 817 02bc 00       		.sleb128 0
 818 02bd 0E       		.uleb128 0xe
 819 02be 1A000000 		.4byte	.LASF38
 820 02c2 01       		.sleb128 1
 821 02c3 0E       		.uleb128 0xe
 822 02c4 76030000 		.4byte	.LASF39
ARM GAS  /tmp/cc4bFCY5.s 			page 16


 823 02c8 02       		.sleb128 2
 824 02c9 0E       		.uleb128 0xe
 825 02ca EF000000 		.4byte	.LASF40
 826 02ce 03       		.sleb128 3
 827 02cf 0E       		.uleb128 0xe
 828 02d0 0C010000 		.4byte	.LASF41
 829 02d4 04       		.sleb128 4
 830 02d5 0E       		.uleb128 0xe
 831 02d6 B5010000 		.4byte	.LASF42
 832 02da 05       		.sleb128 5
 833 02db 00       		.byte	0
 834 02dc 04       		.uleb128 0x4
 835 02dd A3030000 		.4byte	.LASF43
 836 02e1 04       		.byte	0x4
 837 02e2 3C       		.byte	0x3c
 838 02e3 AF020000 		.4byte	0x2af
 839 02e7 04       		.uleb128 0x4
 840 02e8 37030000 		.4byte	.LASF44
 841 02ec 04       		.byte	0x4
 842 02ed 41       		.byte	0x41
 843 02ee F2020000 		.4byte	0x2f2
 844 02f2 0F       		.uleb128 0xf
 845 02f3 37030000 		.4byte	.LASF44
 846 02f7 18       		.byte	0x18
 847 02f8 05       		.byte	0x5
 848 02f9 1301     		.2byte	0x113
 849 02fb 5A030000 		.4byte	0x35a
 850 02ff 10       		.uleb128 0x10
 851 0300 43000000 		.4byte	.LASF45
 852 0304 05       		.byte	0x5
 853 0305 1701     		.2byte	0x117
 854 0307 DC020000 		.4byte	0x2dc
 855 030b 02       		.byte	0x2
 856 030c 23       		.byte	0x23
 857 030d 00       		.uleb128 0
 858 030e 10       		.uleb128 0x10
 859 030f 8B000000 		.4byte	.LASF46
 860 0313 05       		.byte	0x5
 861 0314 1B01     		.2byte	0x11b
 862 0316 34040000 		.4byte	0x434
 863 031a 02       		.byte	0x2
 864 031b 23       		.byte	0x23
 865 031c 04       		.uleb128 0x4
 866 031d 10       		.uleb128 0x10
 867 031e 1C030000 		.4byte	.LASF47
 868 0322 05       		.byte	0x5
 869 0323 2301     		.2byte	0x123
 870 0325 6C000000 		.4byte	0x6c
 871 0329 02       		.byte	0x2
 872 032a 23       		.byte	0x23
 873 032b 08       		.uleb128 0x8
 874 032c 11       		.uleb128 0x11
 875 032d 74696D00 		.ascii	"tim\000"
 876 0331 05       		.byte	0x5
 877 0332 2701     		.2byte	0x127
 878 0334 3F040000 		.4byte	0x43f
 879 0338 02       		.byte	0x2
ARM GAS  /tmp/cc4bFCY5.s 			page 17


 880 0339 23       		.byte	0x23
 881 033a 0C       		.uleb128 0xc
 882 033b 10       		.uleb128 0x10
 883 033c 46010000 		.4byte	.LASF48
 884 0340 05       		.byte	0x5
 885 0341 2B01     		.2byte	0x12b
 886 0343 A9020000 		.4byte	0x2a9
 887 0347 02       		.byte	0x2
 888 0348 23       		.byte	0x23
 889 0349 10       		.uleb128 0x10
 890 034a 10       		.uleb128 0x10
 891 034b 55010000 		.4byte	.LASF49
 892 034f 05       		.byte	0x5
 893 0350 2F01     		.2byte	0x12f
 894 0352 A9020000 		.4byte	0x2a9
 895 0356 02       		.byte	0x2
 896 0357 23       		.byte	0x23
 897 0358 14       		.uleb128 0x14
 898 0359 00       		.byte	0
 899 035a 04       		.uleb128 0x4
 900 035b 88020000 		.4byte	.LASF50
 901 035f 04       		.byte	0x4
 902 0360 48       		.byte	0x48
 903 0361 65030000 		.4byte	0x365
 904 0365 06       		.uleb128 0x6
 905 0366 04       		.byte	0x4
 906 0367 6B030000 		.4byte	0x36b
 907 036b 12       		.uleb128 0x12
 908 036c 01       		.byte	0x1
 909 036d 77030000 		.4byte	0x377
 910 0371 13       		.uleb128 0x13
 911 0372 77030000 		.4byte	0x377
 912 0376 00       		.byte	0
 913 0377 06       		.uleb128 0x6
 914 0378 04       		.byte	0x4
 915 0379 E7020000 		.4byte	0x2e7
 916 037d 0D       		.uleb128 0xd
 917 037e 01       		.byte	0x1
 918 037f 05       		.byte	0x5
 919 0380 D6       		.byte	0xd6
 920 0381 92030000 		.4byte	0x392
 921 0385 0E       		.uleb128 0xe
 922 0386 EC020000 		.4byte	.LASF51
 923 038a 00       		.sleb128 0
 924 038b 0E       		.uleb128 0xe
 925 038c B9020000 		.4byte	.LASF52
 926 0390 01       		.sleb128 1
 927 0391 00       		.byte	0
 928 0392 04       		.uleb128 0x4
 929 0393 3C010000 		.4byte	.LASF53
 930 0397 05       		.byte	0x5
 931 0398 D9       		.byte	0xd9
 932 0399 7D030000 		.4byte	0x37d
 933 039d 04       		.uleb128 0x4
 934 039e 4B020000 		.4byte	.LASF54
 935 03a2 05       		.byte	0x5
 936 03a3 DE       		.byte	0xde
ARM GAS  /tmp/cc4bFCY5.s 			page 18


 937 03a4 6C000000 		.4byte	0x6c
 938 03a8 0D       		.uleb128 0xd
 939 03a9 01       		.byte	0x1
 940 03aa 05       		.byte	0x5
 941 03ab E3       		.byte	0xe3
 942 03ac BD030000 		.4byte	0x3bd
 943 03b0 0E       		.uleb128 0xe
 944 03b1 D3000000 		.4byte	.LASF55
 945 03b5 00       		.sleb128 0
 946 03b6 0E       		.uleb128 0xe
 947 03b7 E1000000 		.4byte	.LASF56
 948 03bb 01       		.sleb128 1
 949 03bc 00       		.byte	0
 950 03bd 04       		.uleb128 0x4
 951 03be 23000000 		.4byte	.LASF57
 952 03c2 05       		.byte	0x5
 953 03c3 E6       		.byte	0xe6
 954 03c4 A8030000 		.4byte	0x3a8
 955 03c8 0A       		.uleb128 0xa
 956 03c9 18       		.byte	0x18
 957 03ca 05       		.byte	0x5
 958 03cb F1       		.byte	0xf1
 959 03cc 28040000 		.4byte	0x428
 960 03d0 0C       		.uleb128 0xc
 961 03d1 76000000 		.4byte	.LASF58
 962 03d5 05       		.byte	0x5
 963 03d6 F5       		.byte	0xf5
 964 03d7 92030000 		.4byte	0x392
 965 03db 02       		.byte	0x2
 966 03dc 23       		.byte	0x23
 967 03dd 00       		.uleb128 0
 968 03de 0C       		.uleb128 0xc
 969 03df 6C030000 		.4byte	.LASF59
 970 03e3 05       		.byte	0x5
 971 03e4 FB       		.byte	0xfb
 972 03e5 9D030000 		.4byte	0x39d
 973 03e9 02       		.byte	0x2
 974 03ea 23       		.byte	0x23
 975 03eb 04       		.uleb128 0x4
 976 03ec 0C       		.uleb128 0xc
 977 03ed 03010000 		.4byte	.LASF60
 978 03f1 05       		.byte	0x5
 979 03f2 FF       		.byte	0xff
 980 03f3 5A030000 		.4byte	0x35a
 981 03f7 02       		.byte	0x2
 982 03f8 23       		.byte	0x23
 983 03f9 08       		.uleb128 0x8
 984 03fa 10       		.uleb128 0x10
 985 03fb A2020000 		.4byte	.LASF61
 986 03ff 05       		.byte	0x5
 987 0400 0301     		.2byte	0x103
 988 0402 5A030000 		.4byte	0x35a
 989 0406 02       		.byte	0x2
 990 0407 23       		.byte	0x23
 991 0408 0C       		.uleb128 0xc
 992 0409 10       		.uleb128 0x10
 993 040a 2B030000 		.4byte	.LASF62
ARM GAS  /tmp/cc4bFCY5.s 			page 19


 994 040e 05       		.byte	0x5
 995 040f 0701     		.2byte	0x107
 996 0411 5A030000 		.4byte	0x35a
 997 0415 02       		.byte	0x2
 998 0416 23       		.byte	0x23
 999 0417 10       		.uleb128 0x10
 1000 0418 10       		.uleb128 0x10
 1001 0419 CE020000 		.4byte	.LASF63
 1002 041d 05       		.byte	0x5
 1003 041e 0D01     		.2byte	0x10d
 1004 0420 BD030000 		.4byte	0x3bd
 1005 0424 02       		.byte	0x2
 1006 0425 23       		.byte	0x23
 1007 0426 14       		.uleb128 0x14
 1008 0427 00       		.byte	0
 1009 0428 14       		.uleb128 0x14
 1010 0429 D1010000 		.4byte	.LASF64
 1011 042d 05       		.byte	0x5
 1012 042e 0E01     		.2byte	0x10e
 1013 0430 C8030000 		.4byte	0x3c8
 1014 0434 06       		.uleb128 0x6
 1015 0435 04       		.byte	0x4
 1016 0436 3A040000 		.4byte	0x43a
 1017 043a 07       		.uleb128 0x7
 1018 043b 28040000 		.4byte	0x428
 1019 043f 06       		.uleb128 0x6
 1020 0440 04       		.byte	0x4
 1021 0441 9E020000 		.4byte	0x29e
 1022 0445 15       		.uleb128 0x15
 1023 0446 01       		.byte	0x1
 1024 0447 FB000000 		.4byte	.LASF65
 1025 044b 01       		.byte	0x1
 1026 044c 3D       		.byte	0x3d
 1027 044d 01       		.byte	0x1
 1028 044e 00000000 		.4byte	.LFB118
 1029 0452 04000000 		.4byte	.LFE118
 1030 0456 02       		.byte	0x2
 1031 0457 7D       		.byte	0x7d
 1032 0458 00       		.sleb128 0
 1033 0459 01       		.byte	0x1
 1034 045a 69040000 		.4byte	0x469
 1035 045e 16       		.uleb128 0x16
 1036 045f 04000000 		.4byte	.LVL0
 1037 0463 01       		.byte	0x1
 1038 0464 7D070000 		.4byte	0x77d
 1039 0468 00       		.byte	0
 1040 0469 15       		.uleb128 0x15
 1041 046a 01       		.byte	0x1
 1042 046b 80030000 		.4byte	.LASF66
 1043 046f 01       		.byte	0x1
 1044 0470 49       		.byte	0x49
 1045 0471 01       		.byte	0x1
 1046 0472 00000000 		.4byte	.LFB119
 1047 0476 0A000000 		.4byte	.LFE119
 1048 047a 02       		.byte	0x2
 1049 047b 7D       		.byte	0x7d
 1050 047c 00       		.sleb128 0
ARM GAS  /tmp/cc4bFCY5.s 			page 20


 1051 047d 01       		.byte	0x1
 1052 047e 90040000 		.4byte	0x490
 1053 0482 17       		.uleb128 0x17
 1054 0483 59000000 		.4byte	.LASF68
 1055 0487 01       		.byte	0x1
 1056 0488 49       		.byte	0x49
 1057 0489 77030000 		.4byte	0x377
 1058 048d 01       		.byte	0x1
 1059 048e 50       		.byte	0x50
 1060 048f 00       		.byte	0
 1061 0490 18       		.uleb128 0x18
 1062 0491 01       		.byte	0x1
 1063 0492 EC010000 		.4byte	.LASF67
 1064 0496 01       		.byte	0x1
 1065 0497 57       		.byte	0x57
 1066 0498 01       		.byte	0x1
 1067 0499 00000000 		.4byte	.LFB120
 1068 049d 4C000000 		.4byte	.LFE120
 1069 04a1 00000000 		.4byte	.LLST0
 1070 04a5 01       		.byte	0x1
 1071 04a6 53050000 		.4byte	0x553
 1072 04aa 19       		.uleb128 0x19
 1073 04ab 59000000 		.4byte	.LASF68
 1074 04af 01       		.byte	0x1
 1075 04b0 57       		.byte	0x57
 1076 04b1 77030000 		.4byte	0x377
 1077 04b5 20000000 		.4byte	.LLST1
 1078 04b9 19       		.uleb128 0x19
 1079 04ba 8B000000 		.4byte	.LASF46
 1080 04be 01       		.byte	0x1
 1081 04bf 57       		.byte	0x57
 1082 04c0 34040000 		.4byte	0x434
 1083 04c4 54000000 		.4byte	.LLST2
 1084 04c8 1A       		.uleb128 0x1a
 1085 04c9 0A000000 		.4byte	.LBB2
 1086 04cd 10000000 		.4byte	.LBE2
 1087 04d1 E5040000 		.4byte	0x4e5
 1088 04d5 1B       		.uleb128 0x1b
 1089 04d6 746D7000 		.ascii	"tmp\000"
 1090 04da 01       		.byte	0x1
 1091 04db 5B       		.byte	0x5b
 1092 04dc 6C000000 		.4byte	0x6c
 1093 04e0 88000000 		.4byte	.LLST3
 1094 04e4 00       		.byte	0
 1095 04e5 1A       		.uleb128 0x1a
 1096 04e6 32000000 		.4byte	.LBB3
 1097 04ea 3A000000 		.4byte	.LBE3
 1098 04ee 02050000 		.4byte	0x502
 1099 04f2 1B       		.uleb128 0x1b
 1100 04f3 746D7000 		.ascii	"tmp\000"
 1101 04f7 01       		.byte	0x1
 1102 04f8 61       		.byte	0x61
 1103 04f9 6C000000 		.4byte	0x6c
 1104 04fd 9B000000 		.4byte	.LLST4
 1105 0501 00       		.byte	0
 1106 0502 1C       		.uleb128 0x1c
 1107 0503 14000000 		.4byte	.LVL6
ARM GAS  /tmp/cc4bFCY5.s 			page 21


 1108 0507 88070000 		.4byte	0x788
 1109 050b 1D       		.uleb128 0x1d
 1110 050c 22000000 		.4byte	.LVL7
 1111 0510 92070000 		.4byte	0x792
 1112 0514 22050000 		.4byte	0x522
 1113 0518 1E       		.uleb128 0x1e
 1114 0519 01       		.byte	0x1
 1115 051a 50       		.byte	0x50
 1116 051b 05       		.byte	0x5
 1117 051c 03       		.byte	0x3
 1118 051d 10000000 		.4byte	.LC1
 1119 0521 00       		.byte	0
 1120 0522 1D       		.uleb128 0x1d
 1121 0523 2A000000 		.4byte	.LVL8
 1122 0527 A6070000 		.4byte	0x7a6
 1123 052b 36050000 		.4byte	0x536
 1124 052f 1E       		.uleb128 0x1e
 1125 0530 01       		.byte	0x1
 1126 0531 50       		.byte	0x50
 1127 0532 02       		.byte	0x2
 1128 0533 74       		.byte	0x74
 1129 0534 00       		.sleb128 0
 1130 0535 00       		.byte	0
 1131 0536 1C       		.uleb128 0x1c
 1132 0537 32000000 		.4byte	.LVL9
 1133 053b BB070000 		.4byte	0x7bb
 1134 053f 1F       		.uleb128 0x1f
 1135 0540 40000000 		.4byte	.LVL14
 1136 0544 92070000 		.4byte	0x792
 1137 0548 1E       		.uleb128 0x1e
 1138 0549 01       		.byte	0x1
 1139 054a 50       		.byte	0x50
 1140 054b 05       		.byte	0x5
 1141 054c 03       		.byte	0x3
 1142 054d 00000000 		.4byte	.LC0
 1143 0551 00       		.byte	0
 1144 0552 00       		.byte	0
 1145 0553 18       		.uleb128 0x18
 1146 0554 01       		.byte	0x1
 1147 0555 00000000 		.4byte	.LASF69
 1148 0559 01       		.byte	0x1
 1149 055a 6B       		.byte	0x6b
 1150 055b 01       		.byte	0x1
 1151 055c 00000000 		.4byte	.LFB121
 1152 0560 44000000 		.4byte	.LFE121
 1153 0564 AE000000 		.4byte	.LLST5
 1154 0568 01       		.byte	0x1
 1155 0569 07060000 		.4byte	0x607
 1156 056d 19       		.uleb128 0x19
 1157 056e 59000000 		.4byte	.LASF68
 1158 0572 01       		.byte	0x1
 1159 0573 6B       		.byte	0x6b
 1160 0574 77030000 		.4byte	0x377
 1161 0578 CE000000 		.4byte	.LLST6
 1162 057c 1A       		.uleb128 0x1a
 1163 057d 06000000 		.4byte	.LBB4
 1164 0581 0C000000 		.4byte	.LBE4
ARM GAS  /tmp/cc4bFCY5.s 			page 22


 1165 0585 99050000 		.4byte	0x599
 1166 0589 1B       		.uleb128 0x1b
 1167 058a 746D7000 		.ascii	"tmp\000"
 1168 058e 01       		.byte	0x1
 1169 058f 6F       		.byte	0x6f
 1170 0590 6C000000 		.4byte	0x6c
 1171 0594 02010000 		.4byte	.LLST7
 1172 0598 00       		.byte	0
 1173 0599 1A       		.uleb128 0x1a
 1174 059a 2C000000 		.4byte	.LBB5
 1175 059e 34000000 		.4byte	.LBE5
 1176 05a2 B6050000 		.4byte	0x5b6
 1177 05a6 1B       		.uleb128 0x1b
 1178 05a7 746D7000 		.ascii	"tmp\000"
 1179 05ab 01       		.byte	0x1
 1180 05ac 74       		.byte	0x74
 1181 05ad 6C000000 		.4byte	0x6c
 1182 05b1 15010000 		.4byte	.LLST8
 1183 05b5 00       		.byte	0
 1184 05b6 1C       		.uleb128 0x1c
 1185 05b7 10000000 		.4byte	.LVL19
 1186 05bb 88070000 		.4byte	0x788
 1187 05bf 1D       		.uleb128 0x1d
 1188 05c0 1E000000 		.4byte	.LVL20
 1189 05c4 92070000 		.4byte	0x792
 1190 05c8 D6050000 		.4byte	0x5d6
 1191 05cc 1E       		.uleb128 0x1e
 1192 05cd 01       		.byte	0x1
 1193 05ce 50       		.byte	0x50
 1194 05cf 05       		.byte	0x5
 1195 05d0 03       		.byte	0x3
 1196 05d1 2C000000 		.4byte	.LC3
 1197 05d5 00       		.byte	0
 1198 05d6 1D       		.uleb128 0x1d
 1199 05d7 24000000 		.4byte	.LVL21
 1200 05db C5070000 		.4byte	0x7c5
 1201 05df EA050000 		.4byte	0x5ea
 1202 05e3 1E       		.uleb128 0x1e
 1203 05e4 01       		.byte	0x1
 1204 05e5 50       		.byte	0x50
 1205 05e6 02       		.byte	0x2
 1206 05e7 74       		.byte	0x74
 1207 05e8 00       		.sleb128 0
 1208 05e9 00       		.byte	0
 1209 05ea 1C       		.uleb128 0x1c
 1210 05eb 2C000000 		.4byte	.LVL22
 1211 05ef BB070000 		.4byte	0x7bb
 1212 05f3 1F       		.uleb128 0x1f
 1213 05f4 3A000000 		.4byte	.LVL27
 1214 05f8 92070000 		.4byte	0x792
 1215 05fc 1E       		.uleb128 0x1e
 1216 05fd 01       		.byte	0x1
 1217 05fe 50       		.byte	0x50
 1218 05ff 05       		.byte	0x5
 1219 0600 03       		.byte	0x3
 1220 0601 20000000 		.4byte	.LC2
 1221 0605 00       		.byte	0
ARM GAS  /tmp/cc4bFCY5.s 			page 23


 1222 0606 00       		.byte	0
 1223 0607 18       		.uleb128 0x18
 1224 0608 01       		.byte	0x1
 1225 0609 F5010000 		.4byte	.LASF70
 1226 060d 01       		.byte	0x1
 1227 060e 7E       		.byte	0x7e
 1228 060f 01       		.byte	0x1
 1229 0610 00000000 		.4byte	.LFB122
 1230 0614 44000000 		.4byte	.LFE122
 1231 0618 28010000 		.4byte	.LLST9
 1232 061c 01       		.byte	0x1
 1233 061d BB060000 		.4byte	0x6bb
 1234 0621 19       		.uleb128 0x19
 1235 0622 59000000 		.4byte	.LASF68
 1236 0626 01       		.byte	0x1
 1237 0627 7E       		.byte	0x7e
 1238 0628 77030000 		.4byte	0x377
 1239 062c 48010000 		.4byte	.LLST10
 1240 0630 1A       		.uleb128 0x1a
 1241 0631 06000000 		.4byte	.LBB6
 1242 0635 0C000000 		.4byte	.LBE6
 1243 0639 4D060000 		.4byte	0x64d
 1244 063d 1B       		.uleb128 0x1b
 1245 063e 746D7000 		.ascii	"tmp\000"
 1246 0642 01       		.byte	0x1
 1247 0643 82       		.byte	0x82
 1248 0644 6C000000 		.4byte	0x6c
 1249 0648 7C010000 		.4byte	.LLST11
 1250 064c 00       		.byte	0
 1251 064d 1A       		.uleb128 0x1a
 1252 064e 2A000000 		.4byte	.LBB7
 1253 0652 32000000 		.4byte	.LBE7
 1254 0656 6A060000 		.4byte	0x66a
 1255 065a 1B       		.uleb128 0x1b
 1256 065b 746D7000 		.ascii	"tmp\000"
 1257 065f 01       		.byte	0x1
 1258 0660 86       		.byte	0x86
 1259 0661 6C000000 		.4byte	0x6c
 1260 0665 8F010000 		.4byte	.LLST12
 1261 0669 00       		.byte	0
 1262 066a 1C       		.uleb128 0x1c
 1263 066b 10000000 		.4byte	.LVL32
 1264 066f 88070000 		.4byte	0x788
 1265 0673 1D       		.uleb128 0x1d
 1266 0674 1C000000 		.4byte	.LVL33
 1267 0678 92070000 		.4byte	0x792
 1268 067c 8A060000 		.4byte	0x68a
 1269 0680 1E       		.uleb128 0x1e
 1270 0681 01       		.byte	0x1
 1271 0682 50       		.byte	0x50
 1272 0683 05       		.byte	0x5
 1273 0684 03       		.byte	0x3
 1274 0685 4C000000 		.4byte	.LC5
 1275 0689 00       		.byte	0
 1276 068a 1D       		.uleb128 0x1d
 1277 068b 22000000 		.4byte	.LVL34
 1278 068f DA070000 		.4byte	0x7da
ARM GAS  /tmp/cc4bFCY5.s 			page 24


 1279 0693 9E060000 		.4byte	0x69e
 1280 0697 1E       		.uleb128 0x1e
 1281 0698 01       		.byte	0x1
 1282 0699 50       		.byte	0x50
 1283 069a 02       		.byte	0x2
 1284 069b 74       		.byte	0x74
 1285 069c 00       		.sleb128 0
 1286 069d 00       		.byte	0
 1287 069e 1C       		.uleb128 0x1c
 1288 069f 2A000000 		.4byte	.LVL35
 1289 06a3 BB070000 		.4byte	0x7bb
 1290 06a7 1F       		.uleb128 0x1f
 1291 06a8 38000000 		.4byte	.LVL40
 1292 06ac 92070000 		.4byte	0x792
 1293 06b0 1E       		.uleb128 0x1e
 1294 06b1 01       		.byte	0x1
 1295 06b2 50       		.byte	0x50
 1296 06b3 05       		.byte	0x5
 1297 06b4 03       		.byte	0x3
 1298 06b5 3C000000 		.4byte	.LC4
 1299 06b9 00       		.byte	0
 1300 06ba 00       		.byte	0
 1301 06bb 18       		.uleb128 0x18
 1302 06bc 01       		.byte	0x1
 1303 06bd D6020000 		.4byte	.LASF71
 1304 06c1 01       		.byte	0x1
 1305 06c2 90       		.byte	0x90
 1306 06c3 01       		.byte	0x1
 1307 06c4 00000000 		.4byte	.LFB123
 1308 06c8 44000000 		.4byte	.LFE123
 1309 06cc A2010000 		.4byte	.LLST13
 1310 06d0 01       		.byte	0x1
 1311 06d1 6F070000 		.4byte	0x76f
 1312 06d5 19       		.uleb128 0x19
 1313 06d6 59000000 		.4byte	.LASF68
 1314 06da 01       		.byte	0x1
 1315 06db 90       		.byte	0x90
 1316 06dc 77030000 		.4byte	0x377
 1317 06e0 C2010000 		.4byte	.LLST14
 1318 06e4 1A       		.uleb128 0x1a
 1319 06e5 06000000 		.4byte	.LBB8
 1320 06e9 0C000000 		.4byte	.LBE8
 1321 06ed 01070000 		.4byte	0x701
 1322 06f1 1B       		.uleb128 0x1b
 1323 06f2 746D7000 		.ascii	"tmp\000"
 1324 06f6 01       		.byte	0x1
 1325 06f7 94       		.byte	0x94
 1326 06f8 6C000000 		.4byte	0x6c
 1327 06fc F6010000 		.4byte	.LLST15
 1328 0700 00       		.byte	0
 1329 0701 1A       		.uleb128 0x1a
 1330 0702 2C000000 		.4byte	.LBB9
 1331 0706 34000000 		.4byte	.LBE9
 1332 070a 1E070000 		.4byte	0x71e
 1333 070e 1B       		.uleb128 0x1b
 1334 070f 746D7000 		.ascii	"tmp\000"
 1335 0713 01       		.byte	0x1
ARM GAS  /tmp/cc4bFCY5.s 			page 25


 1336 0714 9A       		.byte	0x9a
 1337 0715 6C000000 		.4byte	0x6c
 1338 0719 09020000 		.4byte	.LLST16
 1339 071d 00       		.byte	0
 1340 071e 1C       		.uleb128 0x1c
 1341 071f 10000000 		.4byte	.LVL45
 1342 0723 88070000 		.4byte	0x788
 1343 0727 1D       		.uleb128 0x1d
 1344 0728 1E000000 		.4byte	.LVL46
 1345 072c 92070000 		.4byte	0x792
 1346 0730 3E070000 		.4byte	0x73e
 1347 0734 1E       		.uleb128 0x1e
 1348 0735 01       		.byte	0x1
 1349 0736 50       		.byte	0x50
 1350 0737 05       		.byte	0x5
 1351 0738 03       		.byte	0x3
 1352 0739 6C000000 		.4byte	.LC7
 1353 073d 00       		.byte	0
 1354 073e 1D       		.uleb128 0x1d
 1355 073f 24000000 		.4byte	.LVL47
 1356 0743 EF070000 		.4byte	0x7ef
 1357 0747 52070000 		.4byte	0x752
 1358 074b 1E       		.uleb128 0x1e
 1359 074c 01       		.byte	0x1
 1360 074d 50       		.byte	0x50
 1361 074e 02       		.byte	0x2
 1362 074f 74       		.byte	0x74
 1363 0750 00       		.sleb128 0
 1364 0751 00       		.byte	0
 1365 0752 1C       		.uleb128 0x1c
 1366 0753 2C000000 		.4byte	.LVL48
 1367 0757 BB070000 		.4byte	0x7bb
 1368 075b 1F       		.uleb128 0x1f
 1369 075c 3A000000 		.4byte	.LVL53
 1370 0760 92070000 		.4byte	0x792
 1371 0764 1E       		.uleb128 0x1e
 1372 0765 01       		.byte	0x1
 1373 0766 50       		.byte	0x50
 1374 0767 05       		.byte	0x5
 1375 0768 03       		.byte	0x3
 1376 0769 5C000000 		.4byte	.LC6
 1377 076d 00       		.byte	0
 1378 076e 00       		.byte	0
 1379 076f 20       		.uleb128 0x20
 1380 0770 8E030000 		.4byte	.LASF81
 1381 0774 07       		.byte	0x7
 1382 0775 9806     		.2byte	0x698
 1383 0777 BF000000 		.4byte	0xbf
 1384 077b 01       		.byte	0x1
 1385 077c 01       		.byte	0x1
 1386 077d 21       		.uleb128 0x21
 1387 077e 01       		.byte	0x1
 1388 077f 1A020000 		.4byte	.LASF72
 1389 0783 05       		.byte	0x5
 1390 0784 6D01     		.2byte	0x16d
 1391 0786 01       		.byte	0x1
 1392 0787 01       		.byte	0x1
ARM GAS  /tmp/cc4bFCY5.s 			page 26


 1393 0788 22       		.uleb128 0x22
 1394 0789 01       		.byte	0x1
 1395 078a 0B020000 		.4byte	.LASF73
 1396 078e 06       		.byte	0x6
 1397 078f E0       		.byte	0xe0
 1398 0790 01       		.byte	0x1
 1399 0791 01       		.byte	0x1
 1400 0792 23       		.uleb128 0x23
 1401 0793 01       		.byte	0x1
 1402 0794 AA010000 		.4byte	.LASF74
 1403 0798 06       		.byte	0x6
 1404 0799 EF       		.byte	0xef
 1405 079a 01       		.byte	0x1
 1406 079b 01       		.byte	0x1
 1407 079c A6070000 		.4byte	0x7a6
 1408 07a0 13       		.uleb128 0x13
 1409 07a1 98000000 		.4byte	0x98
 1410 07a5 00       		.byte	0
 1411 07a6 24       		.uleb128 0x24
 1412 07a7 01       		.byte	0x1
 1413 07a8 30000000 		.4byte	.LASF75
 1414 07ac 05       		.byte	0x5
 1415 07ad 6E01     		.2byte	0x16e
 1416 07af 01       		.byte	0x1
 1417 07b0 01       		.byte	0x1
 1418 07b1 BB070000 		.4byte	0x7bb
 1419 07b5 13       		.uleb128 0x13
 1420 07b6 77030000 		.4byte	0x377
 1421 07ba 00       		.byte	0
 1422 07bb 22       		.uleb128 0x22
 1423 07bc 01       		.byte	0x1
 1424 07bd DB010000 		.4byte	.LASF76
 1425 07c1 06       		.byte	0x6
 1426 07c2 E1       		.byte	0xe1
 1427 07c3 01       		.byte	0x1
 1428 07c4 01       		.byte	0x1
 1429 07c5 24       		.uleb128 0x24
 1430 07c6 01       		.byte	0x1
 1431 07c7 08000000 		.4byte	.LASF77
 1432 07cb 05       		.byte	0x5
 1433 07cc 6F01     		.2byte	0x16f
 1434 07ce 01       		.byte	0x1
 1435 07cf 01       		.byte	0x1
 1436 07d0 DA070000 		.4byte	0x7da
 1437 07d4 13       		.uleb128 0x13
 1438 07d5 77030000 		.4byte	0x377
 1439 07d9 00       		.byte	0
 1440 07da 24       		.uleb128 0x24
 1441 07db 01       		.byte	0x1
 1442 07dc 67000000 		.4byte	.LASF78
 1443 07e0 05       		.byte	0x5
 1444 07e1 7001     		.2byte	0x170
 1445 07e3 01       		.byte	0x1
 1446 07e4 01       		.byte	0x1
 1447 07e5 EF070000 		.4byte	0x7ef
 1448 07e9 13       		.uleb128 0x13
 1449 07ea 77030000 		.4byte	0x377
ARM GAS  /tmp/cc4bFCY5.s 			page 27


 1450 07ee 00       		.byte	0
 1451 07ef 25       		.uleb128 0x25
 1452 07f0 01       		.byte	0x1
 1453 07f1 7B000000 		.4byte	.LASF82
 1454 07f5 05       		.byte	0x5
 1455 07f6 7101     		.2byte	0x171
 1456 07f8 01       		.byte	0x1
 1457 07f9 01       		.byte	0x1
 1458 07fa 13       		.uleb128 0x13
 1459 07fb 77030000 		.4byte	0x377
 1460 07ff 00       		.byte	0
 1461 0800 00       		.byte	0
 1462              		.section	.debug_abbrev,"",%progbits
 1463              	.Ldebug_abbrev0:
 1464 0000 01       		.uleb128 0x1
 1465 0001 11       		.uleb128 0x11
 1466 0002 01       		.byte	0x1
 1467 0003 25       		.uleb128 0x25
 1468 0004 0E       		.uleb128 0xe
 1469 0005 13       		.uleb128 0x13
 1470 0006 0B       		.uleb128 0xb
 1471 0007 03       		.uleb128 0x3
 1472 0008 0E       		.uleb128 0xe
 1473 0009 55       		.uleb128 0x55
 1474 000a 06       		.uleb128 0x6
 1475 000b 11       		.uleb128 0x11
 1476 000c 01       		.uleb128 0x1
 1477 000d 52       		.uleb128 0x52
 1478 000e 01       		.uleb128 0x1
 1479 000f 10       		.uleb128 0x10
 1480 0010 06       		.uleb128 0x6
 1481 0011 00       		.byte	0
 1482 0012 00       		.byte	0
 1483 0013 02       		.uleb128 0x2
 1484 0014 24       		.uleb128 0x24
 1485 0015 00       		.byte	0
 1486 0016 0B       		.uleb128 0xb
 1487 0017 0B       		.uleb128 0xb
 1488 0018 3E       		.uleb128 0x3e
 1489 0019 0B       		.uleb128 0xb
 1490 001a 03       		.uleb128 0x3
 1491 001b 08       		.uleb128 0x8
 1492 001c 00       		.byte	0
 1493 001d 00       		.byte	0
 1494 001e 03       		.uleb128 0x3
 1495 001f 24       		.uleb128 0x24
 1496 0020 00       		.byte	0
 1497 0021 0B       		.uleb128 0xb
 1498 0022 0B       		.uleb128 0xb
 1499 0023 3E       		.uleb128 0x3e
 1500 0024 0B       		.uleb128 0xb
 1501 0025 03       		.uleb128 0x3
 1502 0026 0E       		.uleb128 0xe
 1503 0027 00       		.byte	0
 1504 0028 00       		.byte	0
 1505 0029 04       		.uleb128 0x4
 1506 002a 16       		.uleb128 0x16
ARM GAS  /tmp/cc4bFCY5.s 			page 28


 1507 002b 00       		.byte	0
 1508 002c 03       		.uleb128 0x3
 1509 002d 0E       		.uleb128 0xe
 1510 002e 3A       		.uleb128 0x3a
 1511 002f 0B       		.uleb128 0xb
 1512 0030 3B       		.uleb128 0x3b
 1513 0031 0B       		.uleb128 0xb
 1514 0032 49       		.uleb128 0x49
 1515 0033 13       		.uleb128 0x13
 1516 0034 00       		.byte	0
 1517 0035 00       		.byte	0
 1518 0036 05       		.uleb128 0x5
 1519 0037 35       		.uleb128 0x35
 1520 0038 00       		.byte	0
 1521 0039 49       		.uleb128 0x49
 1522 003a 13       		.uleb128 0x13
 1523 003b 00       		.byte	0
 1524 003c 00       		.byte	0
 1525 003d 06       		.uleb128 0x6
 1526 003e 0F       		.uleb128 0xf
 1527 003f 00       		.byte	0
 1528 0040 0B       		.uleb128 0xb
 1529 0041 0B       		.uleb128 0xb
 1530 0042 49       		.uleb128 0x49
 1531 0043 13       		.uleb128 0x13
 1532 0044 00       		.byte	0
 1533 0045 00       		.byte	0
 1534 0046 07       		.uleb128 0x7
 1535 0047 26       		.uleb128 0x26
 1536 0048 00       		.byte	0
 1537 0049 49       		.uleb128 0x49
 1538 004a 13       		.uleb128 0x13
 1539 004b 00       		.byte	0
 1540 004c 00       		.byte	0
 1541 004d 08       		.uleb128 0x8
 1542 004e 01       		.uleb128 0x1
 1543 004f 01       		.byte	0x1
 1544 0050 49       		.uleb128 0x49
 1545 0051 13       		.uleb128 0x13
 1546 0052 01       		.uleb128 0x1
 1547 0053 13       		.uleb128 0x13
 1548 0054 00       		.byte	0
 1549 0055 00       		.byte	0
 1550 0056 09       		.uleb128 0x9
 1551 0057 21       		.uleb128 0x21
 1552 0058 00       		.byte	0
 1553 0059 49       		.uleb128 0x49
 1554 005a 13       		.uleb128 0x13
 1555 005b 2F       		.uleb128 0x2f
 1556 005c 0B       		.uleb128 0xb
 1557 005d 00       		.byte	0
 1558 005e 00       		.byte	0
 1559 005f 0A       		.uleb128 0xa
 1560 0060 13       		.uleb128 0x13
 1561 0061 01       		.byte	0x1
 1562 0062 0B       		.uleb128 0xb
 1563 0063 0B       		.uleb128 0xb
ARM GAS  /tmp/cc4bFCY5.s 			page 29


 1564 0064 3A       		.uleb128 0x3a
 1565 0065 0B       		.uleb128 0xb
 1566 0066 3B       		.uleb128 0x3b
 1567 0067 0B       		.uleb128 0xb
 1568 0068 01       		.uleb128 0x1
 1569 0069 13       		.uleb128 0x13
 1570 006a 00       		.byte	0
 1571 006b 00       		.byte	0
 1572 006c 0B       		.uleb128 0xb
 1573 006d 0D       		.uleb128 0xd
 1574 006e 00       		.byte	0
 1575 006f 03       		.uleb128 0x3
 1576 0070 08       		.uleb128 0x8
 1577 0071 3A       		.uleb128 0x3a
 1578 0072 0B       		.uleb128 0xb
 1579 0073 3B       		.uleb128 0x3b
 1580 0074 0B       		.uleb128 0xb
 1581 0075 49       		.uleb128 0x49
 1582 0076 13       		.uleb128 0x13
 1583 0077 38       		.uleb128 0x38
 1584 0078 0A       		.uleb128 0xa
 1585 0079 00       		.byte	0
 1586 007a 00       		.byte	0
 1587 007b 0C       		.uleb128 0xc
 1588 007c 0D       		.uleb128 0xd
 1589 007d 00       		.byte	0
 1590 007e 03       		.uleb128 0x3
 1591 007f 0E       		.uleb128 0xe
 1592 0080 3A       		.uleb128 0x3a
 1593 0081 0B       		.uleb128 0xb
 1594 0082 3B       		.uleb128 0x3b
 1595 0083 0B       		.uleb128 0xb
 1596 0084 49       		.uleb128 0x49
 1597 0085 13       		.uleb128 0x13
 1598 0086 38       		.uleb128 0x38
 1599 0087 0A       		.uleb128 0xa
 1600 0088 00       		.byte	0
 1601 0089 00       		.byte	0
 1602 008a 0D       		.uleb128 0xd
 1603 008b 04       		.uleb128 0x4
 1604 008c 01       		.byte	0x1
 1605 008d 0B       		.uleb128 0xb
 1606 008e 0B       		.uleb128 0xb
 1607 008f 3A       		.uleb128 0x3a
 1608 0090 0B       		.uleb128 0xb
 1609 0091 3B       		.uleb128 0x3b
 1610 0092 0B       		.uleb128 0xb
 1611 0093 01       		.uleb128 0x1
 1612 0094 13       		.uleb128 0x13
 1613 0095 00       		.byte	0
 1614 0096 00       		.byte	0
 1615 0097 0E       		.uleb128 0xe
 1616 0098 28       		.uleb128 0x28
 1617 0099 00       		.byte	0
 1618 009a 03       		.uleb128 0x3
 1619 009b 0E       		.uleb128 0xe
 1620 009c 1C       		.uleb128 0x1c
ARM GAS  /tmp/cc4bFCY5.s 			page 30


 1621 009d 0D       		.uleb128 0xd
 1622 009e 00       		.byte	0
 1623 009f 00       		.byte	0
 1624 00a0 0F       		.uleb128 0xf
 1625 00a1 13       		.uleb128 0x13
 1626 00a2 01       		.byte	0x1
 1627 00a3 03       		.uleb128 0x3
 1628 00a4 0E       		.uleb128 0xe
 1629 00a5 0B       		.uleb128 0xb
 1630 00a6 0B       		.uleb128 0xb
 1631 00a7 3A       		.uleb128 0x3a
 1632 00a8 0B       		.uleb128 0xb
 1633 00a9 3B       		.uleb128 0x3b
 1634 00aa 05       		.uleb128 0x5
 1635 00ab 01       		.uleb128 0x1
 1636 00ac 13       		.uleb128 0x13
 1637 00ad 00       		.byte	0
 1638 00ae 00       		.byte	0
 1639 00af 10       		.uleb128 0x10
 1640 00b0 0D       		.uleb128 0xd
 1641 00b1 00       		.byte	0
 1642 00b2 03       		.uleb128 0x3
 1643 00b3 0E       		.uleb128 0xe
 1644 00b4 3A       		.uleb128 0x3a
 1645 00b5 0B       		.uleb128 0xb
 1646 00b6 3B       		.uleb128 0x3b
 1647 00b7 05       		.uleb128 0x5
 1648 00b8 49       		.uleb128 0x49
 1649 00b9 13       		.uleb128 0x13
 1650 00ba 38       		.uleb128 0x38
 1651 00bb 0A       		.uleb128 0xa
 1652 00bc 00       		.byte	0
 1653 00bd 00       		.byte	0
 1654 00be 11       		.uleb128 0x11
 1655 00bf 0D       		.uleb128 0xd
 1656 00c0 00       		.byte	0
 1657 00c1 03       		.uleb128 0x3
 1658 00c2 08       		.uleb128 0x8
 1659 00c3 3A       		.uleb128 0x3a
 1660 00c4 0B       		.uleb128 0xb
 1661 00c5 3B       		.uleb128 0x3b
 1662 00c6 05       		.uleb128 0x5
 1663 00c7 49       		.uleb128 0x49
 1664 00c8 13       		.uleb128 0x13
 1665 00c9 38       		.uleb128 0x38
 1666 00ca 0A       		.uleb128 0xa
 1667 00cb 00       		.byte	0
 1668 00cc 00       		.byte	0
 1669 00cd 12       		.uleb128 0x12
 1670 00ce 15       		.uleb128 0x15
 1671 00cf 01       		.byte	0x1
 1672 00d0 27       		.uleb128 0x27
 1673 00d1 0C       		.uleb128 0xc
 1674 00d2 01       		.uleb128 0x1
 1675 00d3 13       		.uleb128 0x13
 1676 00d4 00       		.byte	0
 1677 00d5 00       		.byte	0
ARM GAS  /tmp/cc4bFCY5.s 			page 31


 1678 00d6 13       		.uleb128 0x13
 1679 00d7 05       		.uleb128 0x5
 1680 00d8 00       		.byte	0
 1681 00d9 49       		.uleb128 0x49
 1682 00da 13       		.uleb128 0x13
 1683 00db 00       		.byte	0
 1684 00dc 00       		.byte	0
 1685 00dd 14       		.uleb128 0x14
 1686 00de 16       		.uleb128 0x16
 1687 00df 00       		.byte	0
 1688 00e0 03       		.uleb128 0x3
 1689 00e1 0E       		.uleb128 0xe
 1690 00e2 3A       		.uleb128 0x3a
 1691 00e3 0B       		.uleb128 0xb
 1692 00e4 3B       		.uleb128 0x3b
 1693 00e5 05       		.uleb128 0x5
 1694 00e6 49       		.uleb128 0x49
 1695 00e7 13       		.uleb128 0x13
 1696 00e8 00       		.byte	0
 1697 00e9 00       		.byte	0
 1698 00ea 15       		.uleb128 0x15
 1699 00eb 2E       		.uleb128 0x2e
 1700 00ec 01       		.byte	0x1
 1701 00ed 3F       		.uleb128 0x3f
 1702 00ee 0C       		.uleb128 0xc
 1703 00ef 03       		.uleb128 0x3
 1704 00f0 0E       		.uleb128 0xe
 1705 00f1 3A       		.uleb128 0x3a
 1706 00f2 0B       		.uleb128 0xb
 1707 00f3 3B       		.uleb128 0x3b
 1708 00f4 0B       		.uleb128 0xb
 1709 00f5 27       		.uleb128 0x27
 1710 00f6 0C       		.uleb128 0xc
 1711 00f7 11       		.uleb128 0x11
 1712 00f8 01       		.uleb128 0x1
 1713 00f9 12       		.uleb128 0x12
 1714 00fa 01       		.uleb128 0x1
 1715 00fb 40       		.uleb128 0x40
 1716 00fc 0A       		.uleb128 0xa
 1717 00fd 9742     		.uleb128 0x2117
 1718 00ff 0C       		.uleb128 0xc
 1719 0100 01       		.uleb128 0x1
 1720 0101 13       		.uleb128 0x13
 1721 0102 00       		.byte	0
 1722 0103 00       		.byte	0
 1723 0104 16       		.uleb128 0x16
 1724 0105 898201   		.uleb128 0x4109
 1725 0108 00       		.byte	0
 1726 0109 11       		.uleb128 0x11
 1727 010a 01       		.uleb128 0x1
 1728 010b 9542     		.uleb128 0x2115
 1729 010d 0C       		.uleb128 0xc
 1730 010e 31       		.uleb128 0x31
 1731 010f 13       		.uleb128 0x13
 1732 0110 00       		.byte	0
 1733 0111 00       		.byte	0
 1734 0112 17       		.uleb128 0x17
ARM GAS  /tmp/cc4bFCY5.s 			page 32


 1735 0113 05       		.uleb128 0x5
 1736 0114 00       		.byte	0
 1737 0115 03       		.uleb128 0x3
 1738 0116 0E       		.uleb128 0xe
 1739 0117 3A       		.uleb128 0x3a
 1740 0118 0B       		.uleb128 0xb
 1741 0119 3B       		.uleb128 0x3b
 1742 011a 0B       		.uleb128 0xb
 1743 011b 49       		.uleb128 0x49
 1744 011c 13       		.uleb128 0x13
 1745 011d 02       		.uleb128 0x2
 1746 011e 0A       		.uleb128 0xa
 1747 011f 00       		.byte	0
 1748 0120 00       		.byte	0
 1749 0121 18       		.uleb128 0x18
 1750 0122 2E       		.uleb128 0x2e
 1751 0123 01       		.byte	0x1
 1752 0124 3F       		.uleb128 0x3f
 1753 0125 0C       		.uleb128 0xc
 1754 0126 03       		.uleb128 0x3
 1755 0127 0E       		.uleb128 0xe
 1756 0128 3A       		.uleb128 0x3a
 1757 0129 0B       		.uleb128 0xb
 1758 012a 3B       		.uleb128 0x3b
 1759 012b 0B       		.uleb128 0xb
 1760 012c 27       		.uleb128 0x27
 1761 012d 0C       		.uleb128 0xc
 1762 012e 11       		.uleb128 0x11
 1763 012f 01       		.uleb128 0x1
 1764 0130 12       		.uleb128 0x12
 1765 0131 01       		.uleb128 0x1
 1766 0132 40       		.uleb128 0x40
 1767 0133 06       		.uleb128 0x6
 1768 0134 9742     		.uleb128 0x2117
 1769 0136 0C       		.uleb128 0xc
 1770 0137 01       		.uleb128 0x1
 1771 0138 13       		.uleb128 0x13
 1772 0139 00       		.byte	0
 1773 013a 00       		.byte	0
 1774 013b 19       		.uleb128 0x19
 1775 013c 05       		.uleb128 0x5
 1776 013d 00       		.byte	0
 1777 013e 03       		.uleb128 0x3
 1778 013f 0E       		.uleb128 0xe
 1779 0140 3A       		.uleb128 0x3a
 1780 0141 0B       		.uleb128 0xb
 1781 0142 3B       		.uleb128 0x3b
 1782 0143 0B       		.uleb128 0xb
 1783 0144 49       		.uleb128 0x49
 1784 0145 13       		.uleb128 0x13
 1785 0146 02       		.uleb128 0x2
 1786 0147 06       		.uleb128 0x6
 1787 0148 00       		.byte	0
 1788 0149 00       		.byte	0
 1789 014a 1A       		.uleb128 0x1a
 1790 014b 0B       		.uleb128 0xb
 1791 014c 01       		.byte	0x1
ARM GAS  /tmp/cc4bFCY5.s 			page 33


 1792 014d 11       		.uleb128 0x11
 1793 014e 01       		.uleb128 0x1
 1794 014f 12       		.uleb128 0x12
 1795 0150 01       		.uleb128 0x1
 1796 0151 01       		.uleb128 0x1
 1797 0152 13       		.uleb128 0x13
 1798 0153 00       		.byte	0
 1799 0154 00       		.byte	0
 1800 0155 1B       		.uleb128 0x1b
 1801 0156 34       		.uleb128 0x34
 1802 0157 00       		.byte	0
 1803 0158 03       		.uleb128 0x3
 1804 0159 08       		.uleb128 0x8
 1805 015a 3A       		.uleb128 0x3a
 1806 015b 0B       		.uleb128 0xb
 1807 015c 3B       		.uleb128 0x3b
 1808 015d 0B       		.uleb128 0xb
 1809 015e 49       		.uleb128 0x49
 1810 015f 13       		.uleb128 0x13
 1811 0160 02       		.uleb128 0x2
 1812 0161 06       		.uleb128 0x6
 1813 0162 00       		.byte	0
 1814 0163 00       		.byte	0
 1815 0164 1C       		.uleb128 0x1c
 1816 0165 898201   		.uleb128 0x4109
 1817 0168 00       		.byte	0
 1818 0169 11       		.uleb128 0x11
 1819 016a 01       		.uleb128 0x1
 1820 016b 31       		.uleb128 0x31
 1821 016c 13       		.uleb128 0x13
 1822 016d 00       		.byte	0
 1823 016e 00       		.byte	0
 1824 016f 1D       		.uleb128 0x1d
 1825 0170 898201   		.uleb128 0x4109
 1826 0173 01       		.byte	0x1
 1827 0174 11       		.uleb128 0x11
 1828 0175 01       		.uleb128 0x1
 1829 0176 31       		.uleb128 0x31
 1830 0177 13       		.uleb128 0x13
 1831 0178 01       		.uleb128 0x1
 1832 0179 13       		.uleb128 0x13
 1833 017a 00       		.byte	0
 1834 017b 00       		.byte	0
 1835 017c 1E       		.uleb128 0x1e
 1836 017d 8A8201   		.uleb128 0x410a
 1837 0180 00       		.byte	0
 1838 0181 02       		.uleb128 0x2
 1839 0182 0A       		.uleb128 0xa
 1840 0183 9142     		.uleb128 0x2111
 1841 0185 0A       		.uleb128 0xa
 1842 0186 00       		.byte	0
 1843 0187 00       		.byte	0
 1844 0188 1F       		.uleb128 0x1f
 1845 0189 898201   		.uleb128 0x4109
 1846 018c 01       		.byte	0x1
 1847 018d 11       		.uleb128 0x11
 1848 018e 01       		.uleb128 0x1
ARM GAS  /tmp/cc4bFCY5.s 			page 34


 1849 018f 31       		.uleb128 0x31
 1850 0190 13       		.uleb128 0x13
 1851 0191 00       		.byte	0
 1852 0192 00       		.byte	0
 1853 0193 20       		.uleb128 0x20
 1854 0194 34       		.uleb128 0x34
 1855 0195 00       		.byte	0
 1856 0196 03       		.uleb128 0x3
 1857 0197 0E       		.uleb128 0xe
 1858 0198 3A       		.uleb128 0x3a
 1859 0199 0B       		.uleb128 0xb
 1860 019a 3B       		.uleb128 0x3b
 1861 019b 05       		.uleb128 0x5
 1862 019c 49       		.uleb128 0x49
 1863 019d 13       		.uleb128 0x13
 1864 019e 3F       		.uleb128 0x3f
 1865 019f 0C       		.uleb128 0xc
 1866 01a0 3C       		.uleb128 0x3c
 1867 01a1 0C       		.uleb128 0xc
 1868 01a2 00       		.byte	0
 1869 01a3 00       		.byte	0
 1870 01a4 21       		.uleb128 0x21
 1871 01a5 2E       		.uleb128 0x2e
 1872 01a6 00       		.byte	0
 1873 01a7 3F       		.uleb128 0x3f
 1874 01a8 0C       		.uleb128 0xc
 1875 01a9 03       		.uleb128 0x3
 1876 01aa 0E       		.uleb128 0xe
 1877 01ab 3A       		.uleb128 0x3a
 1878 01ac 0B       		.uleb128 0xb
 1879 01ad 3B       		.uleb128 0x3b
 1880 01ae 05       		.uleb128 0x5
 1881 01af 27       		.uleb128 0x27
 1882 01b0 0C       		.uleb128 0xc
 1883 01b1 3C       		.uleb128 0x3c
 1884 01b2 0C       		.uleb128 0xc
 1885 01b3 00       		.byte	0
 1886 01b4 00       		.byte	0
 1887 01b5 22       		.uleb128 0x22
 1888 01b6 2E       		.uleb128 0x2e
 1889 01b7 00       		.byte	0
 1890 01b8 3F       		.uleb128 0x3f
 1891 01b9 0C       		.uleb128 0xc
 1892 01ba 03       		.uleb128 0x3
 1893 01bb 0E       		.uleb128 0xe
 1894 01bc 3A       		.uleb128 0x3a
 1895 01bd 0B       		.uleb128 0xb
 1896 01be 3B       		.uleb128 0x3b
 1897 01bf 0B       		.uleb128 0xb
 1898 01c0 27       		.uleb128 0x27
 1899 01c1 0C       		.uleb128 0xc
 1900 01c2 3C       		.uleb128 0x3c
 1901 01c3 0C       		.uleb128 0xc
 1902 01c4 00       		.byte	0
 1903 01c5 00       		.byte	0
 1904 01c6 23       		.uleb128 0x23
 1905 01c7 2E       		.uleb128 0x2e
ARM GAS  /tmp/cc4bFCY5.s 			page 35


 1906 01c8 01       		.byte	0x1
 1907 01c9 3F       		.uleb128 0x3f
 1908 01ca 0C       		.uleb128 0xc
 1909 01cb 03       		.uleb128 0x3
 1910 01cc 0E       		.uleb128 0xe
 1911 01cd 3A       		.uleb128 0x3a
 1912 01ce 0B       		.uleb128 0xb
 1913 01cf 3B       		.uleb128 0x3b
 1914 01d0 0B       		.uleb128 0xb
 1915 01d1 27       		.uleb128 0x27
 1916 01d2 0C       		.uleb128 0xc
 1917 01d3 3C       		.uleb128 0x3c
 1918 01d4 0C       		.uleb128 0xc
 1919 01d5 01       		.uleb128 0x1
 1920 01d6 13       		.uleb128 0x13
 1921 01d7 00       		.byte	0
 1922 01d8 00       		.byte	0
 1923 01d9 24       		.uleb128 0x24
 1924 01da 2E       		.uleb128 0x2e
 1925 01db 01       		.byte	0x1
 1926 01dc 3F       		.uleb128 0x3f
 1927 01dd 0C       		.uleb128 0xc
 1928 01de 03       		.uleb128 0x3
 1929 01df 0E       		.uleb128 0xe
 1930 01e0 3A       		.uleb128 0x3a
 1931 01e1 0B       		.uleb128 0xb
 1932 01e2 3B       		.uleb128 0x3b
 1933 01e3 05       		.uleb128 0x5
 1934 01e4 27       		.uleb128 0x27
 1935 01e5 0C       		.uleb128 0xc
 1936 01e6 3C       		.uleb128 0x3c
 1937 01e7 0C       		.uleb128 0xc
 1938 01e8 01       		.uleb128 0x1
 1939 01e9 13       		.uleb128 0x13
 1940 01ea 00       		.byte	0
 1941 01eb 00       		.byte	0
 1942 01ec 25       		.uleb128 0x25
 1943 01ed 2E       		.uleb128 0x2e
 1944 01ee 01       		.byte	0x1
 1945 01ef 3F       		.uleb128 0x3f
 1946 01f0 0C       		.uleb128 0xc
 1947 01f1 03       		.uleb128 0x3
 1948 01f2 0E       		.uleb128 0xe
 1949 01f3 3A       		.uleb128 0x3a
 1950 01f4 0B       		.uleb128 0xb
 1951 01f5 3B       		.uleb128 0x3b
 1952 01f6 05       		.uleb128 0x5
 1953 01f7 27       		.uleb128 0x27
 1954 01f8 0C       		.uleb128 0xc
 1955 01f9 3C       		.uleb128 0x3c
 1956 01fa 0C       		.uleb128 0xc
 1957 01fb 00       		.byte	0
 1958 01fc 00       		.byte	0
 1959 01fd 00       		.byte	0
 1960              		.section	.debug_loc,"",%progbits
 1961              	.Ldebug_loc0:
 1962              	.LLST0:
ARM GAS  /tmp/cc4bFCY5.s 			page 36


 1963 0000 00000000 		.4byte	.LFB120
 1964 0004 02000000 		.4byte	.LCFI0
 1965 0008 0200     		.2byte	0x2
 1966 000a 7D       		.byte	0x7d
 1967 000b 00       		.sleb128 0
 1968 000c 02000000 		.4byte	.LCFI0
 1969 0010 4C000000 		.4byte	.LFE120
 1970 0014 0200     		.2byte	0x2
 1971 0016 7D       		.byte	0x7d
 1972 0017 10       		.sleb128 16
 1973 0018 00000000 		.4byte	0
 1974 001c 00000000 		.4byte	0
 1975              	.LLST1:
 1976 0020 00000000 		.4byte	.LVL2
 1977 0024 0A000000 		.4byte	.LVL3
 1978 0028 0100     		.2byte	0x1
 1979 002a 50       		.byte	0x50
 1980 002b 0A000000 		.4byte	.LVL3
 1981 002f 3A000000 		.4byte	.LVL12
 1982 0033 0100     		.2byte	0x1
 1983 0035 54       		.byte	0x54
 1984 0036 3A000000 		.4byte	.LVL12
 1985 003a 3C000000 		.4byte	.LVL13
 1986 003e 0100     		.2byte	0x1
 1987 0040 50       		.byte	0x50
 1988 0041 3C000000 		.4byte	.LVL13
 1989 0045 4C000000 		.4byte	.LFE120
 1990 0049 0100     		.2byte	0x1
 1991 004b 54       		.byte	0x54
 1992 004c 00000000 		.4byte	0
 1993 0050 00000000 		.4byte	0
 1994              	.LLST2:
 1995 0054 00000000 		.4byte	.LVL2
 1996 0058 0A000000 		.4byte	.LVL3
 1997 005c 0100     		.2byte	0x1
 1998 005e 51       		.byte	0x51
 1999 005f 0A000000 		.4byte	.LVL3
 2000 0063 3A000000 		.4byte	.LVL12
 2001 0067 0100     		.2byte	0x1
 2002 0069 55       		.byte	0x55
 2003 006a 3A000000 		.4byte	.LVL12
 2004 006e 3F000000 		.4byte	.LVL14-1
 2005 0072 0100     		.2byte	0x1
 2006 0074 51       		.byte	0x51
 2007 0075 3F000000 		.4byte	.LVL14-1
 2008 0079 4C000000 		.4byte	.LFE120
 2009 007d 0100     		.2byte	0x1
 2010 007f 55       		.byte	0x55
 2011 0080 00000000 		.4byte	0
 2012 0084 00000000 		.4byte	0
 2013              	.LLST3:
 2014 0088 10000000 		.4byte	.LVL5
 2015 008c 13000000 		.4byte	.LVL6-1
 2016 0090 0100     		.2byte	0x1
 2017 0092 53       		.byte	0x53
 2018 0093 00000000 		.4byte	0
 2019 0097 00000000 		.4byte	0
ARM GAS  /tmp/cc4bFCY5.s 			page 37


 2020              	.LLST4:
 2021 009b 38000000 		.4byte	.LVL11
 2022 009f 3A000000 		.4byte	.LVL12
 2023 00a3 0100     		.2byte	0x1
 2024 00a5 53       		.byte	0x53
 2025 00a6 00000000 		.4byte	0
 2026 00aa 00000000 		.4byte	0
 2027              	.LLST5:
 2028 00ae 00000000 		.4byte	.LFB121
 2029 00b2 02000000 		.4byte	.LCFI1
 2030 00b6 0200     		.2byte	0x2
 2031 00b8 7D       		.byte	0x7d
 2032 00b9 00       		.sleb128 0
 2033 00ba 02000000 		.4byte	.LCFI1
 2034 00be 44000000 		.4byte	.LFE121
 2035 00c2 0200     		.2byte	0x2
 2036 00c4 7D       		.byte	0x7d
 2037 00c5 08       		.sleb128 8
 2038 00c6 00000000 		.4byte	0
 2039 00ca 00000000 		.4byte	0
 2040              	.LLST6:
 2041 00ce 00000000 		.4byte	.LVL15
 2042 00d2 06000000 		.4byte	.LVL16
 2043 00d6 0100     		.2byte	0x1
 2044 00d8 50       		.byte	0x50
 2045 00d9 06000000 		.4byte	.LVL16
 2046 00dd 34000000 		.4byte	.LVL25
 2047 00e1 0100     		.2byte	0x1
 2048 00e3 54       		.byte	0x54
 2049 00e4 34000000 		.4byte	.LVL25
 2050 00e8 36000000 		.4byte	.LVL26
 2051 00ec 0100     		.2byte	0x1
 2052 00ee 50       		.byte	0x50
 2053 00ef 36000000 		.4byte	.LVL26
 2054 00f3 44000000 		.4byte	.LFE121
 2055 00f7 0100     		.2byte	0x1
 2056 00f9 54       		.byte	0x54
 2057 00fa 00000000 		.4byte	0
 2058 00fe 00000000 		.4byte	0
 2059              	.LLST7:
 2060 0102 0C000000 		.4byte	.LVL18
 2061 0106 0F000000 		.4byte	.LVL19-1
 2062 010a 0100     		.2byte	0x1
 2063 010c 53       		.byte	0x53
 2064 010d 00000000 		.4byte	0
 2065 0111 00000000 		.4byte	0
 2066              	.LLST8:
 2067 0115 32000000 		.4byte	.LVL24
 2068 0119 34000000 		.4byte	.LVL25
 2069 011d 0100     		.2byte	0x1
 2070 011f 53       		.byte	0x53
 2071 0120 00000000 		.4byte	0
 2072 0124 00000000 		.4byte	0
 2073              	.LLST9:
 2074 0128 00000000 		.4byte	.LFB122
 2075 012c 02000000 		.4byte	.LCFI2
 2076 0130 0200     		.2byte	0x2
ARM GAS  /tmp/cc4bFCY5.s 			page 38


 2077 0132 7D       		.byte	0x7d
 2078 0133 00       		.sleb128 0
 2079 0134 02000000 		.4byte	.LCFI2
 2080 0138 44000000 		.4byte	.LFE122
 2081 013c 0200     		.2byte	0x2
 2082 013e 7D       		.byte	0x7d
 2083 013f 08       		.sleb128 8
 2084 0140 00000000 		.4byte	0
 2085 0144 00000000 		.4byte	0
 2086              	.LLST10:
 2087 0148 00000000 		.4byte	.LVL28
 2088 014c 06000000 		.4byte	.LVL29
 2089 0150 0100     		.2byte	0x1
 2090 0152 50       		.byte	0x50
 2091 0153 06000000 		.4byte	.LVL29
 2092 0157 32000000 		.4byte	.LVL38
 2093 015b 0100     		.2byte	0x1
 2094 015d 54       		.byte	0x54
 2095 015e 32000000 		.4byte	.LVL38
 2096 0162 34000000 		.4byte	.LVL39
 2097 0166 0100     		.2byte	0x1
 2098 0168 50       		.byte	0x50
 2099 0169 34000000 		.4byte	.LVL39
 2100 016d 44000000 		.4byte	.LFE122
 2101 0171 0100     		.2byte	0x1
 2102 0173 54       		.byte	0x54
 2103 0174 00000000 		.4byte	0
 2104 0178 00000000 		.4byte	0
 2105              	.LLST11:
 2106 017c 0C000000 		.4byte	.LVL31
 2107 0180 0F000000 		.4byte	.LVL32-1
 2108 0184 0100     		.2byte	0x1
 2109 0186 53       		.byte	0x53
 2110 0187 00000000 		.4byte	0
 2111 018b 00000000 		.4byte	0
 2112              	.LLST12:
 2113 018f 30000000 		.4byte	.LVL37
 2114 0193 32000000 		.4byte	.LVL38
 2115 0197 0100     		.2byte	0x1
 2116 0199 53       		.byte	0x53
 2117 019a 00000000 		.4byte	0
 2118 019e 00000000 		.4byte	0
 2119              	.LLST13:
 2120 01a2 00000000 		.4byte	.LFB123
 2121 01a6 02000000 		.4byte	.LCFI3
 2122 01aa 0200     		.2byte	0x2
 2123 01ac 7D       		.byte	0x7d
 2124 01ad 00       		.sleb128 0
 2125 01ae 02000000 		.4byte	.LCFI3
 2126 01b2 44000000 		.4byte	.LFE123
 2127 01b6 0200     		.2byte	0x2
 2128 01b8 7D       		.byte	0x7d
 2129 01b9 08       		.sleb128 8
 2130 01ba 00000000 		.4byte	0
 2131 01be 00000000 		.4byte	0
 2132              	.LLST14:
 2133 01c2 00000000 		.4byte	.LVL41
ARM GAS  /tmp/cc4bFCY5.s 			page 39


 2134 01c6 06000000 		.4byte	.LVL42
 2135 01ca 0100     		.2byte	0x1
 2136 01cc 50       		.byte	0x50
 2137 01cd 06000000 		.4byte	.LVL42
 2138 01d1 34000000 		.4byte	.LVL51
 2139 01d5 0100     		.2byte	0x1
 2140 01d7 54       		.byte	0x54
 2141 01d8 34000000 		.4byte	.LVL51
 2142 01dc 36000000 		.4byte	.LVL52
 2143 01e0 0100     		.2byte	0x1
 2144 01e2 50       		.byte	0x50
 2145 01e3 36000000 		.4byte	.LVL52
 2146 01e7 44000000 		.4byte	.LFE123
 2147 01eb 0100     		.2byte	0x1
 2148 01ed 54       		.byte	0x54
 2149 01ee 00000000 		.4byte	0
 2150 01f2 00000000 		.4byte	0
 2151              	.LLST15:
 2152 01f6 0C000000 		.4byte	.LVL44
 2153 01fa 0F000000 		.4byte	.LVL45-1
 2154 01fe 0100     		.2byte	0x1
 2155 0200 53       		.byte	0x53
 2156 0201 00000000 		.4byte	0
 2157 0205 00000000 		.4byte	0
 2158              	.LLST16:
 2159 0209 32000000 		.4byte	.LVL50
 2160 020d 34000000 		.4byte	.LVL51
 2161 0211 0100     		.2byte	0x1
 2162 0213 53       		.byte	0x53
 2163 0214 00000000 		.4byte	0
 2164 0218 00000000 		.4byte	0
 2165              		.section	.debug_aranges,"",%progbits
 2166 0000 44000000 		.4byte	0x44
 2167 0004 0200     		.2byte	0x2
 2168 0006 00000000 		.4byte	.Ldebug_info0
 2169 000a 04       		.byte	0x4
 2170 000b 00       		.byte	0
 2171 000c 0000     		.2byte	0
 2172 000e 0000     		.2byte	0
 2173 0010 00000000 		.4byte	.LFB118
 2174 0014 04000000 		.4byte	.LFE118-.LFB118
 2175 0018 00000000 		.4byte	.LFB119
 2176 001c 0A000000 		.4byte	.LFE119-.LFB119
 2177 0020 00000000 		.4byte	.LFB120
 2178 0024 4C000000 		.4byte	.LFE120-.LFB120
 2179 0028 00000000 		.4byte	.LFB121
 2180 002c 44000000 		.4byte	.LFE121-.LFB121
 2181 0030 00000000 		.4byte	.LFB122
 2182 0034 44000000 		.4byte	.LFE122-.LFB122
 2183 0038 00000000 		.4byte	.LFB123
 2184 003c 44000000 		.4byte	.LFE123-.LFB123
 2185 0040 00000000 		.4byte	0
 2186 0044 00000000 		.4byte	0
 2187              		.section	.debug_ranges,"",%progbits
 2188              	.Ldebug_ranges0:
 2189 0000 00000000 		.4byte	.LFB118
 2190 0004 04000000 		.4byte	.LFE118
ARM GAS  /tmp/cc4bFCY5.s 			page 40


 2191 0008 00000000 		.4byte	.LFB119
 2192 000c 0A000000 		.4byte	.LFE119
 2193 0010 00000000 		.4byte	.LFB120
 2194 0014 4C000000 		.4byte	.LFE120
 2195 0018 00000000 		.4byte	.LFB121
 2196 001c 44000000 		.4byte	.LFE121
 2197 0020 00000000 		.4byte	.LFB122
 2198 0024 44000000 		.4byte	.LFE122
 2199 0028 00000000 		.4byte	.LFB123
 2200 002c 44000000 		.4byte	.LFE123
 2201 0030 00000000 		.4byte	0
 2202 0034 00000000 		.4byte	0
 2203              		.section	.debug_line,"",%progbits
 2204              	.Ldebug_line0:
 2205 0000 7B020000 		.section	.debug_str,"MS",%progbits,1
 2205      0200B501 
 2205      00000201 
 2205      FB0E0D00 
 2205      01010101 
 2206              	.LASF69:
 2207 0000 69637553 		.ascii	"icuStop\000"
 2207      746F7000 
 2208              	.LASF77:
 2209 0008 6963755F 		.ascii	"icu_lld_stop\000"
 2209      6C6C645F 
 2209      73746F70 
 2209      00
 2210              	.LASF26:
 2211 0015 43434552 		.ascii	"CCER\000"
 2211      00
 2212              	.LASF38:
 2213 001a 4943555F 		.ascii	"ICU_STOP\000"
 2213      53544F50 
 2213      00
 2214              	.LASF57:
 2215 0023 69637563 		.ascii	"icuchannel_t\000"
 2215      68616E6E 
 2215      656C5F74 
 2215      00
 2216              	.LASF75:
 2217 0030 6963755F 		.ascii	"icu_lld_start\000"
 2217      6C6C645F 
 2217      73746172 
 2217      7400
 2218              	.LASF33:
 2219 003e 444D4152 		.ascii	"DMAR\000"
 2219      00
 2220              	.LASF45:
 2221 0043 73746174 		.ascii	"state\000"
 2221      6500
 2222              	.LASF24:
 2223 0049 43434D52 		.ascii	"CCMR2\000"
 2223      3200
 2224              	.LASF3:
 2225 004f 73686F72 		.ascii	"short int\000"
 2225      7420696E 
 2225      7400
ARM GAS  /tmp/cc4bFCY5.s 			page 41


 2226              	.LASF68:
 2227 0059 69637570 		.ascii	"icup\000"
 2227      00
 2228              	.LASF12:
 2229 005e 73697A65 		.ascii	"sizetype\000"
 2229      74797065 
 2229      00
 2230              	.LASF78:
 2231 0067 6963755F 		.ascii	"icu_lld_enable\000"
 2231      6C6C645F 
 2231      656E6162 
 2231      6C6500
 2232              	.LASF58:
 2233 0076 6D6F6465 		.ascii	"mode\000"
 2233      00
 2234              	.LASF82:
 2235 007b 6963755F 		.ascii	"icu_lld_disable\000"
 2235      6C6C645F 
 2235      64697361 
 2235      626C6500 
 2236              	.LASF46:
 2237 008b 636F6E66 		.ascii	"config\000"
 2237      696700
 2238              	.LASF14:
 2239 0092 5F726573 		.ascii	"_resvd0\000"
 2239      76643000 
 2240              	.LASF15:
 2241 009a 5F726573 		.ascii	"_resvd1\000"
 2241      76643100 
 2242              	.LASF31:
 2243 00a2 5F726573 		.ascii	"_resvd11\000"
 2243      76643131 
 2243      00
 2244              	.LASF19:
 2245 00ab 5F726573 		.ascii	"_resvd3\000"
 2245      76643300 
 2246              	.LASF20:
 2247 00b3 5F726573 		.ascii	"_resvd4\000"
 2247      76643400 
 2248              	.LASF21:
 2249 00bb 5F726573 		.ascii	"_resvd5\000"
 2249      76643500 
 2250              	.LASF23:
 2251 00c3 5F726573 		.ascii	"_resvd6\000"
 2251      76643600 
 2252              	.LASF25:
 2253 00cb 5F726573 		.ascii	"_resvd7\000"
 2253      76643700 
 2254              	.LASF55:
 2255 00d3 4943555F 		.ascii	"ICU_CHANNEL_1\000"
 2255      4348414E 
 2255      4E454C5F 
 2255      3100
 2256              	.LASF56:
 2257 00e1 4943555F 		.ascii	"ICU_CHANNEL_2\000"
 2257      4348414E 
 2257      4E454C5F 
ARM GAS  /tmp/cc4bFCY5.s 			page 42


 2257      3200
 2258              	.LASF40:
 2259 00ef 4943555F 		.ascii	"ICU_WAITING\000"
 2259      57414954 
 2259      494E4700 
 2260              	.LASF65:
 2261 00fb 69637549 		.ascii	"icuInit\000"
 2261      6E697400 
 2262              	.LASF60:
 2263 0103 77696474 		.ascii	"width_cb\000"
 2263      685F6362 
 2263      00
 2264              	.LASF41:
 2265 010c 4943555F 		.ascii	"ICU_ACTIVE\000"
 2265      41435449 
 2265      564500
 2266              	.LASF10:
 2267 0117 6C6F6E67 		.ascii	"long long int\000"
 2267      206C6F6E 
 2267      6720696E 
 2267      7400
 2268              	.LASF11:
 2269 0125 6C6F6E67 		.ascii	"long long unsigned int\000"
 2269      206C6F6E 
 2269      6720756E 
 2269      7369676E 
 2269      65642069 
 2270              	.LASF53:
 2271 013c 6963756D 		.ascii	"icumode_t\000"
 2271      6F64655F 
 2271      7400
 2272              	.LASF48:
 2273 0146 77636372 		.ascii	"wccrp\000"
 2273      7000
 2274              	.LASF7:
 2275 014c 6C6F6E67 		.ascii	"long int\000"
 2275      20696E74 
 2275      00
 2276              	.LASF49:
 2277 0155 70636372 		.ascii	"pccrp\000"
 2277      7000
 2278              	.LASF22:
 2279 015b 43434D52 		.ascii	"CCMR1\000"
 2279      3100
 2280              	.LASF79:
 2281 0161 474E5520 		.ascii	"GNU C 4.7.3 20130312 (release) [ARM/embedded-4_7-br"
 2281      4320342E 
 2281      372E3320 
 2281      32303133 
 2281      30333132 
 2282 0194 616E6368 		.ascii	"anch revision 196615]\000"
 2282      20726576 
 2282      6973696F 
 2282      6E203139 
 2282      36363135 
 2283              	.LASF74:
 2284 01aa 63684462 		.ascii	"chDbgPanic\000"
ARM GAS  /tmp/cc4bFCY5.s 			page 43


 2284      6750616E 
 2284      696300
 2285              	.LASF42:
 2286 01b5 4943555F 		.ascii	"ICU_IDLE\000"
 2286      49444C45 
 2286      00
 2287              	.LASF16:
 2288 01be 534D4352 		.ascii	"SMCR\000"
 2288      00
 2289              	.LASF2:
 2290 01c3 756E7369 		.ascii	"unsigned char\000"
 2290      676E6564 
 2290      20636861 
 2290      7200
 2291              	.LASF64:
 2292 01d1 49435543 		.ascii	"ICUConfig\000"
 2292      6F6E6669 
 2292      6700
 2293              	.LASF76:
 2294 01db 6462675F 		.ascii	"dbg_check_unlock\000"
 2294      63686563 
 2294      6B5F756E 
 2294      6C6F636B 
 2294      00
 2295              	.LASF67:
 2296 01ec 69637553 		.ascii	"icuStart\000"
 2296      74617274 
 2296      00
 2297              	.LASF70:
 2298 01f5 69637545 		.ascii	"icuEnable\000"
 2298      6E61626C 
 2298      6500
 2299              	.LASF1:
 2300 01ff 7369676E 		.ascii	"signed char\000"
 2300      65642063 
 2300      68617200 
 2301              	.LASF73:
 2302 020b 6462675F 		.ascii	"dbg_check_lock\000"
 2302      63686563 
 2302      6B5F6C6F 
 2302      636B00
 2303              	.LASF72:
 2304 021a 6963755F 		.ascii	"icu_lld_init\000"
 2304      6C6C645F 
 2304      696E6974 
 2304      00
 2305              	.LASF8:
 2306 0227 75696E74 		.ascii	"uint32_t\000"
 2306      33325F74 
 2306      00
 2307              	.LASF0:
 2308 0230 756E7369 		.ascii	"unsigned int\000"
 2308      676E6564 
 2308      20696E74 
 2308      00
 2309              	.LASF5:
 2310 023d 75696E74 		.ascii	"uint16_t\000"
ARM GAS  /tmp/cc4bFCY5.s 			page 44


 2310      31365F74 
 2310      00
 2311              	.LASF18:
 2312 0246 44494552 		.ascii	"DIER\000"
 2312      00
 2313              	.LASF54:
 2314 024b 69637566 		.ascii	"icufreq_t\000"
 2314      7265715F 
 2314      7400
 2315              	.LASF32:
 2316 0255 5F726573 		.ascii	"_resvd12\000"
 2316      76643132 
 2316      00
 2317              	.LASF34:
 2318 025e 5F726573 		.ascii	"_resvd13\000"
 2318      76643133 
 2318      00
 2319              	.LASF35:
 2320 0267 5F726573 		.ascii	"_resvd14\000"
 2320      76643134 
 2320      00
 2321              	.LASF4:
 2322 0270 73686F72 		.ascii	"short unsigned int\000"
 2322      7420756E 
 2322      7369676E 
 2322      65642069 
 2322      6E7400
 2323              	.LASF13:
 2324 0283 63686172 		.ascii	"char\000"
 2324      00
 2325              	.LASF50:
 2326 0288 69637563 		.ascii	"icucallback_t\000"
 2326      616C6C62 
 2326      61636B5F 
 2326      7400
 2327              	.LASF36:
 2328 0296 73746D33 		.ascii	"stm32_tim_t\000"
 2328      325F7469 
 2328      6D5F7400 
 2329              	.LASF61:
 2330 02a2 70657269 		.ascii	"period_cb\000"
 2330      6F645F63 
 2330      6200
 2331              	.LASF30:
 2332 02ac 42445452 		.ascii	"BDTR\000"
 2332      00
 2333              	.LASF6:
 2334 02b1 696E7433 		.ascii	"int32_t\000"
 2334      325F7400 
 2335              	.LASF52:
 2336 02b9 4943555F 		.ascii	"ICU_INPUT_ACTIVE_LOW\000"
 2336      494E5055 
 2336      545F4143 
 2336      54495645 
 2336      5F4C4F57 
 2337              	.LASF63:
 2338 02ce 6368616E 		.ascii	"channel\000"
ARM GAS  /tmp/cc4bFCY5.s 			page 45


 2338      6E656C00 
 2339              	.LASF71:
 2340 02d6 69637544 		.ascii	"icuDisable\000"
 2340      69736162 
 2340      6C6500
 2341              	.LASF37:
 2342 02e1 4943555F 		.ascii	"ICU_UNINIT\000"
 2342      554E494E 
 2342      495400
 2343              	.LASF51:
 2344 02ec 4943555F 		.ascii	"ICU_INPUT_ACTIVE_HIGH\000"
 2344      494E5055 
 2344      545F4143 
 2344      54495645 
 2344      5F484947 
 2345              	.LASF27:
 2346 0302 5F726573 		.ascii	"_resvd8\000"
 2346      76643800 
 2347              	.LASF9:
 2348 030a 6C6F6E67 		.ascii	"long unsigned int\000"
 2348      20756E73 
 2348      69676E65 
 2348      6420696E 
 2348      7400
 2349              	.LASF47:
 2350 031c 636C6F63 		.ascii	"clock\000"
 2350      6B00
 2351              	.LASF29:
 2352 0322 5F726573 		.ascii	"_resvd10\000"
 2352      76643130 
 2352      00
 2353              	.LASF62:
 2354 032b 6F766572 		.ascii	"overflow_cb\000"
 2354      666C6F77 
 2354      5F636200 
 2355              	.LASF44:
 2356 0337 49435544 		.ascii	"ICUDriver\000"
 2356      72697665 
 2356      7200
 2357              	.LASF80:
 2358 0341 2F686F6D 		.ascii	"/home/gokul/ChibiOS_2.5.0/os/hal/src/icu.c\000"
 2358      652F676F 
 2358      6B756C2F 
 2358      43686962 
 2358      694F535F 
 2359              	.LASF59:
 2360 036c 66726571 		.ascii	"frequency\000"
 2360      75656E63 
 2360      7900
 2361              	.LASF39:
 2362 0376 4943555F 		.ascii	"ICU_READY\000"
 2362      52454144 
 2362      5900
 2363              	.LASF66:
 2364 0380 6963754F 		.ascii	"icuObjectInit\000"
 2364      626A6563 
 2364      74496E69 
ARM GAS  /tmp/cc4bFCY5.s 			page 46


 2364      7400
 2365              	.LASF81:
 2366 038e 49544D5F 		.ascii	"ITM_RxBuffer\000"
 2366      52784275 
 2366      66666572 
 2366      00
 2367              	.LASF17:
 2368 039b 5F726573 		.ascii	"_resvd2\000"
 2368      76643200 
 2369              	.LASF43:
 2370 03a3 69637573 		.ascii	"icustate_t\000"
 2370      74617465 
 2370      5F7400
 2371              	.LASF28:
 2372 03ae 5F726573 		.ascii	"_resvd9\000"
 2372      76643900 
 2373              		.ident	"GCC: (GNU Tools for ARM Embedded Processors) 4.7.3 20130312 (release) [ARM/embedded-4_7-br
ARM GAS  /tmp/cc4bFCY5.s 			page 47


DEFINED SYMBOLS
                            *ABS*:00000000 icu.c
     /tmp/cc4bFCY5.s:19     .text.icuInit:00000000 $t
     /tmp/cc4bFCY5.s:25     .text.icuInit:00000000 icuInit
     /tmp/cc4bFCY5.s:41     .text.icuObjectInit:00000000 $t
     /tmp/cc4bFCY5.s:47     .text.icuObjectInit:00000000 icuObjectInit
     /tmp/cc4bFCY5.s:68     .text.icuStart:00000000 $t
     /tmp/cc4bFCY5.s:74     .text.icuStart:00000000 icuStart
     /tmp/cc4bFCY5.s:154    .text.icuStart:00000044 $d
     /tmp/cc4bFCY5.s:160    .text.icuStop:00000000 $t
     /tmp/cc4bFCY5.s:166    .text.icuStop:00000000 icuStop
     /tmp/cc4bFCY5.s:236    .text.icuStop:0000003c $d
     /tmp/cc4bFCY5.s:242    .text.icuEnable:00000000 $t
     /tmp/cc4bFCY5.s:248    .text.icuEnable:00000000 icuEnable
     /tmp/cc4bFCY5.s:317    .text.icuEnable:0000003c $d
     /tmp/cc4bFCY5.s:323    .text.icuDisable:00000000 $t
     /tmp/cc4bFCY5.s:329    .text.icuDisable:00000000 icuDisable
     /tmp/cc4bFCY5.s:399    .text.icuDisable:0000003c $d
     /tmp/cc4bFCY5.s:405    .rodata.str1.4:00000000 $d
                     .debug_frame:00000010 $d
     /tmp/cc4bFCY5.s:159    .text.icuStart:0000004c $t
     /tmp/cc4bFCY5.s:241    .text.icuStop:00000044 $t
     /tmp/cc4bFCY5.s:322    .text.icuEnable:00000044 $t
     /tmp/cc4bFCY5.s:404    .text.icuDisable:00000044 $t

UNDEFINED SYMBOLS
icu_lld_init
dbg_check_lock
chDbgPanic
icu_lld_start
dbg_check_unlock
icu_lld_stop
icu_lld_enable
icu_lld_disable
