ARM GAS  /tmp/ccSlBs59.s 			page 1


   1              		.syntax unified
   2              		.cpu cortex-m4
   3              		.fpu softvfp
   4              		.eabi_attribute 20, 1
   5              		.eabi_attribute 21, 1
   6              		.eabi_attribute 23, 3
   7              		.eabi_attribute 24, 1
   8              		.eabi_attribute 25, 1
   9              		.eabi_attribute 26, 1
  10              		.eabi_attribute 30, 2
  11              		.eabi_attribute 34, 1
  12              		.eabi_attribute 18, 4
  13              		.thumb
  14              		.file	"icu_lld.c"
  15              		.text
  16              	.Ltext0:
  17              		.cfi_sections	.debug_frame
  18              		.section	.text.VectorB4,"ax",%progbits
  19              		.align	2
  20              		.p2align 4,,15
  21              		.global	VectorB4
  22              		.thumb
  23              		.thumb_func
  24              		.type	VectorB4, %function
  25              	VectorB4:
  26              	.LFB119:
  27              		.file 1 "/home/gokul/ChibiOS_2.5.0/os/hal/platforms/STM32/icu_lld.c"
  28              		.loc 1 203 0
  29              		.cfi_startproc
  30              		@ args = 0, pretend = 0, frame = 0
  31              		@ frame_needed = 0, uses_anonymous_args = 0
  32 0000 38B5     		push	{r3, r4, r5, lr}
  33              	.LCFI0:
  34              		.cfi_def_cfa_offset 16
  35              		.cfi_offset 3, -16
  36              		.cfi_offset 4, -12
  37              		.cfi_offset 5, -8
  38              		.cfi_offset 14, -4
  39              	.LBB8:
  40              	.LBB9:
  41              		.loc 1 106 0
  42 0002 264C     		ldr	r4, .L30
  43              	.LBE9:
  44              	.LBE8:
  45              		.loc 1 205 0
  46 0004 FFF7FEFF 		bl	dbg_check_enter_isr
  47              	.LVL0:
  48              	.LBB14:
  49              	.LBB12:
  50              		.loc 1 106 0
  51 0008 E368     		ldr	r3, [r4, #12]
  52              		.loc 1 108 0
  53 000a 6268     		ldr	r2, [r4, #4]
  54              		.loc 1 106 0
  55 000c 188A     		ldrh	r0, [r3, #16]
  56 000e 9D89     		ldrh	r5, [r3, #12]
  57              		.loc 1 108 0
ARM GAS  /tmp/ccSlBs59.s 			page 2


  58 0010 117D     		ldrb	r1, [r2, #20]	@ zero_extendqisi2
  59              		.loc 1 106 0
  60 0012 ADB2     		uxth	r5, r5
  61 0014 0540     		ands	r5, r5, r0
  62              	.LVL1:
  63              		.loc 1 107 0
  64 0016 E843     		mvns	r0, r5
  65 0018 80B2     		uxth	r0, r0
  66 001a 1882     		strh	r0, [r3, #16]	@ movhi
  67              		.loc 1 109 0
  68 001c 05F00203 		and	r3, r5, #2
  69 0020 98B2     		uxth	r0, r3
  70              		.loc 1 108 0
  71 0022 C9B9     		cbnz	r1, .L2
  72              		.loc 1 109 0
  73 0024 38B1     		cbz	r0, .L4
  74              	.LBB10:
  75              		.loc 1 110 0
  76 0026 2078     		ldrb	r0, [r4, #0]	@ zero_extendqisi2
  77              	.LVL2:
  78 0028 0423     		movs	r3, #4
  79 002a 0328     		cmp	r0, #3
  80 002c 2370     		strb	r3, [r4, #0]
  81 002e 02D0     		beq	.L4
  82 0030 D268     		ldr	r2, [r2, #12]
  83 0032 2046     		mov	r0, r4
  84 0034 9047     		blx	r2
  85              	.LVL3:
  86              	.L4:
  87              	.LBE10:
  88              		.loc 1 111 0
  89 0036 05F00401 		and	r1, r5, #4
  90 003a 88B2     		uxth	r0, r1
  91 003c 0028     		cmp	r0, #0
  92 003e 26D1     		bne	.L27
  93              	.L7:
  94              		.loc 1 119 0
  95 0040 EB07     		lsls	r3, r5, #31
  96 0042 03D5     		bpl	.L10
  97              		.loc 1 120 0
  98 0044 6368     		ldr	r3, [r4, #4]
  99 0046 1548     		ldr	r0, .L30
 100 0048 1969     		ldr	r1, [r3, #16]
 101 004a 8847     		blx	r1
 102              	.LVL4:
 103              	.L10:
 104              	.LBE12:
 105              	.LBE14:
 106              		.loc 1 209 0
 107 004c FFF7FEFF 		bl	dbg_check_leave_isr
 108              	.LVL5:
 109              		.loc 1 210 0
 110 0050 BDE83840 		pop	{r3, r4, r5, lr}
 111              		.loc 1 209 0
 112 0054 FFF7FEBF 		b	_port_irq_epilogue
 113              	.LVL6:
 114              	.L2:
ARM GAS  /tmp/ccSlBs59.s 			page 3


 115              	.LBB15:
 116              	.LBB13:
 117              		.loc 1 114 0
 118 0058 70B9     		cbnz	r0, .L28
 119              		.loc 1 116 0
 120 005a 05F00403 		and	r3, r5, #4
 121 005e 98B2     		uxth	r0, r3
 122 0060 0028     		cmp	r0, #0
 123 0062 EDD0     		beq	.L7
 124              	.L29:
 125              	.LBB11:
 126              		.loc 1 117 0
 127 0064 2178     		ldrb	r1, [r4, #0]	@ zero_extendqisi2
 128              	.LVL7:
 129 0066 0D48     		ldr	r0, .L30
 130 0068 0422     		movs	r2, #4
 131 006a 0329     		cmp	r1, #3
 132 006c 2270     		strb	r2, [r4, #0]
 133 006e E7D0     		beq	.L7
 134 0070 4368     		ldr	r3, [r0, #4]
 135 0072 D968     		ldr	r1, [r3, #12]
 136 0074 8847     		blx	r1
 137              	.LVL8:
 138 0076 E3E7     		b	.L7
 139              	.L28:
 140              	.LBE11:
 141              		.loc 1 115 0
 142 0078 0521     		movs	r1, #5
 143 007a 2046     		mov	r0, r4
 144 007c 2170     		strb	r1, [r4, #0]
 145 007e 9268     		ldr	r2, [r2, #8]
 146 0080 9047     		blx	r2
 147              	.LVL9:
 148              		.loc 1 116 0
 149 0082 05F00403 		and	r3, r5, #4
 150 0086 98B2     		uxth	r0, r3
 151 0088 0028     		cmp	r0, #0
 152 008a D9D0     		beq	.L7
 153 008c EAE7     		b	.L29
 154              	.L27:
 155              		.loc 1 112 0
 156 008e 6368     		ldr	r3, [r4, #4]
 157 0090 0248     		ldr	r0, .L30
 158 0092 9968     		ldr	r1, [r3, #8]
 159 0094 0522     		movs	r2, #5
 160 0096 2270     		strb	r2, [r4, #0]
 161 0098 8847     		blx	r1
 162              	.LVL10:
 163 009a D1E7     		b	.L7
 164              	.L31:
 165              		.align	2
 166              	.L30:
 167 009c 00000000 		.word	.LANCHOR0
 168              	.LBE13:
 169              	.LBE15:
 170              		.cfi_endproc
 171              	.LFE119:
ARM GAS  /tmp/ccSlBs59.s 			page 4


 172              		.size	VectorB4, .-VectorB4
 173              		.section	.text.icu_lld_init,"ax",%progbits
 174              		.align	2
 175              		.p2align 4,,15
 176              		.global	icu_lld_init
 177              		.thumb
 178              		.thumb_func
 179              		.type	icu_lld_init, %function
 180              	icu_lld_init:
 181              	.LFB120:
 182              		.loc 1 308 0
 183              		.cfi_startproc
 184              		@ args = 0, pretend = 0, frame = 0
 185              		@ frame_needed = 0, uses_anonymous_args = 0
 186 0000 10B5     		push	{r4, lr}
 187              	.LCFI1:
 188              		.cfi_def_cfa_offset 8
 189              		.cfi_offset 4, -8
 190              		.cfi_offset 14, -4
 191              		.loc 1 324 0
 192 0002 40F20004 		movw	r4, #:lower16:.LANCHOR0
 193 0006 C0F20004 		movt	r4, #:upper16:.LANCHOR0
 194 000a 2046     		mov	r0, r4
 195 000c FFF7FEFF 		bl	icuObjectInit
 196              	.LVL11:
 197              		.loc 1 325 0
 198 0010 4FF48063 		mov	r3, #1024
 199 0014 C4F20003 		movt	r3, 16384
 200 0018 E360     		str	r3, [r4, #12]
 201 001a 10BD     		pop	{r4, pc}
 202              		.cfi_endproc
 203              	.LFE120:
 204              		.size	icu_lld_init, .-icu_lld_init
 205 001c AFF30080 		.section	.text.icu_lld_start,"ax",%progbits
 206              		.align	2
 207              		.p2align 4,,15
 208              		.global	icu_lld_start
 209              		.thumb
 210              		.thumb_func
 211              		.type	icu_lld_start, %function
 212              	icu_lld_start:
 213              	.LFB121:
 214              		.loc 1 354 0
 215              		.cfi_startproc
 216              		@ args = 0, pretend = 0, frame = 0
 217              		@ frame_needed = 0, uses_anonymous_args = 0
 218              	.LVL12:
 219 0000 38B5     		push	{r3, r4, r5, lr}
 220              	.LCFI2:
 221              		.cfi_def_cfa_offset 16
 222              		.cfi_offset 3, -16
 223              		.cfi_offset 4, -12
 224              		.cfi_offset 5, -8
 225              		.cfi_offset 14, -4
 226              		.loc 1 357 0
 227 0002 4368     		ldr	r3, [r0, #4]
 228              		.loc 1 354 0
ARM GAS  /tmp/ccSlBs59.s 			page 5


 229 0004 0446     		mov	r4, r0
 230              		.loc 1 357 0
 231 0006 187D     		ldrb	r0, [r3, #20]	@ zero_extendqisi2
 232              	.LVL13:
 233 0008 0128     		cmp	r0, #1
 234 000a 02D9     		bls	.L34
 235              		.loc 1 357 0 is_stmt 0 discriminator 1
 236 000c 3248     		ldr	r0, .L48
 237 000e FFF7FEFF 		bl	chDbgPanic
 238              	.LVL14:
 239              	.L34:
 240              		.loc 1 361 0 is_stmt 1
 241 0012 2178     		ldrb	r1, [r4, #0]	@ zero_extendqisi2
 242 0014 0129     		cmp	r1, #1
 243 0016 43D0     		beq	.L45
 244              		.loc 1 425 0
 245 0018 E568     		ldr	r5, [r4, #12]
 246 001a 0022     		movs	r2, #0
 247 001c 2A80     		strh	r2, [r5, #0]	@ movhi
 248              		.loc 1 426 0
 249 001e AA81     		strh	r2, [r5, #12]	@ movhi
 250              		.loc 1 427 0
 251 0020 2A82     		strh	r2, [r5, #16]	@ movhi
 252              		.loc 1 428 0
 253 0022 6A63     		str	r2, [r5, #52]
 254              		.loc 1 429 0
 255 0024 AA63     		str	r2, [r5, #56]
 256              		.loc 1 430 0
 257 0026 6A62     		str	r2, [r5, #36]
 258              	.L36:
 259              		.loc 1 434 0
 260 0028 6268     		ldr	r2, [r4, #4]
 261 002a A368     		ldr	r3, [r4, #8]
 262 002c 5068     		ldr	r0, [r2, #4]
 263 002e B3FBF0F1 		udiv	r1, r3, r0
 264 0032 4D1E     		subs	r5, r1, #1
 265              	.LVL15:
 266              		.loc 1 435 0
 267 0034 B5F5803F 		cmp	r5, #65536
 268 0038 03D2     		bcs	.L37
 269              		.loc 1 435 0 is_stmt 0 discriminator 2
 270 003a 00FB01F1 		mul	r1, r0, r1
 271 003e 8B42     		cmp	r3, r1
 272 0040 03D0     		beq	.L38
 273              	.L37:
 274              		.loc 1 435 0 discriminator 1
 275 0042 2548     		ldr	r0, .L48
 276 0044 FFF7FEFF 		bl	chDbgPanic
 277              	.LVL16:
 278 0048 6268     		ldr	r2, [r4, #4]
 279              	.L38:
 280              		.loc 1 441 0 is_stmt 1
 281 004a 117D     		ldrb	r1, [r2, #20]	@ zero_extendqisi2
 282              		.loc 1 438 0
 283 004c E368     		ldr	r3, [r4, #12]
 284              		.loc 1 454 0
 285 004e 1278     		ldrb	r2, [r2, #0]	@ zero_extendqisi2
ARM GAS  /tmp/ccSlBs59.s 			page 6


 286              		.loc 1 438 0
 287 0050 ADB2     		uxth	r5, r5
 288              	.LVL17:
 289              		.loc 1 439 0
 290 0052 4FF6FF70 		movw	r0, #65535
 291              		.loc 1 438 0
 292 0056 1D85     		strh	r5, [r3, #40]	@ movhi
 293              		.loc 1 439 0
 294 0058 D862     		str	r0, [r3, #44]
 295              		.loc 1 441 0
 296 005a 69B9     		cbnz	r1, .L39
 297              		.loc 1 445 0
 298 005c 40F20121 		movw	r1, #513
 299              		.loc 1 449 0
 300 0060 5420     		movs	r0, #84
 301              		.loc 1 445 0
 302 0062 1983     		strh	r1, [r3, #24]	@ movhi
 303              		.loc 1 449 0
 304 0064 1881     		strh	r0, [r3, #8]	@ movhi
 305              		.loc 1 454 0
 306 0066 C2B1     		cbz	r2, .L46
 307              		.loc 1 458 0
 308 0068 1322     		movs	r2, #19
 309 006a 1A84     		strh	r2, [r3, #32]	@ movhi
 310              	.L41:
 311              		.loc 1 462 0
 312 006c 03F13800 		add	r0, r3, #56
 313              		.loc 1 463 0
 314 0070 3433     		adds	r3, r3, #52
 315              		.loc 1 462 0
 316 0072 2061     		str	r0, [r4, #16]
 317              		.loc 1 463 0
 318 0074 6361     		str	r3, [r4, #20]
 319 0076 38BD     		pop	{r3, r4, r5, pc}
 320              	.L39:
 321              		.loc 1 468 0
 322 0078 4FF48171 		mov	r1, #258
 323              		.loc 1 472 0
 324 007c 6420     		movs	r0, #100
 325              		.loc 1 468 0
 326 007e 1983     		strh	r1, [r3, #24]	@ movhi
 327              		.loc 1 472 0
 328 0080 1881     		strh	r0, [r3, #8]	@ movhi
 329              		.loc 1 477 0
 330 0082 3AB1     		cbz	r2, .L47
 331              		.loc 1 481 0
 332 0084 3122     		movs	r2, #49
 333 0086 1A84     		strh	r2, [r3, #32]	@ movhi
 334              	.L44:
 335              		.loc 1 485 0
 336 0088 03F13400 		add	r0, r3, #52
 337              		.loc 1 486 0
 338 008c 3833     		adds	r3, r3, #56
 339              		.loc 1 485 0
 340 008e 2061     		str	r0, [r4, #16]
 341              		.loc 1 486 0
 342 0090 6361     		str	r3, [r4, #20]
ARM GAS  /tmp/ccSlBs59.s 			page 7


 343 0092 38BD     		pop	{r3, r4, r5, pc}
 344              	.L47:
 345              		.loc 1 478 0
 346 0094 1321     		movs	r1, #19
 347 0096 1984     		strh	r1, [r3, #32]	@ movhi
 348 0098 F6E7     		b	.L44
 349              	.L46:
 350              		.loc 1 455 0
 351 009a 3121     		movs	r1, #49
 352 009c 1984     		strh	r1, [r3, #32]	@ movhi
 353 009e E5E7     		b	.L41
 354              	.L45:
 355              		.loc 1 384 0
 356 00a0 0E4B     		ldr	r3, .L48+4
 357 00a2 9C42     		cmp	r4, r3
 358 00a4 C0D1     		bne	.L36
 359              		.loc 1 385 0
 360 00a6 4FF46051 		mov	r1, #14336
 361 00aa C4F20201 		movt	r1, 16386
 362 00ae 086C     		ldr	r0, [r1, #64]
 363 00b0 40F00205 		orr	r5, r0, #2
 364 00b4 0D64     		str	r5, [r1, #64]
 365              		.loc 1 386 0
 366 00b6 0A6A     		ldr	r2, [r1, #32]
 367 00b8 0025     		movs	r5, #0
 368 00ba 42F00203 		orr	r3, r2, #2
 369 00be 0B62     		str	r3, [r1, #32]
 370              		.loc 1 387 0
 371 00c0 1D20     		movs	r0, #29
 372              		.loc 1 386 0
 373 00c2 0D62     		str	r5, [r1, #32]
 374              		.loc 1 387 0
 375 00c4 7021     		movs	r1, #112
 376 00c6 FFF7FEFF 		bl	nvicEnableVector
 377              	.LVL18:
 378              		.loc 1 389 0
 379 00ca 4FF43D41 		mov	r1, #48384
 380 00ce C0F20151 		movt	r1, 1281
 381 00d2 A160     		str	r1, [r4, #8]
 382 00d4 A8E7     		b	.L36
 383              	.L49:
 384 00d6 00BF     		.align	2
 385              	.L48:
 386 00d8 00000000 		.word	.LC0
 387 00dc 00000000 		.word	.LANCHOR0
 388              		.cfi_endproc
 389              	.LFE121:
 390              		.size	icu_lld_start, .-icu_lld_start
 391              		.section	.text.icu_lld_stop,"ax",%progbits
 392              		.align	2
 393              		.p2align 4,,15
 394              		.global	icu_lld_stop
 395              		.thumb
 396              		.thumb_func
 397              		.type	icu_lld_stop, %function
 398              	icu_lld_stop:
 399              	.LFB122:
ARM GAS  /tmp/ccSlBs59.s 			page 8


 400              		.loc 1 497 0
 401              		.cfi_startproc
 402              		@ args = 0, pretend = 0, frame = 0
 403              		@ frame_needed = 0, uses_anonymous_args = 0
 404              	.LVL19:
 405 0000 08B5     		push	{r3, lr}
 406              	.LCFI3:
 407              		.cfi_def_cfa_offset 8
 408              		.cfi_offset 3, -8
 409              		.cfi_offset 14, -4
 410              		.loc 1 499 0
 411 0002 0378     		ldrb	r3, [r0, #0]	@ zero_extendqisi2
 412 0004 022B     		cmp	r3, #2
 413 0006 00D0     		beq	.L54
 414              	.LVL20:
 415              	.L50:
 416 0008 08BD     		pop	{r3, pc}
 417              	.LVL21:
 418              	.L54:
 419              		.loc 1 519 0
 420 000a 0A4B     		ldr	r3, .L55
 421              		.loc 1 501 0
 422 000c C168     		ldr	r1, [r0, #12]
 423 000e 0022     		movs	r2, #0
 424              		.loc 1 519 0
 425 0010 9842     		cmp	r0, r3
 426              		.loc 1 501 0
 427 0012 0A80     		strh	r2, [r1, #0]	@ movhi
 428              		.loc 1 502 0
 429 0014 8A81     		strh	r2, [r1, #12]	@ movhi
 430              		.loc 1 503 0
 431 0016 0A82     		strh	r2, [r1, #16]	@ movhi
 432              		.loc 1 519 0
 433 0018 F6D1     		bne	.L50
 434              		.loc 1 520 0
 435 001a 1D20     		movs	r0, #29
 436              	.LVL22:
 437 001c FFF7FEFF 		bl	nvicDisableVector
 438              	.LVL23:
 439              		.loc 1 521 0
 440 0020 4FF46050 		mov	r0, #14336
 441 0024 C4F20200 		movt	r0, 16386
 442 0028 016C     		ldr	r1, [r0, #64]
 443 002a 21F00202 		bic	r2, r1, #2
 444 002e 0264     		str	r2, [r0, #64]
 445 0030 EAE7     		b	.L50
 446              	.L56:
 447 0032 00BF     		.align	2
 448              	.L55:
 449 0034 00000000 		.word	.LANCHOR0
 450              		.cfi_endproc
 451              	.LFE122:
 452              		.size	icu_lld_stop, .-icu_lld_stop
 453 0038 AFF30080 		.section	.text.icu_lld_enable,"ax",%progbits
 453      AFF30080 
 454              		.align	2
 455              		.p2align 4,,15
ARM GAS  /tmp/ccSlBs59.s 			page 9


 456              		.global	icu_lld_enable
 457              		.thumb
 458              		.thumb_func
 459              		.type	icu_lld_enable, %function
 460              	icu_lld_enable:
 461              	.LFB123:
 462              		.loc 1 553 0
 463              		.cfi_startproc
 464              		@ args = 0, pretend = 0, frame = 0
 465              		@ frame_needed = 0, uses_anonymous_args = 0
 466              		@ link register save eliminated.
 467              	.LVL24:
 468              		.loc 1 556 0
 469 0000 4268     		ldr	r2, [r0, #4]
 470              		.loc 1 555 0
 471 0002 C368     		ldr	r3, [r0, #12]
 472              		.loc 1 556 0
 473 0004 117D     		ldrb	r1, [r2, #20]	@ zero_extendqisi2
 474              		.loc 1 555 0
 475 0006 0020     		movs	r0, #0
 476              	.LVL25:
 477 0008 1882     		strh	r0, [r3, #16]	@ movhi
 478              		.loc 1 556 0
 479 000a B9B9     		cbnz	r1, .L58
 480              		.loc 1 557 0
 481 000c D068     		ldr	r0, [r2, #12]
 482 000e 20B1     		cbz	r0, .L59
 483              		.loc 1 558 0
 484 0010 9989     		ldrh	r1, [r3, #12]
 485 0012 88B2     		uxth	r0, r1
 486 0014 40F00201 		orr	r1, r0, #2
 487 0018 9981     		strh	r1, [r3, #12]	@ movhi
 488              	.L59:
 489              		.loc 1 559 0
 490 001a 9068     		ldr	r0, [r2, #8]
 491 001c 20B1     		cbz	r0, .L61
 492              	.L77:
 493              		.loc 1 565 0
 494 001e 9989     		ldrh	r1, [r3, #12]
 495 0020 88B2     		uxth	r0, r1
 496 0022 40F00401 		orr	r1, r0, #4
 497 0026 9981     		strh	r1, [r3, #12]	@ movhi
 498              	.L61:
 499              		.loc 1 567 0
 500 0028 1269     		ldr	r2, [r2, #16]
 501 002a 22B1     		cbz	r2, .L64
 502              		.loc 1 568 0
 503 002c 9889     		ldrh	r0, [r3, #12]
 504 002e 81B2     		uxth	r1, r0
 505 0030 41F00102 		orr	r2, r1, #1
 506 0034 9A81     		strh	r2, [r3, #12]	@ movhi
 507              	.L64:
 508              		.loc 1 569 0
 509 0036 0520     		movs	r0, #5
 510 0038 1880     		strh	r0, [r3, #0]	@ movhi
 511 003a 7047     		bx	lr
 512              	.L58:
ARM GAS  /tmp/ccSlBs59.s 			page 10


 513              		.loc 1 562 0
 514 003c 9168     		ldr	r1, [r2, #8]
 515 003e 21B1     		cbz	r1, .L62
 516              		.loc 1 563 0
 517 0040 9889     		ldrh	r0, [r3, #12]
 518 0042 81B2     		uxth	r1, r0
 519 0044 41F00200 		orr	r0, r1, #2
 520 0048 9881     		strh	r0, [r3, #12]	@ movhi
 521              	.L62:
 522              		.loc 1 564 0
 523 004a D168     		ldr	r1, [r2, #12]
 524 004c 0029     		cmp	r1, #0
 525 004e E6D1     		bne	.L77
 526 0050 EAE7     		b	.L61
 527              		.cfi_endproc
 528              	.LFE123:
 529              		.size	icu_lld_enable, .-icu_lld_enable
 530 0052 00BFAFF3 		.section	.text.icu_lld_disable,"ax",%progbits
 530      0080AFF3 
 530      0080AFF3 
 530      0080
 531              		.align	2
 532              		.p2align 4,,15
 533              		.global	icu_lld_disable
 534              		.thumb
 535              		.thumb_func
 536              		.type	icu_lld_disable, %function
 537              	icu_lld_disable:
 538              	.LFB124:
 539              		.loc 1 579 0
 540              		.cfi_startproc
 541              		@ args = 0, pretend = 0, frame = 0
 542              		@ frame_needed = 0, uses_anonymous_args = 0
 543              		@ link register save eliminated.
 544              	.LVL26:
 545              		.loc 1 581 0
 546 0000 C368     		ldr	r3, [r0, #12]
 547 0002 0022     		movs	r2, #0
 548 0004 1A80     		strh	r2, [r3, #0]	@ movhi
 549              		.loc 1 582 0
 550 0006 1A82     		strh	r2, [r3, #16]	@ movhi
 551              		.loc 1 583 0
 552 0008 9A81     		strh	r2, [r3, #12]	@ movhi
 553 000a 7047     		bx	lr
 554              		.cfi_endproc
 555              	.LFE124:
 556              		.size	icu_lld_disable, .-icu_lld_disable
 557              		.global	ICUD3
 558 000c AFF30080 		.section	.bss.ICUD3,"aw",%nobits
 559              		.align	2
 560              		.set	.LANCHOR0,. + 0
 561              		.type	ICUD3, %object
 562              		.size	ICUD3, 24
 563              	ICUD3:
 564 0000 00000000 		.space	24
 564      00000000 
 564      00000000 
ARM GAS  /tmp/ccSlBs59.s 			page 11


 564      00000000 
 564      00000000 
 565              		.section	.rodata.str1.4,"aMS",%progbits,1
 566              		.align	2
 567              	.LC0:
 568 0000 6963755F 		.ascii	"icu_lld_start(), #1\000"
 568      6C6C645F 
 568      73746172 
 568      7428292C 
 568      20233100 
 569              		.text
 570              	.Letext0:
 571              		.file 2 "/opt/gcc-arm-none-eabi-4_7-2013q1/bin/../lib/gcc/arm-none-eabi/4.7.3/../../../../arm-none
 572              		.file 3 "/home/gokul/ChibiOS_2.5.0/os/hal/platforms/STM32F4xx/stm32f4xx.h"
 573              		.file 4 "/home/gokul/ChibiOS_2.5.0/os/hal/platforms/STM32/stm32.h"
 574              		.file 5 "/home/gokul/ChibiOS_2.5.0/os/hal/include/icu.h"
 575              		.file 6 "/home/gokul/ChibiOS_2.5.0/os/hal/platforms/STM32/icu_lld.h"
 576              		.file 7 "/home/gokul/ChibiOS_2.5.0/os/ports/common/ARMCMx/CMSIS/include/core_cm4.h"
 577              		.file 8 "/home/gokul/ChibiOS_2.5.0/os/kernel/include/chdebug.h"
 578              		.file 9 "/home/gokul/ChibiOS_2.5.0/os/ports/GCC/ARMCMx/chcore_v7m.h"
 579              		.file 10 "/home/gokul/ChibiOS_2.5.0/os/ports/common/ARMCMx/nvic.h"
 580              		.section	.debug_info,"",%progbits
 581              	.Ldebug_info0:
 582 0000 490B0000 		.4byte	0xb49
 583 0004 0200     		.2byte	0x2
 584 0006 00000000 		.4byte	.Ldebug_abbrev0
 585 000a 04       		.byte	0x4
 586 000b 01       		.uleb128 0x1
 587 000c 49060000 		.4byte	.LASF199
 588 0010 01       		.byte	0x1
 589 0011 7E050000 		.4byte	.LASF200
 590 0015 40000000 		.4byte	.Ldebug_ranges0+0x40
 591 0019 00000000 		.4byte	0
 592 001d 00000000 		.4byte	0
 593 0021 00000000 		.4byte	.Ldebug_line0
 594 0025 02       		.uleb128 0x2
 595 0026 04       		.byte	0x4
 596 0027 05       		.byte	0x5
 597 0028 696E7400 		.ascii	"int\000"
 598 002c 03       		.uleb128 0x3
 599 002d 04       		.byte	0x4
 600 002e 07       		.byte	0x7
 601 002f 0E030000 		.4byte	.LASF0
 602 0033 03       		.uleb128 0x3
 603 0034 01       		.byte	0x1
 604 0035 06       		.byte	0x6
 605 0036 9F010000 		.4byte	.LASF1
 606 003a 03       		.uleb128 0x3
 607 003b 01       		.byte	0x1
 608 003c 08       		.byte	0x8
 609 003d CD060000 		.4byte	.LASF2
 610 0041 03       		.uleb128 0x3
 611 0042 02       		.byte	0x2
 612 0043 05       		.byte	0x5
 613 0044 18070000 		.4byte	.LASF3
 614 0048 04       		.uleb128 0x4
 615 0049 56020000 		.4byte	.LASF5
ARM GAS  /tmp/ccSlBs59.s 			page 12


 616 004d 02       		.byte	0x2
 617 004e 36       		.byte	0x36
 618 004f 53000000 		.4byte	0x53
 619 0053 03       		.uleb128 0x3
 620 0054 02       		.byte	0x2
 621 0055 07       		.byte	0x7
 622 0056 64070000 		.4byte	.LASF4
 623 005a 04       		.uleb128 0x4
 624 005b C5060000 		.4byte	.LASF6
 625 005f 02       		.byte	0x2
 626 0060 4F       		.byte	0x4f
 627 0061 65000000 		.4byte	0x65
 628 0065 03       		.uleb128 0x3
 629 0066 04       		.byte	0x4
 630 0067 05       		.byte	0x5
 631 0068 FF010000 		.4byte	.LASF7
 632 006c 04       		.uleb128 0x4
 633 006d 5F020000 		.4byte	.LASF8
 634 0071 02       		.byte	0x2
 635 0072 50       		.byte	0x50
 636 0073 77000000 		.4byte	0x77
 637 0077 03       		.uleb128 0x3
 638 0078 04       		.byte	0x4
 639 0079 07       		.byte	0x7
 640 007a 62030000 		.4byte	.LASF9
 641 007e 03       		.uleb128 0x3
 642 007f 08       		.byte	0x8
 643 0080 05       		.byte	0x5
 644 0081 91010000 		.4byte	.LASF10
 645 0085 03       		.uleb128 0x3
 646 0086 08       		.byte	0x8
 647 0087 07       		.byte	0x7
 648 0088 08010000 		.4byte	.LASF11
 649 008c 05       		.uleb128 0x5
 650 008d 6C000000 		.4byte	0x6c
 651 0091 03       		.uleb128 0x3
 652 0092 04       		.byte	0x4
 653 0093 07       		.byte	0x7
 654 0094 BD040000 		.4byte	.LASF12
 655 0098 06       		.uleb128 0x6
 656 0099 04       		.byte	0x4
 657 009a 9E000000 		.4byte	0x9e
 658 009e 07       		.uleb128 0x7
 659 009f A3000000 		.4byte	0xa3
 660 00a3 03       		.uleb128 0x3
 661 00a4 01       		.byte	0x1
 662 00a5 08       		.byte	0x8
 663 00a6 23080000 		.4byte	.LASF13
 664 00aa 08       		.uleb128 0x8
 665 00ab B3040000 		.4byte	.LASF201
 666 00af 01       		.byte	0x1
 667 00b0 03       		.byte	0x3
 668 00b1 8C       		.byte	0x8c
 669 00b2 E5020000 		.4byte	0x2e5
 670 00b6 09       		.uleb128 0x9
 671 00b7 72080000 		.4byte	.LASF14
 672 00bb 72       		.sleb128 -14
ARM GAS  /tmp/ccSlBs59.s 			page 13


 673 00bc 09       		.uleb128 0x9
 674 00bd 3F030000 		.4byte	.LASF15
 675 00c1 74       		.sleb128 -12
 676 00c2 09       		.uleb128 0x9
 677 00c3 CE020000 		.4byte	.LASF16
 678 00c7 75       		.sleb128 -11
 679 00c8 09       		.uleb128 0x9
 680 00c9 D8070000 		.4byte	.LASF17
 681 00cd 76       		.sleb128 -10
 682 00ce 09       		.uleb128 0x9
 683 00cf E1030000 		.4byte	.LASF18
 684 00d3 7B       		.sleb128 -5
 685 00d4 09       		.uleb128 0x9
 686 00d5 B3060000 		.4byte	.LASF19
 687 00d9 7C       		.sleb128 -4
 688 00da 09       		.uleb128 0x9
 689 00db DC020000 		.4byte	.LASF20
 690 00df 7E       		.sleb128 -2
 691 00e0 09       		.uleb128 0x9
 692 00e1 81040000 		.4byte	.LASF21
 693 00e5 7F       		.sleb128 -1
 694 00e6 09       		.uleb128 0x9
 695 00e7 53010000 		.4byte	.LASF22
 696 00eb 00       		.sleb128 0
 697 00ec 09       		.uleb128 0x9
 698 00ed 3B000000 		.4byte	.LASF23
 699 00f1 01       		.sleb128 1
 700 00f2 09       		.uleb128 0x9
 701 00f3 9B080000 		.4byte	.LASF24
 702 00f7 02       		.sleb128 2
 703 00f8 09       		.uleb128 0x9
 704 00f9 45010000 		.4byte	.LASF25
 705 00fd 03       		.sleb128 3
 706 00fe 09       		.uleb128 0x9
 707 00ff A7070000 		.4byte	.LASF26
 708 0103 04       		.sleb128 4
 709 0104 09       		.uleb128 0x9
 710 0105 C9090000 		.4byte	.LASF27
 711 0109 05       		.sleb128 5
 712 010a 09       		.uleb128 0x9
 713 010b 0E090000 		.4byte	.LASF28
 714 010f 06       		.sleb128 6
 715 0110 09       		.uleb128 0x9
 716 0111 ED090000 		.4byte	.LASF29
 717 0115 07       		.sleb128 7
 718 0116 09       		.uleb128 0x9
 719 0117 77070000 		.4byte	.LASF30
 720 011b 08       		.sleb128 8
 721 011c 09       		.uleb128 0x9
 722 011d 37050000 		.4byte	.LASF31
 723 0121 09       		.sleb128 9
 724 0122 09       		.uleb128 0x9
 725 0123 22070000 		.4byte	.LASF32
 726 0127 0A       		.sleb128 10
 727 0128 09       		.uleb128 0x9
 728 0129 F8090000 		.4byte	.LASF33
 729 012d 0B       		.sleb128 11
ARM GAS  /tmp/ccSlBs59.s 			page 14


 730 012e 09       		.uleb128 0x9
 731 012f 4D080000 		.4byte	.LASF34
 732 0133 0C       		.sleb128 12
 733 0134 09       		.uleb128 0x9
 734 0135 4C050000 		.4byte	.LASF35
 735 0139 0D       		.sleb128 13
 736 013a 09       		.uleb128 0x9
 737 013b 1B030000 		.4byte	.LASF36
 738 013f 0E       		.sleb128 14
 739 0140 09       		.uleb128 0x9
 740 0141 F4040000 		.4byte	.LASF37
 741 0145 0F       		.sleb128 15
 742 0146 09       		.uleb128 0x9
 743 0147 24020000 		.4byte	.LASF38
 744 014b 10       		.sleb128 16
 745 014c 09       		.uleb128 0x9
 746 014d 2D030000 		.4byte	.LASF39
 747 0151 11       		.sleb128 17
 748 0152 09       		.uleb128 0x9
 749 0153 8C090000 		.4byte	.LASF40
 750 0157 12       		.sleb128 18
 751 0158 09       		.uleb128 0x9
 752 0159 0A040000 		.4byte	.LASF41
 753 015d 13       		.sleb128 19
 754 015e 09       		.uleb128 0x9
 755 015f 2D000000 		.4byte	.LASF42
 756 0163 14       		.sleb128 20
 757 0164 09       		.uleb128 0x9
 758 0165 F1000000 		.4byte	.LASF43
 759 0169 15       		.sleb128 21
 760 016a 09       		.uleb128 0x9
 761 016b AD090000 		.4byte	.LASF44
 762 016f 16       		.sleb128 22
 763 0170 09       		.uleb128 0x9
 764 0171 36020000 		.4byte	.LASF45
 765 0175 17       		.sleb128 23
 766 0176 09       		.uleb128 0x9
 767 0177 DB060000 		.4byte	.LASF46
 768 017b 18       		.sleb128 24
 769 017c 09       		.uleb128 0x9
 770 017d CF040000 		.4byte	.LASF47
 771 0181 19       		.sleb128 25
 772 0182 09       		.uleb128 0x9
 773 0183 42070000 		.4byte	.LASF48
 774 0187 1A       		.sleb128 26
 775 0188 09       		.uleb128 0x9
 776 0189 8E040000 		.4byte	.LASF49
 777 018d 1B       		.sleb128 27
 778 018e 09       		.uleb128 0x9
 779 018f 04090000 		.4byte	.LASF50
 780 0193 1C       		.sleb128 28
 781 0194 09       		.uleb128 0x9
 782 0195 E3090000 		.4byte	.LASF51
 783 0199 1D       		.sleb128 29
 784 019a 09       		.uleb128 0x9
 785 019b 3B010000 		.4byte	.LASF52
 786 019f 1E       		.sleb128 30
ARM GAS  /tmp/ccSlBs59.s 			page 15


 787 01a0 09       		.uleb128 0x9
 788 01a1 87000000 		.4byte	.LASF53
 789 01a5 1F       		.sleb128 31
 790 01a6 09       		.uleb128 0x9
 791 01a7 7F090000 		.4byte	.LASF54
 792 01ab 20       		.sleb128 32
 793 01ac 09       		.uleb128 0x9
 794 01ad E5080000 		.4byte	.LASF55
 795 01b1 21       		.sleb128 33
 796 01b2 09       		.uleb128 0x9
 797 01b3 2E010000 		.4byte	.LASF56
 798 01b7 22       		.sleb128 34
 799 01b8 09       		.uleb128 0x9
 800 01b9 2F040000 		.4byte	.LASF57
 801 01bd 23       		.sleb128 35
 802 01be 09       		.uleb128 0x9
 803 01bf 42050000 		.4byte	.LASF58
 804 01c3 24       		.sleb128 36
 805 01c4 09       		.uleb128 0x9
 806 01c5 19090000 		.4byte	.LASF59
 807 01c9 25       		.sleb128 37
 808 01ca 09       		.uleb128 0x9
 809 01cb CC070000 		.4byte	.LASF60
 810 01cf 26       		.sleb128 38
 811 01d0 09       		.uleb128 0x9
 812 01d1 F2080000 		.4byte	.LASF61
 813 01d5 27       		.sleb128 39
 814 01d6 09       		.uleb128 0x9
 815 01d7 20040000 		.4byte	.LASF62
 816 01db 28       		.sleb128 40
 817 01dc 09       		.uleb128 0x9
 818 01dd 1F010000 		.4byte	.LASF63
 819 01e1 29       		.sleb128 41
 820 01e2 09       		.uleb128 0x9
 821 01e3 89020000 		.4byte	.LASF64
 822 01e7 2A       		.sleb128 42
 823 01e8 09       		.uleb128 0x9
 824 01e9 61040000 		.4byte	.LASF65
 825 01ed 2B       		.sleb128 43
 826 01ee 09       		.uleb128 0x9
 827 01ef AC020000 		.4byte	.LASF66
 828 01f3 2C       		.sleb128 44
 829 01f4 09       		.uleb128 0x9
 830 01f5 9B040000 		.4byte	.LASF67
 831 01f9 2D       		.sleb128 45
 832 01fa 09       		.uleb128 0x9
 833 01fb 5D000000 		.4byte	.LASF68
 834 01ff 2E       		.sleb128 46
 835 0200 09       		.uleb128 0x9
 836 0201 11080000 		.4byte	.LASF69
 837 0205 2F       		.sleb128 47
 838 0206 09       		.uleb128 0x9
 839 0207 A9060000 		.4byte	.LASF70
 840 020b 30       		.sleb128 48
 841 020c 09       		.uleb128 0x9
 842 020d BF030000 		.4byte	.LASF71
 843 0211 31       		.sleb128 49
ARM GAS  /tmp/ccSlBs59.s 			page 16


 844 0212 09       		.uleb128 0x9
 845 0213 2D050000 		.4byte	.LASF72
 846 0217 32       		.sleb128 50
 847 0218 09       		.uleb128 0x9
 848 0219 39060000 		.4byte	.LASF73
 849 021d 33       		.sleb128 51
 850 021e 09       		.uleb128 0x9
 851 021f 7E020000 		.4byte	.LASF74
 852 0223 34       		.sleb128 52
 853 0224 09       		.uleb128 0x9
 854 0225 37070000 		.4byte	.LASF75
 855 0229 35       		.sleb128 53
 856 022a 09       		.uleb128 0x9
 857 022b 68020000 		.4byte	.LASF76
 858 022f 36       		.sleb128 54
 859 0230 09       		.uleb128 0x9
 860 0231 43080000 		.4byte	.LASF77
 861 0235 37       		.sleb128 55
 862 0236 09       		.uleb128 0x9
 863 0237 D3080000 		.4byte	.LASF78
 864 023b 38       		.sleb128 56
 865 023c 09       		.uleb128 0x9
 866 023d 95090000 		.4byte	.LASF79
 867 0241 39       		.sleb128 57
 868 0242 09       		.uleb128 0x9
 869 0243 06050000 		.4byte	.LASF80
 870 0247 3A       		.sleb128 58
 871 0248 09       		.uleb128 0x9
 872 0249 E2040000 		.4byte	.LASF81
 873 024d 3B       		.sleb128 59
 874 024e 09       		.uleb128 0x9
 875 024f 97060000 		.4byte	.LASF82
 876 0253 3C       		.sleb128 60
 877 0254 09       		.uleb128 0x9
 878 0255 C6040000 		.4byte	.LASF83
 879 0259 3D       		.sleb128 61
 880 025a 09       		.uleb128 0x9
 881 025b 48020000 		.4byte	.LASF84
 882 025f 3E       		.sleb128 62
 883 0260 09       		.uleb128 0x9
 884 0261 5E050000 		.4byte	.LASF85
 885 0265 3F       		.sleb128 63
 886 0266 09       		.uleb128 0x9
 887 0267 44000000 		.4byte	.LASF86
 888 026b C000     		.sleb128 64
 889 026d 09       		.uleb128 0x9
 890 026e AB010000 		.4byte	.LASF87
 891 0272 C100     		.sleb128 65
 892 0274 09       		.uleb128 0x9
 893 0275 BB090000 		.4byte	.LASF88
 894 0279 C200     		.sleb128 66
 895 027b 09       		.uleb128 0x9
 896 027c B2070000 		.4byte	.LASF89
 897 0280 C300     		.sleb128 67
 898 0282 09       		.uleb128 0x9
 899 0283 9A020000 		.4byte	.LASF90
 900 0287 C400     		.sleb128 68
ARM GAS  /tmp/ccSlBs59.s 			page 17


 901 0289 09       		.uleb128 0x9
 902 028a CC010000 		.4byte	.LASF91
 903 028e C500     		.sleb128 69
 904 0290 09       		.uleb128 0x9
 905 0291 E8020000 		.4byte	.LASF92
 906 0295 C600     		.sleb128 70
 907 0297 09       		.uleb128 0x9
 908 0298 18050000 		.4byte	.LASF93
 909 029c C700     		.sleb128 71
 910 029e 09       		.uleb128 0x9
 911 029f 55030000 		.4byte	.LASF94
 912 02a3 C800     		.sleb128 72
 913 02a5 09       		.uleb128 0x9
 914 02a6 6A000000 		.4byte	.LASF95
 915 02aa C900     		.sleb128 73
 916 02ac 09       		.uleb128 0x9
 917 02ad AB030000 		.4byte	.LASF96
 918 02b1 CA00     		.sleb128 74
 919 02b3 09       		.uleb128 0x9
 920 02b4 5F080000 		.4byte	.LASF97
 921 02b8 CB00     		.sleb128 75
 922 02ba 09       		.uleb128 0x9
 923 02bb D2090000 		.4byte	.LASF98
 924 02bf CC00     		.sleb128 76
 925 02c1 09       		.uleb128 0x9
 926 02c2 D7050000 		.4byte	.LASF99
 927 02c6 CD00     		.sleb128 77
 928 02c8 09       		.uleb128 0x9
 929 02c9 46090000 		.4byte	.LASF100
 930 02cd CE00     		.sleb128 78
 931 02cf 09       		.uleb128 0x9
 932 02d0 2D080000 		.4byte	.LASF101
 933 02d4 CF00     		.sleb128 79
 934 02d6 09       		.uleb128 0x9
 935 02d7 0A070000 		.4byte	.LASF102
 936 02db D000     		.sleb128 80
 937 02dd 09       		.uleb128 0x9
 938 02de 5D090000 		.4byte	.LASF103
 939 02e2 D100     		.sleb128 81
 940 02e4 00       		.byte	0
 941 02e5 0A       		.uleb128 0xa
 942 02e6 6C000000 		.4byte	0x6c
 943 02ea F5020000 		.4byte	0x2f5
 944 02ee 0B       		.uleb128 0xb
 945 02ef 91000000 		.4byte	0x91
 946 02f3 01       		.byte	0x1
 947 02f4 00       		.byte	0
 948 02f5 0A       		.uleb128 0xa
 949 02f6 6C000000 		.4byte	0x6c
 950 02fa 05030000 		.4byte	0x305
 951 02fe 0B       		.uleb128 0xb
 952 02ff 91000000 		.4byte	0x91
 953 0303 03       		.byte	0x3
 954 0304 00       		.byte	0
 955 0305 05       		.uleb128 0x5
 956 0306 48000000 		.4byte	0x48
 957 030a 05       		.uleb128 0x5
ARM GAS  /tmp/ccSlBs59.s 			page 18


 958 030b 5A000000 		.4byte	0x5a
 959 030f 0C       		.uleb128 0xc
 960 0310 88       		.byte	0x88
 961 0311 03       		.byte	0x3
 962 0312 DB02     		.2byte	0x2db
 963 0314 DC040000 		.4byte	0x4dc
 964 0318 0D       		.uleb128 0xd
 965 0319 435200   		.ascii	"CR\000"
 966 031c 03       		.byte	0x3
 967 031d DD02     		.2byte	0x2dd
 968 031f 8C000000 		.4byte	0x8c
 969 0323 02       		.byte	0x2
 970 0324 23       		.byte	0x23
 971 0325 00       		.uleb128 0
 972 0326 0E       		.uleb128 0xe
 973 0327 76020000 		.4byte	.LASF104
 974 032b 03       		.byte	0x3
 975 032c DE02     		.2byte	0x2de
 976 032e 8C000000 		.4byte	0x8c
 977 0332 02       		.byte	0x2
 978 0333 23       		.byte	0x23
 979 0334 04       		.uleb128 0x4
 980 0335 0E       		.uleb128 0xe
 981 0336 66090000 		.4byte	.LASF105
 982 033a 03       		.byte	0x3
 983 033b DF02     		.2byte	0x2df
 984 033d 8C000000 		.4byte	0x8c
 985 0341 02       		.byte	0x2
 986 0342 23       		.byte	0x23
 987 0343 08       		.uleb128 0x8
 988 0344 0D       		.uleb128 0xd
 989 0345 43495200 		.ascii	"CIR\000"
 990 0349 03       		.byte	0x3
 991 034a E002     		.2byte	0x2e0
 992 034c 8C000000 		.4byte	0x8c
 993 0350 02       		.byte	0x2
 994 0351 23       		.byte	0x23
 995 0352 0C       		.uleb128 0xc
 996 0353 0E       		.uleb128 0xe
 997 0354 B9010000 		.4byte	.LASF106
 998 0358 03       		.byte	0x3
 999 0359 E102     		.2byte	0x2e1
 1000 035b 8C000000 		.4byte	0x8c
 1001 035f 02       		.byte	0x2
 1002 0360 23       		.byte	0x23
 1003 0361 10       		.uleb128 0x10
 1004 0362 0E       		.uleb128 0xe
 1005 0363 C5020000 		.4byte	.LASF107
 1006 0367 03       		.byte	0x3
 1007 0368 E202     		.2byte	0x2e2
 1008 036a 8C000000 		.4byte	0x8c
 1009 036e 02       		.byte	0x2
 1010 036f 23       		.byte	0x23
 1011 0370 14       		.uleb128 0x14
 1012 0371 0E       		.uleb128 0xe
 1013 0372 17040000 		.4byte	.LASF108
 1014 0376 03       		.byte	0x3
ARM GAS  /tmp/ccSlBs59.s 			page 19


 1015 0377 E302     		.2byte	0x2e3
 1016 0379 8C000000 		.4byte	0x8c
 1017 037d 02       		.byte	0x2
 1018 037e 23       		.byte	0x23
 1019 037f 18       		.uleb128 0x18
 1020 0380 0E       		.uleb128 0xe
 1021 0381 F3050000 		.4byte	.LASF109
 1022 0385 03       		.byte	0x3
 1023 0386 E402     		.2byte	0x2e4
 1024 0388 6C000000 		.4byte	0x6c
 1025 038c 02       		.byte	0x2
 1026 038d 23       		.byte	0x23
 1027 038e 1C       		.uleb128 0x1c
 1028 038f 0E       		.uleb128 0xe
 1029 0390 CE050000 		.4byte	.LASF110
 1030 0394 03       		.byte	0x3
 1031 0395 E502     		.2byte	0x2e5
 1032 0397 8C000000 		.4byte	0x8c
 1033 039b 02       		.byte	0x2
 1034 039c 23       		.byte	0x23
 1035 039d 20       		.uleb128 0x20
 1036 039e 0E       		.uleb128 0xe
 1037 039f 11020000 		.4byte	.LASF111
 1038 03a3 03       		.byte	0x3
 1039 03a4 E602     		.2byte	0x2e6
 1040 03a6 8C000000 		.4byte	0x8c
 1041 03aa 02       		.byte	0x2
 1042 03ab 23       		.byte	0x23
 1043 03ac 24       		.uleb128 0x24
 1044 03ad 0E       		.uleb128 0xe
 1045 03ae FD050000 		.4byte	.LASF112
 1046 03b2 03       		.byte	0x3
 1047 03b3 E702     		.2byte	0x2e7
 1048 03b5 E5020000 		.4byte	0x2e5
 1049 03b9 02       		.byte	0x2
 1050 03ba 23       		.byte	0x23
 1051 03bb 28       		.uleb128 0x28
 1052 03bc 0E       		.uleb128 0xe
 1053 03bd 50090000 		.4byte	.LASF113
 1054 03c1 03       		.byte	0x3
 1055 03c2 E802     		.2byte	0x2e8
 1056 03c4 8C000000 		.4byte	0x8c
 1057 03c8 02       		.byte	0x2
 1058 03c9 23       		.byte	0x23
 1059 03ca 30       		.uleb128 0x30
 1060 03cb 0E       		.uleb128 0xe
 1061 03cc 43040000 		.4byte	.LASF114
 1062 03d0 03       		.byte	0x3
 1063 03d1 E902     		.2byte	0x2e9
 1064 03d3 8C000000 		.4byte	0x8c
 1065 03d7 02       		.byte	0x2
 1066 03d8 23       		.byte	0x23
 1067 03d9 34       		.uleb128 0x34
 1068 03da 0E       		.uleb128 0xe
 1069 03db 9F070000 		.4byte	.LASF115
 1070 03df 03       		.byte	0x3
 1071 03e0 EA02     		.2byte	0x2ea
ARM GAS  /tmp/ccSlBs59.s 			page 20


 1072 03e2 8C000000 		.4byte	0x8c
 1073 03e6 02       		.byte	0x2
 1074 03e7 23       		.byte	0x23
 1075 03e8 38       		.uleb128 0x38
 1076 03e9 0E       		.uleb128 0xe
 1077 03ea 07060000 		.4byte	.LASF116
 1078 03ee 03       		.byte	0x3
 1079 03ef EB02     		.2byte	0x2eb
 1080 03f1 6C000000 		.4byte	0x6c
 1081 03f5 02       		.byte	0x2
 1082 03f6 23       		.byte	0x23
 1083 03f7 3C       		.uleb128 0x3c
 1084 03f8 0E       		.uleb128 0xe
 1085 03f9 86080000 		.4byte	.LASF117
 1086 03fd 03       		.byte	0x3
 1087 03fe EC02     		.2byte	0x2ec
 1088 0400 8C000000 		.4byte	0x8c
 1089 0404 02       		.byte	0x2
 1090 0405 23       		.byte	0x23
 1091 0406 40       		.uleb128 0x40
 1092 0407 0E       		.uleb128 0xe
 1093 0408 82070000 		.4byte	.LASF118
 1094 040c 03       		.byte	0x3
 1095 040d ED02     		.2byte	0x2ed
 1096 040f 8C000000 		.4byte	0x8c
 1097 0413 02       		.byte	0x2
 1098 0414 23       		.byte	0x23
 1099 0415 44       		.uleb128 0x44
 1100 0416 0E       		.uleb128 0xe
 1101 0417 11060000 		.4byte	.LASF119
 1102 041b 03       		.byte	0x3
 1103 041c EE02     		.2byte	0x2ee
 1104 041e E5020000 		.4byte	0x2e5
 1105 0422 02       		.byte	0x2
 1106 0423 23       		.byte	0x23
 1107 0424 48       		.uleb128 0x48
 1108 0425 0E       		.uleb128 0xe
 1109 0426 67010000 		.4byte	.LASF120
 1110 042a 03       		.byte	0x3
 1111 042b EF02     		.2byte	0x2ef
 1112 042d 8C000000 		.4byte	0x8c
 1113 0431 02       		.byte	0x2
 1114 0432 23       		.byte	0x23
 1115 0433 50       		.uleb128 0x50
 1116 0434 0E       		.uleb128 0xe
 1117 0435 6B050000 		.4byte	.LASF121
 1118 0439 03       		.byte	0x3
 1119 043a F002     		.2byte	0x2f0
 1120 043c 8C000000 		.4byte	0x8c
 1121 0440 02       		.byte	0x2
 1122 0441 23       		.byte	0x23
 1123 0442 54       		.uleb128 0x54
 1124 0443 0E       		.uleb128 0xe
 1125 0444 2D070000 		.4byte	.LASF122
 1126 0448 03       		.byte	0x3
 1127 0449 F102     		.2byte	0x2f1
 1128 044b 8C000000 		.4byte	0x8c
ARM GAS  /tmp/ccSlBs59.s 			page 21


 1129 044f 02       		.byte	0x2
 1130 0450 23       		.byte	0x23
 1131 0451 58       		.uleb128 0x58
 1132 0452 0E       		.uleb128 0xe
 1133 0453 1B060000 		.4byte	.LASF123
 1134 0457 03       		.byte	0x3
 1135 0458 F202     		.2byte	0x2f2
 1136 045a 6C000000 		.4byte	0x6c
 1137 045e 02       		.byte	0x2
 1138 045f 23       		.byte	0x23
 1139 0460 5C       		.uleb128 0x5c
 1140 0461 0E       		.uleb128 0xe
 1141 0462 1A020000 		.4byte	.LASF124
 1142 0466 03       		.byte	0x3
 1143 0467 F302     		.2byte	0x2f3
 1144 0469 8C000000 		.4byte	0x8c
 1145 046d 02       		.byte	0x2
 1146 046e 23       		.byte	0x23
 1147 046f 60       		.uleb128 0x60
 1148 0470 0E       		.uleb128 0xe
 1149 0471 57040000 		.4byte	.LASF125
 1150 0475 03       		.byte	0x3
 1151 0476 F402     		.2byte	0x2f4
 1152 0478 8C000000 		.4byte	0x8c
 1153 047c 02       		.byte	0x2
 1154 047d 23       		.byte	0x23
 1155 047e 64       		.uleb128 0x64
 1156 047f 0E       		.uleb128 0xe
 1157 0480 25060000 		.4byte	.LASF126
 1158 0484 03       		.byte	0x3
 1159 0485 F502     		.2byte	0x2f5
 1160 0487 E5020000 		.4byte	0x2e5
 1161 048b 02       		.byte	0x2
 1162 048c 23       		.byte	0x23
 1163 048d 68       		.uleb128 0x68
 1164 048e 0E       		.uleb128 0xe
 1165 048f 25090000 		.4byte	.LASF127
 1166 0493 03       		.byte	0x3
 1167 0494 F602     		.2byte	0x2f6
 1168 0496 8C000000 		.4byte	0x8c
 1169 049a 02       		.byte	0x2
 1170 049b 23       		.byte	0x23
 1171 049c 70       		.uleb128 0x70
 1172 049d 0D       		.uleb128 0xd
 1173 049e 43535200 		.ascii	"CSR\000"
 1174 04a2 03       		.byte	0x3
 1175 04a3 F702     		.2byte	0x2f7
 1176 04a5 8C000000 		.4byte	0x8c
 1177 04a9 02       		.byte	0x2
 1178 04aa 23       		.byte	0x23
 1179 04ab 74       		.uleb128 0x74
 1180 04ac 0E       		.uleb128 0xe
 1181 04ad 2F060000 		.4byte	.LASF128
 1182 04b1 03       		.byte	0x3
 1183 04b2 F802     		.2byte	0x2f8
 1184 04b4 E5020000 		.4byte	0x2e5
 1185 04b8 02       		.byte	0x2
ARM GAS  /tmp/ccSlBs59.s 			page 22


 1186 04b9 23       		.byte	0x23
 1187 04ba 78       		.uleb128 0x78
 1188 04bb 0E       		.uleb128 0xe
 1189 04bc FE080000 		.4byte	.LASF129
 1190 04c0 03       		.byte	0x3
 1191 04c1 F902     		.2byte	0x2f9
 1192 04c3 8C000000 		.4byte	0x8c
 1193 04c7 03       		.byte	0x3
 1194 04c8 23       		.byte	0x23
 1195 04c9 8001     		.uleb128 0x80
 1196 04cb 0E       		.uleb128 0xe
 1197 04cc FF030000 		.4byte	.LASF130
 1198 04d0 03       		.byte	0x3
 1199 04d1 FA02     		.2byte	0x2fa
 1200 04d3 8C000000 		.4byte	0x8c
 1201 04d7 03       		.byte	0x3
 1202 04d8 23       		.byte	0x23
 1203 04d9 8401     		.uleb128 0x84
 1204 04db 00       		.byte	0
 1205 04dc 0F       		.uleb128 0xf
 1206 04dd 82030000 		.4byte	.LASF131
 1207 04e1 03       		.byte	0x3
 1208 04e2 FB02     		.2byte	0x2fb
 1209 04e4 0F030000 		.4byte	0x30f
 1210 04e8 10       		.uleb128 0x10
 1211 04e9 54       		.byte	0x54
 1212 04ea 04       		.byte	0x4
 1213 04eb 5C       		.byte	0x5c
 1214 04ec BD060000 		.4byte	0x6bd
 1215 04f0 11       		.uleb128 0x11
 1216 04f1 43523100 		.ascii	"CR1\000"
 1217 04f5 04       		.byte	0x4
 1218 04f6 5D       		.byte	0x5d
 1219 04f7 05030000 		.4byte	0x305
 1220 04fb 02       		.byte	0x2
 1221 04fc 23       		.byte	0x23
 1222 04fd 00       		.uleb128 0
 1223 04fe 12       		.uleb128 0x12
 1224 04ff 77000000 		.4byte	.LASF132
 1225 0503 04       		.byte	0x4
 1226 0504 5E       		.byte	0x5e
 1227 0505 48000000 		.4byte	0x48
 1228 0509 02       		.byte	0x2
 1229 050a 23       		.byte	0x23
 1230 050b 02       		.uleb128 0x2
 1231 050c 11       		.uleb128 0x11
 1232 050d 43523200 		.ascii	"CR2\000"
 1233 0511 04       		.byte	0x4
 1234 0512 5F       		.byte	0x5f
 1235 0513 05030000 		.4byte	0x305
 1236 0517 02       		.byte	0x2
 1237 0518 23       		.byte	0x23
 1238 0519 04       		.uleb128 0x4
 1239 051a 12       		.uleb128 0x12
 1240 051b 7F000000 		.4byte	.LASF133
 1241 051f 04       		.byte	0x4
 1242 0520 60       		.byte	0x60
ARM GAS  /tmp/ccSlBs59.s 			page 23


 1243 0521 48000000 		.4byte	0x48
 1244 0525 02       		.byte	0x2
 1245 0526 23       		.byte	0x23
 1246 0527 06       		.uleb128 0x6
 1247 0528 12       		.uleb128 0x12
 1248 0529 ED030000 		.4byte	.LASF134
 1249 052d 04       		.byte	0x4
 1250 052e 61       		.byte	0x61
 1251 052f 05030000 		.4byte	0x305
 1252 0533 02       		.byte	0x2
 1253 0534 23       		.byte	0x23
 1254 0535 08       		.uleb128 0x8
 1255 0536 12       		.uleb128 0x12
 1256 0537 09080000 		.4byte	.LASF135
 1257 053b 04       		.byte	0x4
 1258 053c 62       		.byte	0x62
 1259 053d 48000000 		.4byte	0x48
 1260 0541 02       		.byte	0x2
 1261 0542 23       		.byte	0x23
 1262 0543 0A       		.uleb128 0xa
 1263 0544 12       		.uleb128 0x12
 1264 0545 58090000 		.4byte	.LASF136
 1265 0549 04       		.byte	0x4
 1266 054a 63       		.byte	0x63
 1267 054b 05030000 		.4byte	0x305
 1268 054f 02       		.byte	0x2
 1269 0550 23       		.byte	0x23
 1270 0551 0C       		.uleb128 0xc
 1271 0552 12       		.uleb128 0x12
 1272 0553 94000000 		.4byte	.LASF137
 1273 0557 04       		.byte	0x4
 1274 0558 64       		.byte	0x64
 1275 0559 48000000 		.4byte	0x48
 1276 055d 02       		.byte	0x2
 1277 055e 23       		.byte	0x23
 1278 055f 0E       		.uleb128 0xe
 1279 0560 11       		.uleb128 0x11
 1280 0561 535200   		.ascii	"SR\000"
 1281 0564 04       		.byte	0x4
 1282 0565 65       		.byte	0x65
 1283 0566 05030000 		.4byte	0x305
 1284 056a 02       		.byte	0x2
 1285 056b 23       		.byte	0x23
 1286 056c 10       		.uleb128 0x10
 1287 056d 12       		.uleb128 0x12
 1288 056e 9C000000 		.4byte	.LASF138
 1289 0572 04       		.byte	0x4
 1290 0573 66       		.byte	0x66
 1291 0574 48000000 		.4byte	0x48
 1292 0578 02       		.byte	0x2
 1293 0579 23       		.byte	0x23
 1294 057a 12       		.uleb128 0x12
 1295 057b 11       		.uleb128 0x11
 1296 057c 45475200 		.ascii	"EGR\000"
 1297 0580 04       		.byte	0x4
 1298 0581 67       		.byte	0x67
 1299 0582 05030000 		.4byte	0x305
ARM GAS  /tmp/ccSlBs59.s 			page 24


 1300 0586 02       		.byte	0x2
 1301 0587 23       		.byte	0x23
 1302 0588 14       		.uleb128 0x14
 1303 0589 12       		.uleb128 0x12
 1304 058a A4000000 		.4byte	.LASF139
 1305 058e 04       		.byte	0x4
 1306 058f 68       		.byte	0x68
 1307 0590 48000000 		.4byte	0x48
 1308 0594 02       		.byte	0x2
 1309 0595 23       		.byte	0x23
 1310 0596 16       		.uleb128 0x16
 1311 0597 12       		.uleb128 0x12
 1312 0598 85010000 		.4byte	.LASF140
 1313 059c 04       		.byte	0x4
 1314 059d 69       		.byte	0x69
 1315 059e 05030000 		.4byte	0x305
 1316 05a2 02       		.byte	0x2
 1317 05a3 23       		.byte	0x23
 1318 05a4 18       		.uleb128 0x18
 1319 05a5 12       		.uleb128 0x12
 1320 05a6 AC000000 		.4byte	.LASF141
 1321 05aa 04       		.byte	0x4
 1322 05ab 6A       		.byte	0x6a
 1323 05ac 48000000 		.4byte	0x48
 1324 05b0 02       		.byte	0x2
 1325 05b1 23       		.byte	0x23
 1326 05b2 1A       		.uleb128 0x1a
 1327 05b3 12       		.uleb128 0x12
 1328 05b4 8B010000 		.4byte	.LASF142
 1329 05b8 04       		.byte	0x4
 1330 05b9 6B       		.byte	0x6b
 1331 05ba 05030000 		.4byte	0x305
 1332 05be 02       		.byte	0x2
 1333 05bf 23       		.byte	0x23
 1334 05c0 1C       		.uleb128 0x1c
 1335 05c1 12       		.uleb128 0x12
 1336 05c2 B4000000 		.4byte	.LASF143
 1337 05c6 04       		.byte	0x4
 1338 05c7 6C       		.byte	0x6c
 1339 05c8 48000000 		.4byte	0x48
 1340 05cc 02       		.byte	0x2
 1341 05cd 23       		.byte	0x23
 1342 05ce 1E       		.uleb128 0x1e
 1343 05cf 12       		.uleb128 0x12
 1344 05d0 43020000 		.4byte	.LASF144
 1345 05d4 04       		.byte	0x4
 1346 05d5 6D       		.byte	0x6d
 1347 05d6 05030000 		.4byte	0x305
 1348 05da 02       		.byte	0x2
 1349 05db 23       		.byte	0x23
 1350 05dc 20       		.uleb128 0x20
 1351 05dd 12       		.uleb128 0x12
 1352 05de BC000000 		.4byte	.LASF145
 1353 05e2 04       		.byte	0x4
 1354 05e3 6E       		.byte	0x6e
 1355 05e4 48000000 		.4byte	0x48
 1356 05e8 02       		.byte	0x2
ARM GAS  /tmp/ccSlBs59.s 			page 25


 1357 05e9 23       		.byte	0x23
 1358 05ea 22       		.uleb128 0x22
 1359 05eb 11       		.uleb128 0x11
 1360 05ec 434E5400 		.ascii	"CNT\000"
 1361 05f0 04       		.byte	0x4
 1362 05f1 6F       		.byte	0x6f
 1363 05f2 8C000000 		.4byte	0x8c
 1364 05f6 02       		.byte	0x2
 1365 05f7 23       		.byte	0x23
 1366 05f8 24       		.uleb128 0x24
 1367 05f9 11       		.uleb128 0x11
 1368 05fa 50534300 		.ascii	"PSC\000"
 1369 05fe 04       		.byte	0x4
 1370 05ff 70       		.byte	0x70
 1371 0600 05030000 		.4byte	0x305
 1372 0604 02       		.byte	0x2
 1373 0605 23       		.byte	0x23
 1374 0606 28       		.uleb128 0x28
 1375 0607 12       		.uleb128 0x12
 1376 0608 C4000000 		.4byte	.LASF146
 1377 060c 04       		.byte	0x4
 1378 060d 71       		.byte	0x71
 1379 060e 48000000 		.4byte	0x48
 1380 0612 02       		.byte	0x2
 1381 0613 23       		.byte	0x23
 1382 0614 2A       		.uleb128 0x2a
 1383 0615 11       		.uleb128 0x11
 1384 0616 41525200 		.ascii	"ARR\000"
 1385 061a 04       		.byte	0x4
 1386 061b 72       		.byte	0x72
 1387 061c 8C000000 		.4byte	0x8c
 1388 0620 02       		.byte	0x2
 1389 0621 23       		.byte	0x23
 1390 0622 2C       		.uleb128 0x2c
 1391 0623 11       		.uleb128 0x11
 1392 0624 52435200 		.ascii	"RCR\000"
 1393 0628 04       		.byte	0x4
 1394 0629 73       		.byte	0x73
 1395 062a 05030000 		.4byte	0x305
 1396 062e 02       		.byte	0x2
 1397 062f 23       		.byte	0x23
 1398 0630 30       		.uleb128 0x30
 1399 0631 12       		.uleb128 0x12
 1400 0632 E7010000 		.4byte	.LASF147
 1401 0636 04       		.byte	0x4
 1402 0637 74       		.byte	0x74
 1403 0638 48000000 		.4byte	0x48
 1404 063c 02       		.byte	0x2
 1405 063d 23       		.byte	0x23
 1406 063e 32       		.uleb128 0x32
 1407 063f 11       		.uleb128 0x11
 1408 0640 43435200 		.ascii	"CCR\000"
 1409 0644 04       		.byte	0x4
 1410 0645 75       		.byte	0x75
 1411 0646 BD060000 		.4byte	0x6bd
 1412 064a 02       		.byte	0x2
 1413 064b 23       		.byte	0x23
ARM GAS  /tmp/ccSlBs59.s 			page 26


 1414 064c 34       		.uleb128 0x34
 1415 064d 12       		.uleb128 0x12
 1416 064e B8040000 		.4byte	.LASF148
 1417 0652 04       		.byte	0x4
 1418 0653 76       		.byte	0x76
 1419 0654 05030000 		.4byte	0x305
 1420 0658 02       		.byte	0x2
 1421 0659 23       		.byte	0x23
 1422 065a 44       		.uleb128 0x44
 1423 065b 12       		.uleb128 0x12
 1424 065c DD000000 		.4byte	.LASF149
 1425 0660 04       		.byte	0x4
 1426 0661 77       		.byte	0x77
 1427 0662 48000000 		.4byte	0x48
 1428 0666 02       		.byte	0x2
 1429 0667 23       		.byte	0x23
 1430 0668 46       		.uleb128 0x46
 1431 0669 11       		.uleb128 0x11
 1432 066a 44435200 		.ascii	"DCR\000"
 1433 066e 04       		.byte	0x4
 1434 066f 78       		.byte	0x78
 1435 0670 05030000 		.4byte	0x305
 1436 0674 02       		.byte	0x2
 1437 0675 23       		.byte	0x23
 1438 0676 48       		.uleb128 0x48
 1439 0677 12       		.uleb128 0x12
 1440 0678 F6010000 		.4byte	.LASF150
 1441 067c 04       		.byte	0x4
 1442 067d 79       		.byte	0x79
 1443 067e 48000000 		.4byte	0x48
 1444 0682 02       		.byte	0x2
 1445 0683 23       		.byte	0x23
 1446 0684 4A       		.uleb128 0x4a
 1447 0685 12       		.uleb128 0x12
 1448 0686 3E080000 		.4byte	.LASF151
 1449 068a 04       		.byte	0x4
 1450 068b 7A       		.byte	0x7a
 1451 068c 05030000 		.4byte	0x305
 1452 0690 02       		.byte	0x2
 1453 0691 23       		.byte	0x23
 1454 0692 4C       		.uleb128 0x4c
 1455 0693 12       		.uleb128 0x12
 1456 0694 FF000000 		.4byte	.LASF152
 1457 0698 04       		.byte	0x4
 1458 0699 7B       		.byte	0x7b
 1459 069a 48000000 		.4byte	0x48
 1460 069e 02       		.byte	0x2
 1461 069f 23       		.byte	0x23
 1462 06a0 4E       		.uleb128 0x4e
 1463 06a1 11       		.uleb128 0x11
 1464 06a2 4F5200   		.ascii	"OR\000"
 1465 06a5 04       		.byte	0x4
 1466 06a6 7C       		.byte	0x7c
 1467 06a7 05030000 		.4byte	0x305
 1468 06ab 02       		.byte	0x2
 1469 06ac 23       		.byte	0x23
 1470 06ad 50       		.uleb128 0x50
ARM GAS  /tmp/ccSlBs59.s 			page 27


 1471 06ae 12       		.uleb128 0x12
 1472 06af 08020000 		.4byte	.LASF153
 1473 06b3 04       		.byte	0x4
 1474 06b4 7D       		.byte	0x7d
 1475 06b5 48000000 		.4byte	0x48
 1476 06b9 02       		.byte	0x2
 1477 06ba 23       		.byte	0x23
 1478 06bb 52       		.uleb128 0x52
 1479 06bc 00       		.byte	0
 1480 06bd 05       		.uleb128 0x5
 1481 06be F5020000 		.4byte	0x2f5
 1482 06c2 04       		.uleb128 0x4
 1483 06c3 4B040000 		.4byte	.LASF154
 1484 06c7 04       		.byte	0x4
 1485 06c8 7E       		.byte	0x7e
 1486 06c9 E8040000 		.4byte	0x4e8
 1487 06cd 06       		.uleb128 0x6
 1488 06ce 04       		.byte	0x4
 1489 06cf 8C000000 		.4byte	0x8c
 1490 06d3 13       		.uleb128 0x13
 1491 06d4 01       		.byte	0x1
 1492 06d5 05       		.byte	0x5
 1493 06d6 35       		.byte	0x35
 1494 06d7 00070000 		.4byte	0x700
 1495 06db 09       		.uleb128 0x9
 1496 06dc 22000000 		.4byte	.LASF155
 1497 06e0 00       		.sleb128 0
 1498 06e1 09       		.uleb128 0x9
 1499 06e2 75050000 		.4byte	.LASF156
 1500 06e6 01       		.sleb128 1
 1501 06e7 09       		.uleb128 0x9
 1502 06e8 C9080000 		.4byte	.LASF157
 1503 06ec 02       		.sleb128 2
 1504 06ed 09       		.uleb128 0x9
 1505 06ee 75040000 		.4byte	.LASF158
 1506 06f2 03       		.sleb128 3
 1507 06f3 09       		.uleb128 0x9
 1508 06f4 7A010000 		.4byte	.LASF159
 1509 06f8 04       		.sleb128 4
 1510 06f9 09       		.uleb128 0x9
 1511 06fa 71010000 		.4byte	.LASF160
 1512 06fe 05       		.sleb128 5
 1513 06ff 00       		.byte	0
 1514 0700 04       		.uleb128 0x4
 1515 0701 E6000000 		.4byte	.LASF161
 1516 0705 05       		.byte	0x5
 1517 0706 3C       		.byte	0x3c
 1518 0707 D3060000 		.4byte	0x6d3
 1519 070b 04       		.uleb128 0x4
 1520 070c 39040000 		.4byte	.LASF162
 1521 0710 05       		.byte	0x5
 1522 0711 41       		.byte	0x41
 1523 0712 16070000 		.4byte	0x716
 1524 0716 14       		.uleb128 0x14
 1525 0717 39040000 		.4byte	.LASF162
 1526 071b 18       		.byte	0x18
 1527 071c 06       		.byte	0x6
ARM GAS  /tmp/ccSlBs59.s 			page 28


 1528 071d 1301     		.2byte	0x113
 1529 071f 7E070000 		.4byte	0x77e
 1530 0723 0E       		.uleb128 0xe
 1531 0724 F0010000 		.4byte	.LASF163
 1532 0728 06       		.byte	0x6
 1533 0729 1701     		.2byte	0x117
 1534 072b 00070000 		.4byte	0x700
 1535 072f 02       		.byte	0x2
 1536 0730 23       		.byte	0x23
 1537 0731 00       		.uleb128 0
 1538 0732 0E       		.uleb128 0xe
 1539 0733 37080000 		.4byte	.LASF164
 1540 0737 06       		.byte	0x6
 1541 0738 1B01     		.2byte	0x11b
 1542 073a 58080000 		.4byte	0x858
 1543 073e 02       		.byte	0x2
 1544 073f 23       		.byte	0x23
 1545 0740 04       		.uleb128 0x4
 1546 0741 0E       		.uleb128 0xe
 1547 0742 79090000 		.4byte	.LASF165
 1548 0746 06       		.byte	0x6
 1549 0747 2301     		.2byte	0x123
 1550 0749 6C000000 		.4byte	0x6c
 1551 074d 02       		.byte	0x2
 1552 074e 23       		.byte	0x23
 1553 074f 08       		.uleb128 0x8
 1554 0750 0D       		.uleb128 0xd
 1555 0751 74696D00 		.ascii	"tim\000"
 1556 0755 06       		.byte	0x6
 1557 0756 2701     		.2byte	0x127
 1558 0758 63080000 		.4byte	0x863
 1559 075c 02       		.byte	0x2
 1560 075d 23       		.byte	0x23
 1561 075e 0C       		.uleb128 0xc
 1562 075f 0E       		.uleb128 0xe
 1563 0760 A7090000 		.4byte	.LASF166
 1564 0764 06       		.byte	0x6
 1565 0765 2B01     		.2byte	0x12b
 1566 0767 CD060000 		.4byte	0x6cd
 1567 076b 02       		.byte	0x2
 1568 076c 23       		.byte	0x23
 1569 076d 10       		.uleb128 0x10
 1570 076e 0E       		.uleb128 0xe
 1571 076f BF020000 		.4byte	.LASF167
 1572 0773 06       		.byte	0x6
 1573 0774 2F01     		.2byte	0x12f
 1574 0776 CD060000 		.4byte	0x6cd
 1575 077a 02       		.byte	0x2
 1576 077b 23       		.byte	0x23
 1577 077c 14       		.uleb128 0x14
 1578 077d 00       		.byte	0
 1579 077e 04       		.uleb128 0x4
 1580 077f 74030000 		.4byte	.LASF168
 1581 0783 05       		.byte	0x5
 1582 0784 48       		.byte	0x48
 1583 0785 89070000 		.4byte	0x789
 1584 0789 06       		.uleb128 0x6
ARM GAS  /tmp/ccSlBs59.s 			page 29


 1585 078a 04       		.byte	0x4
 1586 078b 8F070000 		.4byte	0x78f
 1587 078f 15       		.uleb128 0x15
 1588 0790 01       		.byte	0x1
 1589 0791 9B070000 		.4byte	0x79b
 1590 0795 16       		.uleb128 0x16
 1591 0796 9B070000 		.4byte	0x79b
 1592 079a 00       		.byte	0
 1593 079b 06       		.uleb128 0x6
 1594 079c 04       		.byte	0x4
 1595 079d 0B070000 		.4byte	0x70b
 1596 07a1 13       		.uleb128 0x13
 1597 07a2 01       		.byte	0x1
 1598 07a3 06       		.byte	0x6
 1599 07a4 D6       		.byte	0xd6
 1600 07a5 B6070000 		.4byte	0x7b6
 1601 07a9 09       		.uleb128 0x9
 1602 07aa 00000000 		.4byte	.LASF169
 1603 07ae 00       		.sleb128 0
 1604 07af 09       		.uleb128 0x9
 1605 07b0 B9050000 		.4byte	.LASF170
 1606 07b4 01       		.sleb128 1
 1607 07b5 00       		.byte	0
 1608 07b6 04       		.uleb128 0x4
 1609 07b7 5A070000 		.4byte	.LASF171
 1610 07bb 06       		.byte	0x6
 1611 07bc D9       		.byte	0xd9
 1612 07bd A1070000 		.4byte	0x7a1
 1613 07c1 04       		.uleb128 0x4
 1614 07c2 AB080000 		.4byte	.LASF172
 1615 07c6 06       		.byte	0x6
 1616 07c7 DE       		.byte	0xde
 1617 07c8 6C000000 		.4byte	0x6c
 1618 07cc 13       		.uleb128 0x13
 1619 07cd 01       		.byte	0x1
 1620 07ce 06       		.byte	0x6
 1621 07cf E3       		.byte	0xe3
 1622 07d0 E1070000 		.4byte	0x7e1
 1623 07d4 09       		.uleb128 0x9
 1624 07d5 2A090000 		.4byte	.LASF173
 1625 07d9 00       		.sleb128 0
 1626 07da 09       		.uleb128 0x9
 1627 07db 38090000 		.4byte	.LASF174
 1628 07df 01       		.sleb128 1
 1629 07e0 00       		.byte	0
 1630 07e1 04       		.uleb128 0x4
 1631 07e2 8A070000 		.4byte	.LASF175
 1632 07e6 06       		.byte	0x6
 1633 07e7 E6       		.byte	0xe6
 1634 07e8 CC070000 		.4byte	0x7cc
 1635 07ec 10       		.uleb128 0x10
 1636 07ed 18       		.byte	0x18
 1637 07ee 06       		.byte	0x6
 1638 07ef F1       		.byte	0xf1
 1639 07f0 4C080000 		.4byte	0x84c
 1640 07f4 12       		.uleb128 0x12
 1641 07f5 28080000 		.4byte	.LASF176
ARM GAS  /tmp/ccSlBs59.s 			page 30


 1642 07f9 06       		.byte	0x6
 1643 07fa F5       		.byte	0xf5
 1644 07fb B6070000 		.4byte	0x7b6
 1645 07ff 02       		.byte	0x2
 1646 0800 23       		.byte	0x23
 1647 0801 00       		.uleb128 0
 1648 0802 12       		.uleb128 0x12
 1649 0803 5D010000 		.4byte	.LASF177
 1650 0807 06       		.byte	0x6
 1651 0808 FB       		.byte	0xfb
 1652 0809 C1070000 		.4byte	0x7c1
 1653 080d 02       		.byte	0x2
 1654 080e 23       		.byte	0x23
 1655 080f 04       		.uleb128 0x4
 1656 0810 12       		.uleb128 0x12
 1657 0811 24050000 		.4byte	.LASF178
 1658 0815 06       		.byte	0x6
 1659 0816 FF       		.byte	0xff
 1660 0817 7E070000 		.4byte	0x77e
 1661 081b 02       		.byte	0x2
 1662 081c 23       		.byte	0x23
 1663 081d 08       		.uleb128 0x8
 1664 081e 0E       		.uleb128 0xe
 1665 081f A1030000 		.4byte	.LASF179
 1666 0823 06       		.byte	0x6
 1667 0824 0301     		.2byte	0x103
 1668 0826 7E070000 		.4byte	0x77e
 1669 082a 02       		.byte	0x2
 1670 082b 23       		.byte	0x23
 1671 082c 0C       		.uleb128 0xc
 1672 082d 0E       		.uleb128 0xe
 1673 082e 16000000 		.4byte	.LASF180
 1674 0832 06       		.byte	0x6
 1675 0833 0701     		.2byte	0x107
 1676 0835 7E070000 		.4byte	0x77e
 1677 0839 02       		.byte	0x2
 1678 083a 23       		.byte	0x23
 1679 083b 10       		.uleb128 0x10
 1680 083c 0E       		.uleb128 0xe
 1681 083d 97070000 		.4byte	.LASF181
 1682 0841 06       		.byte	0x6
 1683 0842 0D01     		.2byte	0x10d
 1684 0844 E1070000 		.4byte	0x7e1
 1685 0848 02       		.byte	0x2
 1686 0849 23       		.byte	0x23
 1687 084a 14       		.uleb128 0x14
 1688 084b 00       		.byte	0
 1689 084c 0F       		.uleb128 0xf
 1690 084d C2010000 		.4byte	.LASF182
 1691 0851 06       		.byte	0x6
 1692 0852 0E01     		.2byte	0x10e
 1693 0854 EC070000 		.4byte	0x7ec
 1694 0858 06       		.uleb128 0x6
 1695 0859 04       		.byte	0x4
 1696 085a 5E080000 		.4byte	0x85e
 1697 085e 07       		.uleb128 0x7
 1698 085f 4C080000 		.4byte	0x84c
ARM GAS  /tmp/ccSlBs59.s 			page 31


 1699 0863 06       		.uleb128 0x6
 1700 0864 04       		.byte	0x4
 1701 0865 C2060000 		.4byte	0x6c2
 1702 0869 17       		.uleb128 0x17
 1703 086a C9030000 		.4byte	.LASF202
 1704 086e 01       		.byte	0x1
 1705 086f 67       		.byte	0x67
 1706 0870 01       		.byte	0x1
 1707 0871 01       		.byte	0x1
 1708 0872 AA080000 		.4byte	0x8aa
 1709 0876 18       		.uleb128 0x18
 1710 0877 92060000 		.4byte	.LASF188
 1711 087b 01       		.byte	0x1
 1712 087c 67       		.byte	0x67
 1713 087d 9B070000 		.4byte	0x79b
 1714 0881 19       		.uleb128 0x19
 1715 0882 737200   		.ascii	"sr\000"
 1716 0885 01       		.byte	0x1
 1717 0886 68       		.byte	0x68
 1718 0887 48000000 		.4byte	0x48
 1719 088b 1A       		.uleb128 0x1a
 1720 088c 9C080000 		.4byte	0x89c
 1721 0890 1B       		.uleb128 0x1b
 1722 0891 E8070000 		.4byte	.LASF183
 1723 0895 01       		.byte	0x1
 1724 0896 6E       		.byte	0x6e
 1725 0897 00070000 		.4byte	0x700
 1726 089b 00       		.byte	0
 1727 089c 1C       		.uleb128 0x1c
 1728 089d 1B       		.uleb128 0x1b
 1729 089e E8070000 		.4byte	.LASF183
 1730 08a2 01       		.byte	0x1
 1731 08a3 75       		.byte	0x75
 1732 08a4 00070000 		.4byte	0x700
 1733 08a8 00       		.byte	0
 1734 08a9 00       		.byte	0
 1735 08aa 1D       		.uleb128 0x1d
 1736 08ab 01       		.byte	0x1
 1737 08ac DE010000 		.4byte	.LASF184
 1738 08b0 01       		.byte	0x1
 1739 08b1 CB       		.byte	0xcb
 1740 08b2 01       		.byte	0x1
 1741 08b3 00000000 		.4byte	.LFB119
 1742 08b7 A0000000 		.4byte	.LFE119
 1743 08bb 00000000 		.4byte	.LLST0
 1744 08bf 01       		.byte	0x1
 1745 08c0 80090000 		.4byte	0x980
 1746 08c4 1E       		.uleb128 0x1e
 1747 08c5 69080000 		.4byte	0x869
 1748 08c9 02000000 		.4byte	.LBB8
 1749 08cd 00000000 		.4byte	.Ldebug_ranges0+0
 1750 08d1 01       		.byte	0x1
 1751 08d2 CF       		.byte	0xcf
 1752 08d3 63090000 		.4byte	0x963
 1753 08d7 1F       		.uleb128 0x1f
 1754 08d8 20000000 		.4byte	.Ldebug_ranges0+0x20
 1755 08dc 20       		.uleb128 0x20
ARM GAS  /tmp/ccSlBs59.s 			page 32


 1756 08dd 81080000 		.4byte	0x881
 1757 08e1 01       		.byte	0x1
 1758 08e2 55       		.byte	0x55
 1759 08e3 21       		.uleb128 0x21
 1760 08e4 76080000 		.4byte	0x876
 1761 08e8 06       		.byte	0x6
 1762 08e9 03       		.byte	0x3
 1763 08ea 00000000 		.4byte	ICUD3
 1764 08ee 9F       		.byte	0x9f
 1765 08ef 22       		.uleb128 0x22
 1766 08f0 26000000 		.4byte	.LBB10
 1767 08f4 36000000 		.4byte	.LBE10
 1768 08f8 12090000 		.4byte	0x912
 1769 08fc 23       		.uleb128 0x23
 1770 08fd 90080000 		.4byte	0x890
 1771 0901 20000000 		.4byte	.LLST1
 1772 0905 24       		.uleb128 0x24
 1773 0906 36000000 		.4byte	.LVL3
 1774 090a 25       		.uleb128 0x25
 1775 090b 01       		.byte	0x1
 1776 090c 50       		.byte	0x50
 1777 090d 02       		.byte	0x2
 1778 090e 74       		.byte	0x74
 1779 090f 00       		.sleb128 0
 1780 0910 00       		.byte	0
 1781 0911 00       		.byte	0
 1782 0912 22       		.uleb128 0x22
 1783 0913 64000000 		.4byte	.LBB11
 1784 0917 78000000 		.4byte	.LBE11
 1785 091b 35090000 		.4byte	0x935
 1786 091f 23       		.uleb128 0x23
 1787 0920 9D080000 		.4byte	0x89d
 1788 0924 37000000 		.4byte	.LLST2
 1789 0928 24       		.uleb128 0x24
 1790 0929 76000000 		.4byte	.LVL8
 1791 092d 25       		.uleb128 0x25
 1792 092e 01       		.byte	0x1
 1793 092f 50       		.byte	0x50
 1794 0930 02       		.byte	0x2
 1795 0931 74       		.byte	0x74
 1796 0932 00       		.sleb128 0
 1797 0933 00       		.byte	0
 1798 0934 00       		.byte	0
 1799 0935 26       		.uleb128 0x26
 1800 0936 4C000000 		.4byte	.LVL4
 1801 093a 45090000 		.4byte	0x945
 1802 093e 25       		.uleb128 0x25
 1803 093f 01       		.byte	0x1
 1804 0940 50       		.byte	0x50
 1805 0941 02       		.byte	0x2
 1806 0942 74       		.byte	0x74
 1807 0943 00       		.sleb128 0
 1808 0944 00       		.byte	0
 1809 0945 26       		.uleb128 0x26
 1810 0946 82000000 		.4byte	.LVL9
 1811 094a 55090000 		.4byte	0x955
 1812 094e 25       		.uleb128 0x25
ARM GAS  /tmp/ccSlBs59.s 			page 33


 1813 094f 01       		.byte	0x1
 1814 0950 50       		.byte	0x50
 1815 0951 02       		.byte	0x2
 1816 0952 74       		.byte	0x74
 1817 0953 00       		.sleb128 0
 1818 0954 00       		.byte	0
 1819 0955 24       		.uleb128 0x24
 1820 0956 9A000000 		.4byte	.LVL10
 1821 095a 25       		.uleb128 0x25
 1822 095b 01       		.byte	0x1
 1823 095c 50       		.byte	0x50
 1824 095d 02       		.byte	0x2
 1825 095e 74       		.byte	0x74
 1826 095f 00       		.sleb128 0
 1827 0960 00       		.byte	0
 1828 0961 00       		.byte	0
 1829 0962 00       		.byte	0
 1830 0963 27       		.uleb128 0x27
 1831 0964 08000000 		.4byte	.LVL0
 1832 0968 DA0A0000 		.4byte	0xada
 1833 096c 27       		.uleb128 0x27
 1834 096d 50000000 		.4byte	.LVL5
 1835 0971 E40A0000 		.4byte	0xae4
 1836 0975 28       		.uleb128 0x28
 1837 0976 58000000 		.4byte	.LVL6
 1838 097a 01       		.byte	0x1
 1839 097b EE0A0000 		.4byte	0xaee
 1840 097f 00       		.byte	0
 1841 0980 29       		.uleb128 0x29
 1842 0981 01       		.byte	0x1
 1843 0982 F2030000 		.4byte	.LASF185
 1844 0986 01       		.byte	0x1
 1845 0987 3401     		.2byte	0x134
 1846 0989 01       		.byte	0x1
 1847 098a 00000000 		.4byte	.LFB120
 1848 098e 1C000000 		.4byte	.LFE120
 1849 0992 4E000000 		.4byte	.LLST3
 1850 0996 01       		.byte	0x1
 1851 0997 AC090000 		.4byte	0x9ac
 1852 099b 2A       		.uleb128 0x2a
 1853 099c 10000000 		.4byte	.LVL11
 1854 09a0 F90A0000 		.4byte	0xaf9
 1855 09a4 25       		.uleb128 0x25
 1856 09a5 01       		.byte	0x1
 1857 09a6 50       		.byte	0x50
 1858 09a7 02       		.byte	0x2
 1859 09a8 74       		.byte	0x74
 1860 09a9 00       		.sleb128 0
 1861 09aa 00       		.byte	0
 1862 09ab 00       		.byte	0
 1863 09ac 29       		.uleb128 0x29
 1864 09ad 01       		.byte	0x1
 1865 09ae 6B090000 		.4byte	.LASF186
 1866 09b2 01       		.byte	0x1
 1867 09b3 6201     		.2byte	0x162
 1868 09b5 01       		.byte	0x1
 1869 09b6 00000000 		.4byte	.LFB121
ARM GAS  /tmp/ccSlBs59.s 			page 34


 1870 09ba E0000000 		.4byte	.LFE121
 1871 09be 6E000000 		.4byte	.LLST4
 1872 09c2 01       		.byte	0x1
 1873 09c3 2B0A0000 		.4byte	0xa2b
 1874 09c7 2B       		.uleb128 0x2b
 1875 09c8 92060000 		.4byte	.LASF188
 1876 09cc 01       		.byte	0x1
 1877 09cd 6201     		.2byte	0x162
 1878 09cf 9B070000 		.4byte	0x79b
 1879 09d3 8E000000 		.4byte	.LLST5
 1880 09d7 2C       		.uleb128 0x2c
 1881 09d8 70736300 		.ascii	"psc\000"
 1882 09dc 01       		.byte	0x1
 1883 09dd 6301     		.2byte	0x163
 1884 09df 6C000000 		.4byte	0x6c
 1885 09e3 AC000000 		.4byte	.LLST6
 1886 09e7 2D       		.uleb128 0x2d
 1887 09e8 12000000 		.4byte	.LVL14
 1888 09ec 0D0B0000 		.4byte	0xb0d
 1889 09f0 FE090000 		.4byte	0x9fe
 1890 09f4 25       		.uleb128 0x25
 1891 09f5 01       		.byte	0x1
 1892 09f6 50       		.byte	0x50
 1893 09f7 05       		.byte	0x5
 1894 09f8 03       		.byte	0x3
 1895 09f9 00000000 		.4byte	.LC0
 1896 09fd 00       		.byte	0
 1897 09fe 2D       		.uleb128 0x2d
 1898 09ff 48000000 		.4byte	.LVL16
 1899 0a03 0D0B0000 		.4byte	0xb0d
 1900 0a07 150A0000 		.4byte	0xa15
 1901 0a0b 25       		.uleb128 0x25
 1902 0a0c 01       		.byte	0x1
 1903 0a0d 50       		.byte	0x50
 1904 0a0e 05       		.byte	0x5
 1905 0a0f 03       		.byte	0x3
 1906 0a10 00000000 		.4byte	.LC0
 1907 0a14 00       		.byte	0
 1908 0a15 2A       		.uleb128 0x2a
 1909 0a16 CA000000 		.4byte	.LVL18
 1910 0a1a 210B0000 		.4byte	0xb21
 1911 0a1e 25       		.uleb128 0x25
 1912 0a1f 01       		.byte	0x1
 1913 0a20 51       		.byte	0x51
 1914 0a21 02       		.byte	0x2
 1915 0a22 08       		.byte	0x8
 1916 0a23 70       		.byte	0x70
 1917 0a24 25       		.uleb128 0x25
 1918 0a25 01       		.byte	0x1
 1919 0a26 50       		.byte	0x50
 1920 0a27 01       		.byte	0x1
 1921 0a28 4D       		.byte	0x4d
 1922 0a29 00       		.byte	0
 1923 0a2a 00       		.byte	0
 1924 0a2b 29       		.uleb128 0x29
 1925 0a2c 01       		.byte	0x1
 1926 0a2d 8E080000 		.4byte	.LASF187
ARM GAS  /tmp/ccSlBs59.s 			page 35


 1927 0a31 01       		.byte	0x1
 1928 0a32 F101     		.2byte	0x1f1
 1929 0a34 01       		.byte	0x1
 1930 0a35 00000000 		.4byte	.LFB122
 1931 0a39 38000000 		.4byte	.LFE122
 1932 0a3d BF000000 		.4byte	.LLST7
 1933 0a41 01       		.byte	0x1
 1934 0a42 660A0000 		.4byte	0xa66
 1935 0a46 2B       		.uleb128 0x2b
 1936 0a47 92060000 		.4byte	.LASF188
 1937 0a4b 01       		.byte	0x1
 1938 0a4c F101     		.2byte	0x1f1
 1939 0a4e 9B070000 		.4byte	0x79b
 1940 0a52 DF000000 		.4byte	.LLST8
 1941 0a56 2A       		.uleb128 0x2a
 1942 0a57 20000000 		.4byte	.LVL23
 1943 0a5b 3B0B0000 		.4byte	0xb3b
 1944 0a5f 25       		.uleb128 0x25
 1945 0a60 01       		.byte	0x1
 1946 0a61 50       		.byte	0x50
 1947 0a62 01       		.byte	0x1
 1948 0a63 4D       		.byte	0x4d
 1949 0a64 00       		.byte	0
 1950 0a65 00       		.byte	0
 1951 0a66 2E       		.uleb128 0x2e
 1952 0a67 01       		.byte	0x1
 1953 0a68 FB060000 		.4byte	.LASF189
 1954 0a6c 01       		.byte	0x1
 1955 0a6d 2902     		.2byte	0x229
 1956 0a6f 01       		.byte	0x1
 1957 0a70 00000000 		.4byte	.LFB123
 1958 0a74 52000000 		.4byte	.LFE123
 1959 0a78 02       		.byte	0x2
 1960 0a79 7D       		.byte	0x7d
 1961 0a7a 00       		.sleb128 0
 1962 0a7b 01       		.byte	0x1
 1963 0a7c 910A0000 		.4byte	0xa91
 1964 0a80 2B       		.uleb128 0x2b
 1965 0a81 92060000 		.4byte	.LASF188
 1966 0a85 01       		.byte	0x1
 1967 0a86 2902     		.2byte	0x229
 1968 0a88 9B070000 		.4byte	0x79b
 1969 0a8c 19010000 		.4byte	.LLST9
 1970 0a90 00       		.byte	0
 1971 0a91 2E       		.uleb128 0x2e
 1972 0a92 01       		.byte	0x1
 1973 0a93 E3050000 		.4byte	.LASF190
 1974 0a97 01       		.byte	0x1
 1975 0a98 4302     		.2byte	0x243
 1976 0a9a 01       		.byte	0x1
 1977 0a9b 00000000 		.4byte	.LFB124
 1978 0a9f 0C000000 		.4byte	.LFE124
 1979 0aa3 02       		.byte	0x2
 1980 0aa4 7D       		.byte	0x7d
 1981 0aa5 00       		.sleb128 0
 1982 0aa6 01       		.byte	0x1
 1983 0aa7 BA0A0000 		.4byte	0xaba
ARM GAS  /tmp/ccSlBs59.s 			page 36


 1984 0aab 2F       		.uleb128 0x2f
 1985 0aac 92060000 		.4byte	.LASF188
 1986 0ab0 01       		.byte	0x1
 1987 0ab1 4302     		.2byte	0x243
 1988 0ab3 9B070000 		.4byte	0x79b
 1989 0ab7 01       		.byte	0x1
 1990 0ab8 50       		.byte	0x50
 1991 0ab9 00       		.byte	0
 1992 0aba 30       		.uleb128 0x30
 1993 0abb EE060000 		.4byte	.LASF191
 1994 0abf 07       		.byte	0x7
 1995 0ac0 9806     		.2byte	0x698
 1996 0ac2 0A030000 		.4byte	0x30a
 1997 0ac6 01       		.byte	0x1
 1998 0ac7 01       		.byte	0x1
 1999 0ac8 31       		.uleb128 0x31
 2000 0ac9 43060000 		.4byte	.LASF192
 2001 0acd 01       		.byte	0x1
 2002 0ace 3F       		.byte	0x3f
 2003 0acf 0B070000 		.4byte	0x70b
 2004 0ad3 01       		.byte	0x1
 2005 0ad4 05       		.byte	0x5
 2006 0ad5 03       		.byte	0x3
 2007 0ad6 00000000 		.4byte	ICUD3
 2008 0ada 32       		.uleb128 0x32
 2009 0adb 01       		.byte	0x1
 2010 0adc FA020000 		.4byte	.LASF193
 2011 0ae0 08       		.byte	0x8
 2012 0ae1 E4       		.byte	0xe4
 2013 0ae2 01       		.byte	0x1
 2014 0ae3 01       		.byte	0x1
 2015 0ae4 32       		.uleb128 0x32
 2016 0ae5 01       		.byte	0x1
 2017 0ae6 B5080000 		.4byte	.LASF194
 2018 0aea 08       		.byte	0x8
 2019 0aeb E5       		.byte	0xe5
 2020 0aec 01       		.byte	0x1
 2021 0aed 01       		.byte	0x1
 2022 0aee 33       		.uleb128 0x33
 2023 0aef 01       		.byte	0x1
 2024 0af0 8E030000 		.4byte	.LASF195
 2025 0af4 09       		.byte	0x9
 2026 0af5 FC01     		.2byte	0x1fc
 2027 0af7 01       		.byte	0x1
 2028 0af8 01       		.byte	0x1
 2029 0af9 34       		.uleb128 0x34
 2030 0afa 01       		.byte	0x1
 2031 0afb BE070000 		.4byte	.LASF196
 2032 0aff 05       		.byte	0x5
 2033 0b00 B5       		.byte	0xb5
 2034 0b01 01       		.byte	0x1
 2035 0b02 01       		.byte	0x1
 2036 0b03 0D0B0000 		.4byte	0xb0d
 2037 0b07 16       		.uleb128 0x16
 2038 0b08 9B070000 		.4byte	0x79b
 2039 0b0c 00       		.byte	0
 2040 0b0d 34       		.uleb128 0x34
ARM GAS  /tmp/ccSlBs59.s 			page 37


 2041 0b0e 01       		.byte	0x1
 2042 0b0f 52000000 		.4byte	.LASF197
 2043 0b13 08       		.byte	0x8
 2044 0b14 EF       		.byte	0xef
 2045 0b15 01       		.byte	0x1
 2046 0b16 01       		.byte	0x1
 2047 0b17 210B0000 		.4byte	0xb21
 2048 0b1b 16       		.uleb128 0x16
 2049 0b1c 98000000 		.4byte	0x98
 2050 0b20 00       		.byte	0
 2051 0b21 35       		.uleb128 0x35
 2052 0b22 01       		.byte	0x1
 2053 0b23 CC000000 		.4byte	.LASF198
 2054 0b27 0A       		.byte	0xa
 2055 0b28 1C01     		.2byte	0x11c
 2056 0b2a 01       		.byte	0x1
 2057 0b2b 01       		.byte	0x1
 2058 0b2c 3B0B0000 		.4byte	0xb3b
 2059 0b30 16       		.uleb128 0x16
 2060 0b31 6C000000 		.4byte	0x6c
 2061 0b35 16       		.uleb128 0x16
 2062 0b36 6C000000 		.4byte	0x6c
 2063 0b3a 00       		.byte	0
 2064 0b3b 36       		.uleb128 0x36
 2065 0b3c 01       		.byte	0x1
 2066 0b3d F7070000 		.4byte	.LASF203
 2067 0b41 0A       		.byte	0xa
 2068 0b42 1D01     		.2byte	0x11d
 2069 0b44 01       		.byte	0x1
 2070 0b45 01       		.byte	0x1
 2071 0b46 16       		.uleb128 0x16
 2072 0b47 6C000000 		.4byte	0x6c
 2073 0b4b 00       		.byte	0
 2074 0b4c 00       		.byte	0
 2075              		.section	.debug_abbrev,"",%progbits
 2076              	.Ldebug_abbrev0:
 2077 0000 01       		.uleb128 0x1
 2078 0001 11       		.uleb128 0x11
 2079 0002 01       		.byte	0x1
 2080 0003 25       		.uleb128 0x25
 2081 0004 0E       		.uleb128 0xe
 2082 0005 13       		.uleb128 0x13
 2083 0006 0B       		.uleb128 0xb
 2084 0007 03       		.uleb128 0x3
 2085 0008 0E       		.uleb128 0xe
 2086 0009 55       		.uleb128 0x55
 2087 000a 06       		.uleb128 0x6
 2088 000b 11       		.uleb128 0x11
 2089 000c 01       		.uleb128 0x1
 2090 000d 52       		.uleb128 0x52
 2091 000e 01       		.uleb128 0x1
 2092 000f 10       		.uleb128 0x10
 2093 0010 06       		.uleb128 0x6
 2094 0011 00       		.byte	0
 2095 0012 00       		.byte	0
 2096 0013 02       		.uleb128 0x2
 2097 0014 24       		.uleb128 0x24
ARM GAS  /tmp/ccSlBs59.s 			page 38


 2098 0015 00       		.byte	0
 2099 0016 0B       		.uleb128 0xb
 2100 0017 0B       		.uleb128 0xb
 2101 0018 3E       		.uleb128 0x3e
 2102 0019 0B       		.uleb128 0xb
 2103 001a 03       		.uleb128 0x3
 2104 001b 08       		.uleb128 0x8
 2105 001c 00       		.byte	0
 2106 001d 00       		.byte	0
 2107 001e 03       		.uleb128 0x3
 2108 001f 24       		.uleb128 0x24
 2109 0020 00       		.byte	0
 2110 0021 0B       		.uleb128 0xb
 2111 0022 0B       		.uleb128 0xb
 2112 0023 3E       		.uleb128 0x3e
 2113 0024 0B       		.uleb128 0xb
 2114 0025 03       		.uleb128 0x3
 2115 0026 0E       		.uleb128 0xe
 2116 0027 00       		.byte	0
 2117 0028 00       		.byte	0
 2118 0029 04       		.uleb128 0x4
 2119 002a 16       		.uleb128 0x16
 2120 002b 00       		.byte	0
 2121 002c 03       		.uleb128 0x3
 2122 002d 0E       		.uleb128 0xe
 2123 002e 3A       		.uleb128 0x3a
 2124 002f 0B       		.uleb128 0xb
 2125 0030 3B       		.uleb128 0x3b
 2126 0031 0B       		.uleb128 0xb
 2127 0032 49       		.uleb128 0x49
 2128 0033 13       		.uleb128 0x13
 2129 0034 00       		.byte	0
 2130 0035 00       		.byte	0
 2131 0036 05       		.uleb128 0x5
 2132 0037 35       		.uleb128 0x35
 2133 0038 00       		.byte	0
 2134 0039 49       		.uleb128 0x49
 2135 003a 13       		.uleb128 0x13
 2136 003b 00       		.byte	0
 2137 003c 00       		.byte	0
 2138 003d 06       		.uleb128 0x6
 2139 003e 0F       		.uleb128 0xf
 2140 003f 00       		.byte	0
 2141 0040 0B       		.uleb128 0xb
 2142 0041 0B       		.uleb128 0xb
 2143 0042 49       		.uleb128 0x49
 2144 0043 13       		.uleb128 0x13
 2145 0044 00       		.byte	0
 2146 0045 00       		.byte	0
 2147 0046 07       		.uleb128 0x7
 2148 0047 26       		.uleb128 0x26
 2149 0048 00       		.byte	0
 2150 0049 49       		.uleb128 0x49
 2151 004a 13       		.uleb128 0x13
 2152 004b 00       		.byte	0
 2153 004c 00       		.byte	0
 2154 004d 08       		.uleb128 0x8
ARM GAS  /tmp/ccSlBs59.s 			page 39


 2155 004e 04       		.uleb128 0x4
 2156 004f 01       		.byte	0x1
 2157 0050 03       		.uleb128 0x3
 2158 0051 0E       		.uleb128 0xe
 2159 0052 0B       		.uleb128 0xb
 2160 0053 0B       		.uleb128 0xb
 2161 0054 3A       		.uleb128 0x3a
 2162 0055 0B       		.uleb128 0xb
 2163 0056 3B       		.uleb128 0x3b
 2164 0057 0B       		.uleb128 0xb
 2165 0058 01       		.uleb128 0x1
 2166 0059 13       		.uleb128 0x13
 2167 005a 00       		.byte	0
 2168 005b 00       		.byte	0
 2169 005c 09       		.uleb128 0x9
 2170 005d 28       		.uleb128 0x28
 2171 005e 00       		.byte	0
 2172 005f 03       		.uleb128 0x3
 2173 0060 0E       		.uleb128 0xe
 2174 0061 1C       		.uleb128 0x1c
 2175 0062 0D       		.uleb128 0xd
 2176 0063 00       		.byte	0
 2177 0064 00       		.byte	0
 2178 0065 0A       		.uleb128 0xa
 2179 0066 01       		.uleb128 0x1
 2180 0067 01       		.byte	0x1
 2181 0068 49       		.uleb128 0x49
 2182 0069 13       		.uleb128 0x13
 2183 006a 01       		.uleb128 0x1
 2184 006b 13       		.uleb128 0x13
 2185 006c 00       		.byte	0
 2186 006d 00       		.byte	0
 2187 006e 0B       		.uleb128 0xb
 2188 006f 21       		.uleb128 0x21
 2189 0070 00       		.byte	0
 2190 0071 49       		.uleb128 0x49
 2191 0072 13       		.uleb128 0x13
 2192 0073 2F       		.uleb128 0x2f
 2193 0074 0B       		.uleb128 0xb
 2194 0075 00       		.byte	0
 2195 0076 00       		.byte	0
 2196 0077 0C       		.uleb128 0xc
 2197 0078 13       		.uleb128 0x13
 2198 0079 01       		.byte	0x1
 2199 007a 0B       		.uleb128 0xb
 2200 007b 0B       		.uleb128 0xb
 2201 007c 3A       		.uleb128 0x3a
 2202 007d 0B       		.uleb128 0xb
 2203 007e 3B       		.uleb128 0x3b
 2204 007f 05       		.uleb128 0x5
 2205 0080 01       		.uleb128 0x1
 2206 0081 13       		.uleb128 0x13
 2207 0082 00       		.byte	0
 2208 0083 00       		.byte	0
 2209 0084 0D       		.uleb128 0xd
 2210 0085 0D       		.uleb128 0xd
 2211 0086 00       		.byte	0
ARM GAS  /tmp/ccSlBs59.s 			page 40


 2212 0087 03       		.uleb128 0x3
 2213 0088 08       		.uleb128 0x8
 2214 0089 3A       		.uleb128 0x3a
 2215 008a 0B       		.uleb128 0xb
 2216 008b 3B       		.uleb128 0x3b
 2217 008c 05       		.uleb128 0x5
 2218 008d 49       		.uleb128 0x49
 2219 008e 13       		.uleb128 0x13
 2220 008f 38       		.uleb128 0x38
 2221 0090 0A       		.uleb128 0xa
 2222 0091 00       		.byte	0
 2223 0092 00       		.byte	0
 2224 0093 0E       		.uleb128 0xe
 2225 0094 0D       		.uleb128 0xd
 2226 0095 00       		.byte	0
 2227 0096 03       		.uleb128 0x3
 2228 0097 0E       		.uleb128 0xe
 2229 0098 3A       		.uleb128 0x3a
 2230 0099 0B       		.uleb128 0xb
 2231 009a 3B       		.uleb128 0x3b
 2232 009b 05       		.uleb128 0x5
 2233 009c 49       		.uleb128 0x49
 2234 009d 13       		.uleb128 0x13
 2235 009e 38       		.uleb128 0x38
 2236 009f 0A       		.uleb128 0xa
 2237 00a0 00       		.byte	0
 2238 00a1 00       		.byte	0
 2239 00a2 0F       		.uleb128 0xf
 2240 00a3 16       		.uleb128 0x16
 2241 00a4 00       		.byte	0
 2242 00a5 03       		.uleb128 0x3
 2243 00a6 0E       		.uleb128 0xe
 2244 00a7 3A       		.uleb128 0x3a
 2245 00a8 0B       		.uleb128 0xb
 2246 00a9 3B       		.uleb128 0x3b
 2247 00aa 05       		.uleb128 0x5
 2248 00ab 49       		.uleb128 0x49
 2249 00ac 13       		.uleb128 0x13
 2250 00ad 00       		.byte	0
 2251 00ae 00       		.byte	0
 2252 00af 10       		.uleb128 0x10
 2253 00b0 13       		.uleb128 0x13
 2254 00b1 01       		.byte	0x1
 2255 00b2 0B       		.uleb128 0xb
 2256 00b3 0B       		.uleb128 0xb
 2257 00b4 3A       		.uleb128 0x3a
 2258 00b5 0B       		.uleb128 0xb
 2259 00b6 3B       		.uleb128 0x3b
 2260 00b7 0B       		.uleb128 0xb
 2261 00b8 01       		.uleb128 0x1
 2262 00b9 13       		.uleb128 0x13
 2263 00ba 00       		.byte	0
 2264 00bb 00       		.byte	0
 2265 00bc 11       		.uleb128 0x11
 2266 00bd 0D       		.uleb128 0xd
 2267 00be 00       		.byte	0
 2268 00bf 03       		.uleb128 0x3
ARM GAS  /tmp/ccSlBs59.s 			page 41


 2269 00c0 08       		.uleb128 0x8
 2270 00c1 3A       		.uleb128 0x3a
 2271 00c2 0B       		.uleb128 0xb
 2272 00c3 3B       		.uleb128 0x3b
 2273 00c4 0B       		.uleb128 0xb
 2274 00c5 49       		.uleb128 0x49
 2275 00c6 13       		.uleb128 0x13
 2276 00c7 38       		.uleb128 0x38
 2277 00c8 0A       		.uleb128 0xa
 2278 00c9 00       		.byte	0
 2279 00ca 00       		.byte	0
 2280 00cb 12       		.uleb128 0x12
 2281 00cc 0D       		.uleb128 0xd
 2282 00cd 00       		.byte	0
 2283 00ce 03       		.uleb128 0x3
 2284 00cf 0E       		.uleb128 0xe
 2285 00d0 3A       		.uleb128 0x3a
 2286 00d1 0B       		.uleb128 0xb
 2287 00d2 3B       		.uleb128 0x3b
 2288 00d3 0B       		.uleb128 0xb
 2289 00d4 49       		.uleb128 0x49
 2290 00d5 13       		.uleb128 0x13
 2291 00d6 38       		.uleb128 0x38
 2292 00d7 0A       		.uleb128 0xa
 2293 00d8 00       		.byte	0
 2294 00d9 00       		.byte	0
 2295 00da 13       		.uleb128 0x13
 2296 00db 04       		.uleb128 0x4
 2297 00dc 01       		.byte	0x1
 2298 00dd 0B       		.uleb128 0xb
 2299 00de 0B       		.uleb128 0xb
 2300 00df 3A       		.uleb128 0x3a
 2301 00e0 0B       		.uleb128 0xb
 2302 00e1 3B       		.uleb128 0x3b
 2303 00e2 0B       		.uleb128 0xb
 2304 00e3 01       		.uleb128 0x1
 2305 00e4 13       		.uleb128 0x13
 2306 00e5 00       		.byte	0
 2307 00e6 00       		.byte	0
 2308 00e7 14       		.uleb128 0x14
 2309 00e8 13       		.uleb128 0x13
 2310 00e9 01       		.byte	0x1
 2311 00ea 03       		.uleb128 0x3
 2312 00eb 0E       		.uleb128 0xe
 2313 00ec 0B       		.uleb128 0xb
 2314 00ed 0B       		.uleb128 0xb
 2315 00ee 3A       		.uleb128 0x3a
 2316 00ef 0B       		.uleb128 0xb
 2317 00f0 3B       		.uleb128 0x3b
 2318 00f1 05       		.uleb128 0x5
 2319 00f2 01       		.uleb128 0x1
 2320 00f3 13       		.uleb128 0x13
 2321 00f4 00       		.byte	0
 2322 00f5 00       		.byte	0
 2323 00f6 15       		.uleb128 0x15
 2324 00f7 15       		.uleb128 0x15
 2325 00f8 01       		.byte	0x1
ARM GAS  /tmp/ccSlBs59.s 			page 42


 2326 00f9 27       		.uleb128 0x27
 2327 00fa 0C       		.uleb128 0xc
 2328 00fb 01       		.uleb128 0x1
 2329 00fc 13       		.uleb128 0x13
 2330 00fd 00       		.byte	0
 2331 00fe 00       		.byte	0
 2332 00ff 16       		.uleb128 0x16
 2333 0100 05       		.uleb128 0x5
 2334 0101 00       		.byte	0
 2335 0102 49       		.uleb128 0x49
 2336 0103 13       		.uleb128 0x13
 2337 0104 00       		.byte	0
 2338 0105 00       		.byte	0
 2339 0106 17       		.uleb128 0x17
 2340 0107 2E       		.uleb128 0x2e
 2341 0108 01       		.byte	0x1
 2342 0109 03       		.uleb128 0x3
 2343 010a 0E       		.uleb128 0xe
 2344 010b 3A       		.uleb128 0x3a
 2345 010c 0B       		.uleb128 0xb
 2346 010d 3B       		.uleb128 0x3b
 2347 010e 0B       		.uleb128 0xb
 2348 010f 27       		.uleb128 0x27
 2349 0110 0C       		.uleb128 0xc
 2350 0111 20       		.uleb128 0x20
 2351 0112 0B       		.uleb128 0xb
 2352 0113 01       		.uleb128 0x1
 2353 0114 13       		.uleb128 0x13
 2354 0115 00       		.byte	0
 2355 0116 00       		.byte	0
 2356 0117 18       		.uleb128 0x18
 2357 0118 05       		.uleb128 0x5
 2358 0119 00       		.byte	0
 2359 011a 03       		.uleb128 0x3
 2360 011b 0E       		.uleb128 0xe
 2361 011c 3A       		.uleb128 0x3a
 2362 011d 0B       		.uleb128 0xb
 2363 011e 3B       		.uleb128 0x3b
 2364 011f 0B       		.uleb128 0xb
 2365 0120 49       		.uleb128 0x49
 2366 0121 13       		.uleb128 0x13
 2367 0122 00       		.byte	0
 2368 0123 00       		.byte	0
 2369 0124 19       		.uleb128 0x19
 2370 0125 34       		.uleb128 0x34
 2371 0126 00       		.byte	0
 2372 0127 03       		.uleb128 0x3
 2373 0128 08       		.uleb128 0x8
 2374 0129 3A       		.uleb128 0x3a
 2375 012a 0B       		.uleb128 0xb
 2376 012b 3B       		.uleb128 0x3b
 2377 012c 0B       		.uleb128 0xb
 2378 012d 49       		.uleb128 0x49
 2379 012e 13       		.uleb128 0x13
 2380 012f 00       		.byte	0
 2381 0130 00       		.byte	0
 2382 0131 1A       		.uleb128 0x1a
ARM GAS  /tmp/ccSlBs59.s 			page 43


 2383 0132 0B       		.uleb128 0xb
 2384 0133 01       		.byte	0x1
 2385 0134 01       		.uleb128 0x1
 2386 0135 13       		.uleb128 0x13
 2387 0136 00       		.byte	0
 2388 0137 00       		.byte	0
 2389 0138 1B       		.uleb128 0x1b
 2390 0139 34       		.uleb128 0x34
 2391 013a 00       		.byte	0
 2392 013b 03       		.uleb128 0x3
 2393 013c 0E       		.uleb128 0xe
 2394 013d 3A       		.uleb128 0x3a
 2395 013e 0B       		.uleb128 0xb
 2396 013f 3B       		.uleb128 0x3b
 2397 0140 0B       		.uleb128 0xb
 2398 0141 49       		.uleb128 0x49
 2399 0142 13       		.uleb128 0x13
 2400 0143 00       		.byte	0
 2401 0144 00       		.byte	0
 2402 0145 1C       		.uleb128 0x1c
 2403 0146 0B       		.uleb128 0xb
 2404 0147 01       		.byte	0x1
 2405 0148 00       		.byte	0
 2406 0149 00       		.byte	0
 2407 014a 1D       		.uleb128 0x1d
 2408 014b 2E       		.uleb128 0x2e
 2409 014c 01       		.byte	0x1
 2410 014d 3F       		.uleb128 0x3f
 2411 014e 0C       		.uleb128 0xc
 2412 014f 03       		.uleb128 0x3
 2413 0150 0E       		.uleb128 0xe
 2414 0151 3A       		.uleb128 0x3a
 2415 0152 0B       		.uleb128 0xb
 2416 0153 3B       		.uleb128 0x3b
 2417 0154 0B       		.uleb128 0xb
 2418 0155 27       		.uleb128 0x27
 2419 0156 0C       		.uleb128 0xc
 2420 0157 11       		.uleb128 0x11
 2421 0158 01       		.uleb128 0x1
 2422 0159 12       		.uleb128 0x12
 2423 015a 01       		.uleb128 0x1
 2424 015b 40       		.uleb128 0x40
 2425 015c 06       		.uleb128 0x6
 2426 015d 9742     		.uleb128 0x2117
 2427 015f 0C       		.uleb128 0xc
 2428 0160 01       		.uleb128 0x1
 2429 0161 13       		.uleb128 0x13
 2430 0162 00       		.byte	0
 2431 0163 00       		.byte	0
 2432 0164 1E       		.uleb128 0x1e
 2433 0165 1D       		.uleb128 0x1d
 2434 0166 01       		.byte	0x1
 2435 0167 31       		.uleb128 0x31
 2436 0168 13       		.uleb128 0x13
 2437 0169 52       		.uleb128 0x52
 2438 016a 01       		.uleb128 0x1
 2439 016b 55       		.uleb128 0x55
ARM GAS  /tmp/ccSlBs59.s 			page 44


 2440 016c 06       		.uleb128 0x6
 2441 016d 58       		.uleb128 0x58
 2442 016e 0B       		.uleb128 0xb
 2443 016f 59       		.uleb128 0x59
 2444 0170 0B       		.uleb128 0xb
 2445 0171 01       		.uleb128 0x1
 2446 0172 13       		.uleb128 0x13
 2447 0173 00       		.byte	0
 2448 0174 00       		.byte	0
 2449 0175 1F       		.uleb128 0x1f
 2450 0176 0B       		.uleb128 0xb
 2451 0177 01       		.byte	0x1
 2452 0178 55       		.uleb128 0x55
 2453 0179 06       		.uleb128 0x6
 2454 017a 00       		.byte	0
 2455 017b 00       		.byte	0
 2456 017c 20       		.uleb128 0x20
 2457 017d 34       		.uleb128 0x34
 2458 017e 00       		.byte	0
 2459 017f 31       		.uleb128 0x31
 2460 0180 13       		.uleb128 0x13
 2461 0181 02       		.uleb128 0x2
 2462 0182 0A       		.uleb128 0xa
 2463 0183 00       		.byte	0
 2464 0184 00       		.byte	0
 2465 0185 21       		.uleb128 0x21
 2466 0186 05       		.uleb128 0x5
 2467 0187 00       		.byte	0
 2468 0188 31       		.uleb128 0x31
 2469 0189 13       		.uleb128 0x13
 2470 018a 02       		.uleb128 0x2
 2471 018b 0A       		.uleb128 0xa
 2472 018c 00       		.byte	0
 2473 018d 00       		.byte	0
 2474 018e 22       		.uleb128 0x22
 2475 018f 0B       		.uleb128 0xb
 2476 0190 01       		.byte	0x1
 2477 0191 11       		.uleb128 0x11
 2478 0192 01       		.uleb128 0x1
 2479 0193 12       		.uleb128 0x12
 2480 0194 01       		.uleb128 0x1
 2481 0195 01       		.uleb128 0x1
 2482 0196 13       		.uleb128 0x13
 2483 0197 00       		.byte	0
 2484 0198 00       		.byte	0
 2485 0199 23       		.uleb128 0x23
 2486 019a 34       		.uleb128 0x34
 2487 019b 00       		.byte	0
 2488 019c 31       		.uleb128 0x31
 2489 019d 13       		.uleb128 0x13
 2490 019e 02       		.uleb128 0x2
 2491 019f 06       		.uleb128 0x6
 2492 01a0 00       		.byte	0
 2493 01a1 00       		.byte	0
 2494 01a2 24       		.uleb128 0x24
 2495 01a3 898201   		.uleb128 0x4109
 2496 01a6 01       		.byte	0x1
ARM GAS  /tmp/ccSlBs59.s 			page 45


 2497 01a7 11       		.uleb128 0x11
 2498 01a8 01       		.uleb128 0x1
 2499 01a9 00       		.byte	0
 2500 01aa 00       		.byte	0
 2501 01ab 25       		.uleb128 0x25
 2502 01ac 8A8201   		.uleb128 0x410a
 2503 01af 00       		.byte	0
 2504 01b0 02       		.uleb128 0x2
 2505 01b1 0A       		.uleb128 0xa
 2506 01b2 9142     		.uleb128 0x2111
 2507 01b4 0A       		.uleb128 0xa
 2508 01b5 00       		.byte	0
 2509 01b6 00       		.byte	0
 2510 01b7 26       		.uleb128 0x26
 2511 01b8 898201   		.uleb128 0x4109
 2512 01bb 01       		.byte	0x1
 2513 01bc 11       		.uleb128 0x11
 2514 01bd 01       		.uleb128 0x1
 2515 01be 01       		.uleb128 0x1
 2516 01bf 13       		.uleb128 0x13
 2517 01c0 00       		.byte	0
 2518 01c1 00       		.byte	0
 2519 01c2 27       		.uleb128 0x27
 2520 01c3 898201   		.uleb128 0x4109
 2521 01c6 00       		.byte	0
 2522 01c7 11       		.uleb128 0x11
 2523 01c8 01       		.uleb128 0x1
 2524 01c9 31       		.uleb128 0x31
 2525 01ca 13       		.uleb128 0x13
 2526 01cb 00       		.byte	0
 2527 01cc 00       		.byte	0
 2528 01cd 28       		.uleb128 0x28
 2529 01ce 898201   		.uleb128 0x4109
 2530 01d1 00       		.byte	0
 2531 01d2 11       		.uleb128 0x11
 2532 01d3 01       		.uleb128 0x1
 2533 01d4 9542     		.uleb128 0x2115
 2534 01d6 0C       		.uleb128 0xc
 2535 01d7 31       		.uleb128 0x31
 2536 01d8 13       		.uleb128 0x13
 2537 01d9 00       		.byte	0
 2538 01da 00       		.byte	0
 2539 01db 29       		.uleb128 0x29
 2540 01dc 2E       		.uleb128 0x2e
 2541 01dd 01       		.byte	0x1
 2542 01de 3F       		.uleb128 0x3f
 2543 01df 0C       		.uleb128 0xc
 2544 01e0 03       		.uleb128 0x3
 2545 01e1 0E       		.uleb128 0xe
 2546 01e2 3A       		.uleb128 0x3a
 2547 01e3 0B       		.uleb128 0xb
 2548 01e4 3B       		.uleb128 0x3b
 2549 01e5 05       		.uleb128 0x5
 2550 01e6 27       		.uleb128 0x27
 2551 01e7 0C       		.uleb128 0xc
 2552 01e8 11       		.uleb128 0x11
 2553 01e9 01       		.uleb128 0x1
ARM GAS  /tmp/ccSlBs59.s 			page 46


 2554 01ea 12       		.uleb128 0x12
 2555 01eb 01       		.uleb128 0x1
 2556 01ec 40       		.uleb128 0x40
 2557 01ed 06       		.uleb128 0x6
 2558 01ee 9742     		.uleb128 0x2117
 2559 01f0 0C       		.uleb128 0xc
 2560 01f1 01       		.uleb128 0x1
 2561 01f2 13       		.uleb128 0x13
 2562 01f3 00       		.byte	0
 2563 01f4 00       		.byte	0
 2564 01f5 2A       		.uleb128 0x2a
 2565 01f6 898201   		.uleb128 0x4109
 2566 01f9 01       		.byte	0x1
 2567 01fa 11       		.uleb128 0x11
 2568 01fb 01       		.uleb128 0x1
 2569 01fc 31       		.uleb128 0x31
 2570 01fd 13       		.uleb128 0x13
 2571 01fe 00       		.byte	0
 2572 01ff 00       		.byte	0
 2573 0200 2B       		.uleb128 0x2b
 2574 0201 05       		.uleb128 0x5
 2575 0202 00       		.byte	0
 2576 0203 03       		.uleb128 0x3
 2577 0204 0E       		.uleb128 0xe
 2578 0205 3A       		.uleb128 0x3a
 2579 0206 0B       		.uleb128 0xb
 2580 0207 3B       		.uleb128 0x3b
 2581 0208 05       		.uleb128 0x5
 2582 0209 49       		.uleb128 0x49
 2583 020a 13       		.uleb128 0x13
 2584 020b 02       		.uleb128 0x2
 2585 020c 06       		.uleb128 0x6
 2586 020d 00       		.byte	0
 2587 020e 00       		.byte	0
 2588 020f 2C       		.uleb128 0x2c
 2589 0210 34       		.uleb128 0x34
 2590 0211 00       		.byte	0
 2591 0212 03       		.uleb128 0x3
 2592 0213 08       		.uleb128 0x8
 2593 0214 3A       		.uleb128 0x3a
 2594 0215 0B       		.uleb128 0xb
 2595 0216 3B       		.uleb128 0x3b
 2596 0217 05       		.uleb128 0x5
 2597 0218 49       		.uleb128 0x49
 2598 0219 13       		.uleb128 0x13
 2599 021a 02       		.uleb128 0x2
 2600 021b 06       		.uleb128 0x6
 2601 021c 00       		.byte	0
 2602 021d 00       		.byte	0
 2603 021e 2D       		.uleb128 0x2d
 2604 021f 898201   		.uleb128 0x4109
 2605 0222 01       		.byte	0x1
 2606 0223 11       		.uleb128 0x11
 2607 0224 01       		.uleb128 0x1
 2608 0225 31       		.uleb128 0x31
 2609 0226 13       		.uleb128 0x13
 2610 0227 01       		.uleb128 0x1
ARM GAS  /tmp/ccSlBs59.s 			page 47


 2611 0228 13       		.uleb128 0x13
 2612 0229 00       		.byte	0
 2613 022a 00       		.byte	0
 2614 022b 2E       		.uleb128 0x2e
 2615 022c 2E       		.uleb128 0x2e
 2616 022d 01       		.byte	0x1
 2617 022e 3F       		.uleb128 0x3f
 2618 022f 0C       		.uleb128 0xc
 2619 0230 03       		.uleb128 0x3
 2620 0231 0E       		.uleb128 0xe
 2621 0232 3A       		.uleb128 0x3a
 2622 0233 0B       		.uleb128 0xb
 2623 0234 3B       		.uleb128 0x3b
 2624 0235 05       		.uleb128 0x5
 2625 0236 27       		.uleb128 0x27
 2626 0237 0C       		.uleb128 0xc
 2627 0238 11       		.uleb128 0x11
 2628 0239 01       		.uleb128 0x1
 2629 023a 12       		.uleb128 0x12
 2630 023b 01       		.uleb128 0x1
 2631 023c 40       		.uleb128 0x40
 2632 023d 0A       		.uleb128 0xa
 2633 023e 9742     		.uleb128 0x2117
 2634 0240 0C       		.uleb128 0xc
 2635 0241 01       		.uleb128 0x1
 2636 0242 13       		.uleb128 0x13
 2637 0243 00       		.byte	0
 2638 0244 00       		.byte	0
 2639 0245 2F       		.uleb128 0x2f
 2640 0246 05       		.uleb128 0x5
 2641 0247 00       		.byte	0
 2642 0248 03       		.uleb128 0x3
 2643 0249 0E       		.uleb128 0xe
 2644 024a 3A       		.uleb128 0x3a
 2645 024b 0B       		.uleb128 0xb
 2646 024c 3B       		.uleb128 0x3b
 2647 024d 05       		.uleb128 0x5
 2648 024e 49       		.uleb128 0x49
 2649 024f 13       		.uleb128 0x13
 2650 0250 02       		.uleb128 0x2
 2651 0251 0A       		.uleb128 0xa
 2652 0252 00       		.byte	0
 2653 0253 00       		.byte	0
 2654 0254 30       		.uleb128 0x30
 2655 0255 34       		.uleb128 0x34
 2656 0256 00       		.byte	0
 2657 0257 03       		.uleb128 0x3
 2658 0258 0E       		.uleb128 0xe
 2659 0259 3A       		.uleb128 0x3a
 2660 025a 0B       		.uleb128 0xb
 2661 025b 3B       		.uleb128 0x3b
 2662 025c 05       		.uleb128 0x5
 2663 025d 49       		.uleb128 0x49
 2664 025e 13       		.uleb128 0x13
 2665 025f 3F       		.uleb128 0x3f
 2666 0260 0C       		.uleb128 0xc
 2667 0261 3C       		.uleb128 0x3c
ARM GAS  /tmp/ccSlBs59.s 			page 48


 2668 0262 0C       		.uleb128 0xc
 2669 0263 00       		.byte	0
 2670 0264 00       		.byte	0
 2671 0265 31       		.uleb128 0x31
 2672 0266 34       		.uleb128 0x34
 2673 0267 00       		.byte	0
 2674 0268 03       		.uleb128 0x3
 2675 0269 0E       		.uleb128 0xe
 2676 026a 3A       		.uleb128 0x3a
 2677 026b 0B       		.uleb128 0xb
 2678 026c 3B       		.uleb128 0x3b
 2679 026d 0B       		.uleb128 0xb
 2680 026e 49       		.uleb128 0x49
 2681 026f 13       		.uleb128 0x13
 2682 0270 3F       		.uleb128 0x3f
 2683 0271 0C       		.uleb128 0xc
 2684 0272 02       		.uleb128 0x2
 2685 0273 0A       		.uleb128 0xa
 2686 0274 00       		.byte	0
 2687 0275 00       		.byte	0
 2688 0276 32       		.uleb128 0x32
 2689 0277 2E       		.uleb128 0x2e
 2690 0278 00       		.byte	0
 2691 0279 3F       		.uleb128 0x3f
 2692 027a 0C       		.uleb128 0xc
 2693 027b 03       		.uleb128 0x3
 2694 027c 0E       		.uleb128 0xe
 2695 027d 3A       		.uleb128 0x3a
 2696 027e 0B       		.uleb128 0xb
 2697 027f 3B       		.uleb128 0x3b
 2698 0280 0B       		.uleb128 0xb
 2699 0281 27       		.uleb128 0x27
 2700 0282 0C       		.uleb128 0xc
 2701 0283 3C       		.uleb128 0x3c
 2702 0284 0C       		.uleb128 0xc
 2703 0285 00       		.byte	0
 2704 0286 00       		.byte	0
 2705 0287 33       		.uleb128 0x33
 2706 0288 2E       		.uleb128 0x2e
 2707 0289 00       		.byte	0
 2708 028a 3F       		.uleb128 0x3f
 2709 028b 0C       		.uleb128 0xc
 2710 028c 03       		.uleb128 0x3
 2711 028d 0E       		.uleb128 0xe
 2712 028e 3A       		.uleb128 0x3a
 2713 028f 0B       		.uleb128 0xb
 2714 0290 3B       		.uleb128 0x3b
 2715 0291 05       		.uleb128 0x5
 2716 0292 27       		.uleb128 0x27
 2717 0293 0C       		.uleb128 0xc
 2718 0294 3C       		.uleb128 0x3c
 2719 0295 0C       		.uleb128 0xc
 2720 0296 00       		.byte	0
 2721 0297 00       		.byte	0
 2722 0298 34       		.uleb128 0x34
 2723 0299 2E       		.uleb128 0x2e
 2724 029a 01       		.byte	0x1
ARM GAS  /tmp/ccSlBs59.s 			page 49


 2725 029b 3F       		.uleb128 0x3f
 2726 029c 0C       		.uleb128 0xc
 2727 029d 03       		.uleb128 0x3
 2728 029e 0E       		.uleb128 0xe
 2729 029f 3A       		.uleb128 0x3a
 2730 02a0 0B       		.uleb128 0xb
 2731 02a1 3B       		.uleb128 0x3b
 2732 02a2 0B       		.uleb128 0xb
 2733 02a3 27       		.uleb128 0x27
 2734 02a4 0C       		.uleb128 0xc
 2735 02a5 3C       		.uleb128 0x3c
 2736 02a6 0C       		.uleb128 0xc
 2737 02a7 01       		.uleb128 0x1
 2738 02a8 13       		.uleb128 0x13
 2739 02a9 00       		.byte	0
 2740 02aa 00       		.byte	0
 2741 02ab 35       		.uleb128 0x35
 2742 02ac 2E       		.uleb128 0x2e
 2743 02ad 01       		.byte	0x1
 2744 02ae 3F       		.uleb128 0x3f
 2745 02af 0C       		.uleb128 0xc
 2746 02b0 03       		.uleb128 0x3
 2747 02b1 0E       		.uleb128 0xe
 2748 02b2 3A       		.uleb128 0x3a
 2749 02b3 0B       		.uleb128 0xb
 2750 02b4 3B       		.uleb128 0x3b
 2751 02b5 05       		.uleb128 0x5
 2752 02b6 27       		.uleb128 0x27
 2753 02b7 0C       		.uleb128 0xc
 2754 02b8 3C       		.uleb128 0x3c
 2755 02b9 0C       		.uleb128 0xc
 2756 02ba 01       		.uleb128 0x1
 2757 02bb 13       		.uleb128 0x13
 2758 02bc 00       		.byte	0
 2759 02bd 00       		.byte	0
 2760 02be 36       		.uleb128 0x36
 2761 02bf 2E       		.uleb128 0x2e
 2762 02c0 01       		.byte	0x1
 2763 02c1 3F       		.uleb128 0x3f
 2764 02c2 0C       		.uleb128 0xc
 2765 02c3 03       		.uleb128 0x3
 2766 02c4 0E       		.uleb128 0xe
 2767 02c5 3A       		.uleb128 0x3a
 2768 02c6 0B       		.uleb128 0xb
 2769 02c7 3B       		.uleb128 0x3b
 2770 02c8 05       		.uleb128 0x5
 2771 02c9 27       		.uleb128 0x27
 2772 02ca 0C       		.uleb128 0xc
 2773 02cb 3C       		.uleb128 0x3c
 2774 02cc 0C       		.uleb128 0xc
 2775 02cd 00       		.byte	0
 2776 02ce 00       		.byte	0
 2777 02cf 00       		.byte	0
 2778              		.section	.debug_loc,"",%progbits
 2779              	.Ldebug_loc0:
 2780              	.LLST0:
 2781 0000 00000000 		.4byte	.LFB119
ARM GAS  /tmp/ccSlBs59.s 			page 50


 2782 0004 02000000 		.4byte	.LCFI0
 2783 0008 0200     		.2byte	0x2
 2784 000a 7D       		.byte	0x7d
 2785 000b 00       		.sleb128 0
 2786 000c 02000000 		.4byte	.LCFI0
 2787 0010 A0000000 		.4byte	.LFE119
 2788 0014 0200     		.2byte	0x2
 2789 0016 7D       		.byte	0x7d
 2790 0017 10       		.sleb128 16
 2791 0018 00000000 		.4byte	0
 2792 001c 00000000 		.4byte	0
 2793              	.LLST1:
 2794 0020 28000000 		.4byte	.LVL2
 2795 0024 35000000 		.4byte	.LVL3-1
 2796 0028 0500     		.2byte	0x5
 2797 002a 03       		.byte	0x3
 2798 002b 00000000 		.4byte	ICUD3
 2799 002f 00000000 		.4byte	0
 2800 0033 00000000 		.4byte	0
 2801              	.LLST2:
 2802 0037 66000000 		.4byte	.LVL7
 2803 003b 75000000 		.4byte	.LVL8-1
 2804 003f 0500     		.2byte	0x5
 2805 0041 03       		.byte	0x3
 2806 0042 00000000 		.4byte	ICUD3
 2807 0046 00000000 		.4byte	0
 2808 004a 00000000 		.4byte	0
 2809              	.LLST3:
 2810 004e 00000000 		.4byte	.LFB120
 2811 0052 02000000 		.4byte	.LCFI1
 2812 0056 0200     		.2byte	0x2
 2813 0058 7D       		.byte	0x7d
 2814 0059 00       		.sleb128 0
 2815 005a 02000000 		.4byte	.LCFI1
 2816 005e 1C000000 		.4byte	.LFE120
 2817 0062 0200     		.2byte	0x2
 2818 0064 7D       		.byte	0x7d
 2819 0065 08       		.sleb128 8
 2820 0066 00000000 		.4byte	0
 2821 006a 00000000 		.4byte	0
 2822              	.LLST4:
 2823 006e 00000000 		.4byte	.LFB121
 2824 0072 02000000 		.4byte	.LCFI2
 2825 0076 0200     		.2byte	0x2
 2826 0078 7D       		.byte	0x7d
 2827 0079 00       		.sleb128 0
 2828 007a 02000000 		.4byte	.LCFI2
 2829 007e E0000000 		.4byte	.LFE121
 2830 0082 0200     		.2byte	0x2
 2831 0084 7D       		.byte	0x7d
 2832 0085 10       		.sleb128 16
 2833 0086 00000000 		.4byte	0
 2834 008a 00000000 		.4byte	0
 2835              	.LLST5:
 2836 008e 00000000 		.4byte	.LVL12
 2837 0092 08000000 		.4byte	.LVL13
 2838 0096 0100     		.2byte	0x1
ARM GAS  /tmp/ccSlBs59.s 			page 51


 2839 0098 50       		.byte	0x50
 2840 0099 08000000 		.4byte	.LVL13
 2841 009d E0000000 		.4byte	.LFE121
 2842 00a1 0100     		.2byte	0x1
 2843 00a3 54       		.byte	0x54
 2844 00a4 00000000 		.4byte	0
 2845 00a8 00000000 		.4byte	0
 2846              	.LLST6:
 2847 00ac 34000000 		.4byte	.LVL15
 2848 00b0 52000000 		.4byte	.LVL17
 2849 00b4 0100     		.2byte	0x1
 2850 00b6 55       		.byte	0x55
 2851 00b7 00000000 		.4byte	0
 2852 00bb 00000000 		.4byte	0
 2853              	.LLST7:
 2854 00bf 00000000 		.4byte	.LFB122
 2855 00c3 02000000 		.4byte	.LCFI3
 2856 00c7 0200     		.2byte	0x2
 2857 00c9 7D       		.byte	0x7d
 2858 00ca 00       		.sleb128 0
 2859 00cb 02000000 		.4byte	.LCFI3
 2860 00cf 38000000 		.4byte	.LFE122
 2861 00d3 0200     		.2byte	0x2
 2862 00d5 7D       		.byte	0x7d
 2863 00d6 08       		.sleb128 8
 2864 00d7 00000000 		.4byte	0
 2865 00db 00000000 		.4byte	0
 2866              	.LLST8:
 2867 00df 00000000 		.4byte	.LVL19
 2868 00e3 08000000 		.4byte	.LVL20
 2869 00e7 0100     		.2byte	0x1
 2870 00e9 50       		.byte	0x50
 2871 00ea 08000000 		.4byte	.LVL20
 2872 00ee 0A000000 		.4byte	.LVL21
 2873 00f2 0400     		.2byte	0x4
 2874 00f4 F3       		.byte	0xf3
 2875 00f5 01       		.uleb128 0x1
 2876 00f6 50       		.byte	0x50
 2877 00f7 9F       		.byte	0x9f
 2878 00f8 0A000000 		.4byte	.LVL21
 2879 00fc 1C000000 		.4byte	.LVL22
 2880 0100 0100     		.2byte	0x1
 2881 0102 50       		.byte	0x50
 2882 0103 1C000000 		.4byte	.LVL22
 2883 0107 38000000 		.4byte	.LFE122
 2884 010b 0400     		.2byte	0x4
 2885 010d F3       		.byte	0xf3
 2886 010e 01       		.uleb128 0x1
 2887 010f 50       		.byte	0x50
 2888 0110 9F       		.byte	0x9f
 2889 0111 00000000 		.4byte	0
 2890 0115 00000000 		.4byte	0
 2891              	.LLST9:
 2892 0119 00000000 		.4byte	.LVL24
 2893 011d 08000000 		.4byte	.LVL25
 2894 0121 0100     		.2byte	0x1
 2895 0123 50       		.byte	0x50
ARM GAS  /tmp/ccSlBs59.s 			page 52


 2896 0124 08000000 		.4byte	.LVL25
 2897 0128 52000000 		.4byte	.LFE123
 2898 012c 0400     		.2byte	0x4
 2899 012e F3       		.byte	0xf3
 2900 012f 01       		.uleb128 0x1
 2901 0130 50       		.byte	0x50
 2902 0131 9F       		.byte	0x9f
 2903 0132 00000000 		.4byte	0
 2904 0136 00000000 		.4byte	0
 2905              		.section	.debug_aranges,"",%progbits
 2906 0000 44000000 		.4byte	0x44
 2907 0004 0200     		.2byte	0x2
 2908 0006 00000000 		.4byte	.Ldebug_info0
 2909 000a 04       		.byte	0x4
 2910 000b 00       		.byte	0
 2911 000c 0000     		.2byte	0
 2912 000e 0000     		.2byte	0
 2913 0010 00000000 		.4byte	.LFB119
 2914 0014 A0000000 		.4byte	.LFE119-.LFB119
 2915 0018 00000000 		.4byte	.LFB120
 2916 001c 1C000000 		.4byte	.LFE120-.LFB120
 2917 0020 00000000 		.4byte	.LFB121
 2918 0024 E0000000 		.4byte	.LFE121-.LFB121
 2919 0028 00000000 		.4byte	.LFB122
 2920 002c 38000000 		.4byte	.LFE122-.LFB122
 2921 0030 00000000 		.4byte	.LFB123
 2922 0034 52000000 		.4byte	.LFE123-.LFB123
 2923 0038 00000000 		.4byte	.LFB124
 2924 003c 0C000000 		.4byte	.LFE124-.LFB124
 2925 0040 00000000 		.4byte	0
 2926 0044 00000000 		.4byte	0
 2927              		.section	.debug_ranges,"",%progbits
 2928              	.Ldebug_ranges0:
 2929 0000 02000000 		.4byte	.LBB8
 2930 0004 04000000 		.4byte	.LBE8
 2931 0008 08000000 		.4byte	.LBB14
 2932 000c 4C000000 		.4byte	.LBE14
 2933 0010 58000000 		.4byte	.LBB15
 2934 0014 A0000000 		.4byte	.LBE15
 2935 0018 00000000 		.4byte	0
 2936 001c 00000000 		.4byte	0
 2937 0020 02000000 		.4byte	.LBB9
 2938 0024 04000000 		.4byte	.LBE9
 2939 0028 08000000 		.4byte	.LBB12
 2940 002c 4C000000 		.4byte	.LBE12
 2941 0030 58000000 		.4byte	.LBB13
 2942 0034 A0000000 		.4byte	.LBE13
 2943 0038 00000000 		.4byte	0
 2944 003c 00000000 		.4byte	0
 2945 0040 00000000 		.4byte	.LFB119
 2946 0044 A0000000 		.4byte	.LFE119
 2947 0048 00000000 		.4byte	.LFB120
 2948 004c 1C000000 		.4byte	.LFE120
 2949 0050 00000000 		.4byte	.LFB121
 2950 0054 E0000000 		.4byte	.LFE121
 2951 0058 00000000 		.4byte	.LFB122
 2952 005c 38000000 		.4byte	.LFE122
ARM GAS  /tmp/ccSlBs59.s 			page 53


 2953 0060 00000000 		.4byte	.LFB123
 2954 0064 52000000 		.4byte	.LFE123
 2955 0068 00000000 		.4byte	.LFB124
 2956 006c 0C000000 		.4byte	.LFE124
 2957 0070 00000000 		.4byte	0
 2958 0074 00000000 		.4byte	0
 2959              		.section	.debug_line,"",%progbits
 2960              	.Ldebug_line0:
 2961 0000 5C030000 		.section	.debug_str,"MS",%progbits,1
 2961      02005102 
 2961      00000201 
 2961      FB0E0D00 
 2961      01010101 
 2962              	.LASF169:
 2963 0000 4943555F 		.ascii	"ICU_INPUT_ACTIVE_HIGH\000"
 2963      494E5055 
 2963      545F4143 
 2963      54495645 
 2963      5F484947 
 2964              	.LASF180:
 2965 0016 6F766572 		.ascii	"overflow_cb\000"
 2965      666C6F77 
 2965      5F636200 
 2966              	.LASF155:
 2967 0022 4943555F 		.ascii	"ICU_UNINIT\000"
 2967      554E494E 
 2967      495400
 2968              	.LASF42:
 2969 002d 43414E31 		.ascii	"CAN1_RX0_IRQn\000"
 2969      5F525830 
 2969      5F495251 
 2969      6E00
 2970              	.LASF23:
 2971 003b 5056445F 		.ascii	"PVD_IRQn\000"
 2971      4952516E 
 2971      00
 2972              	.LASF86:
 2973 0044 43414E32 		.ascii	"CAN2_RX0_IRQn\000"
 2973      5F525830 
 2973      5F495251 
 2973      6E00
 2974              	.LASF197:
 2975 0052 63684462 		.ascii	"chDbgPanic\000"
 2975      6750616E 
 2975      696300
 2976              	.LASF68:
 2977 005d 54494D38 		.ascii	"TIM8_CC_IRQn\000"
 2977      5F43435F 
 2977      4952516E 
 2977      00
 2978              	.LASF95:
 2979 006a 49324333 		.ascii	"I2C3_ER_IRQn\000"
 2979      5F45525F 
 2979      4952516E 
 2979      00
 2980              	.LASF132:
 2981 0077 5F726573 		.ascii	"_resvd0\000"
ARM GAS  /tmp/ccSlBs59.s 			page 54


 2981      76643000 
 2982              	.LASF133:
 2983 007f 5F726573 		.ascii	"_resvd1\000"
 2983      76643100 
 2984              	.LASF53:
 2985 0087 49324331 		.ascii	"I2C1_EV_IRQn\000"
 2985      5F45565F 
 2985      4952516E 
 2985      00
 2986              	.LASF137:
 2987 0094 5F726573 		.ascii	"_resvd3\000"
 2987      76643300 
 2988              	.LASF138:
 2989 009c 5F726573 		.ascii	"_resvd4\000"
 2989      76643400 
 2990              	.LASF139:
 2991 00a4 5F726573 		.ascii	"_resvd5\000"
 2991      76643500 
 2992              	.LASF141:
 2993 00ac 5F726573 		.ascii	"_resvd6\000"
 2993      76643600 
 2994              	.LASF143:
 2995 00b4 5F726573 		.ascii	"_resvd7\000"
 2995      76643700 
 2996              	.LASF145:
 2997 00bc 5F726573 		.ascii	"_resvd8\000"
 2997      76643800 
 2998              	.LASF146:
 2999 00c4 5F726573 		.ascii	"_resvd9\000"
 2999      76643900 
 3000              	.LASF198:
 3001 00cc 6E766963 		.ascii	"nvicEnableVector\000"
 3001      456E6162 
 3001      6C655665 
 3001      63746F72 
 3001      00
 3002              	.LASF149:
 3003 00dd 5F726573 		.ascii	"_resvd11\000"
 3003      76643131 
 3003      00
 3004              	.LASF161:
 3005 00e6 69637573 		.ascii	"icustate_t\000"
 3005      74617465 
 3005      5F7400
 3006              	.LASF43:
 3007 00f1 43414E31 		.ascii	"CAN1_RX1_IRQn\000"
 3007      5F525831 
 3007      5F495251 
 3007      6E00
 3008              	.LASF152:
 3009 00ff 5F726573 		.ascii	"_resvd13\000"
 3009      76643133 
 3009      00
 3010              	.LASF11:
 3011 0108 6C6F6E67 		.ascii	"long long unsigned int\000"
 3011      206C6F6E 
 3011      6720756E 
ARM GAS  /tmp/ccSlBs59.s 			page 55


 3011      7369676E 
 3011      65642069 
 3012              	.LASF63:
 3013 011f 5254435F 		.ascii	"RTC_Alarm_IRQn\000"
 3013      416C6172 
 3013      6D5F4952 
 3013      516E00
 3014              	.LASF56:
 3015 012e 49324332 		.ascii	"I2C2_ER_IRQn\000"
 3015      5F45525F 
 3015      4952516E 
 3015      00
 3016              	.LASF52:
 3017 013b 54494D34 		.ascii	"TIM4_IRQn\000"
 3017      5F495251 
 3017      6E00
 3018              	.LASF25:
 3019 0145 5254435F 		.ascii	"RTC_WKUP_IRQn\000"
 3019      574B5550 
 3019      5F495251 
 3019      6E00
 3020              	.LASF22:
 3021 0153 57574447 		.ascii	"WWDG_IRQn\000"
 3021      5F495251 
 3021      6E00
 3022              	.LASF177:
 3023 015d 66726571 		.ascii	"frequency\000"
 3023      75656E63 
 3023      7900
 3024              	.LASF120:
 3025 0167 41484231 		.ascii	"AHB1LPENR\000"
 3025      4C50454E 
 3025      5200
 3026              	.LASF160:
 3027 0171 4943555F 		.ascii	"ICU_IDLE\000"
 3027      49444C45 
 3027      00
 3028              	.LASF159:
 3029 017a 4943555F 		.ascii	"ICU_ACTIVE\000"
 3029      41435449 
 3029      564500
 3030              	.LASF140:
 3031 0185 43434D52 		.ascii	"CCMR1\000"
 3031      3100
 3032              	.LASF142:
 3033 018b 43434D52 		.ascii	"CCMR2\000"
 3033      3200
 3034              	.LASF10:
 3035 0191 6C6F6E67 		.ascii	"long long int\000"
 3035      206C6F6E 
 3035      6720696E 
 3035      7400
 3036              	.LASF1:
 3037 019f 7369676E 		.ascii	"signed char\000"
 3037      65642063 
 3037      68617200 
 3038              	.LASF87:
ARM GAS  /tmp/ccSlBs59.s 			page 56


 3039 01ab 43414E32 		.ascii	"CAN2_RX1_IRQn\000"
 3039      5F525831 
 3039      5F495251 
 3039      6E00
 3040              	.LASF106:
 3041 01b9 41484231 		.ascii	"AHB1RSTR\000"
 3041      52535452 
 3041      00
 3042              	.LASF182:
 3043 01c2 49435543 		.ascii	"ICUConfig\000"
 3043      6F6E6669 
 3043      6700
 3044              	.LASF91:
 3045 01cc 444D4132 		.ascii	"DMA2_Stream6_IRQn\000"
 3045      5F537472 
 3045      65616D36 
 3045      5F495251 
 3045      6E00
 3046              	.LASF184:
 3047 01de 56656374 		.ascii	"VectorB4\000"
 3047      6F724234 
 3047      00
 3048              	.LASF147:
 3049 01e7 5F726573 		.ascii	"_resvd10\000"
 3049      76643130 
 3049      00
 3050              	.LASF163:
 3051 01f0 73746174 		.ascii	"state\000"
 3051      6500
 3052              	.LASF150:
 3053 01f6 5F726573 		.ascii	"_resvd12\000"
 3053      76643132 
 3053      00
 3054              	.LASF7:
 3055 01ff 6C6F6E67 		.ascii	"long int\000"
 3055      20696E74 
 3055      00
 3056              	.LASF153:
 3057 0208 5F726573 		.ascii	"_resvd14\000"
 3057      76643134 
 3057      00
 3058              	.LASF111:
 3059 0211 41504232 		.ascii	"APB2RSTR\000"
 3059      52535452 
 3059      00
 3060              	.LASF124:
 3061 021a 41504231 		.ascii	"APB1LPENR\000"
 3061      4C50454E 
 3061      5200
 3062              	.LASF38:
 3063 0224 444D4131 		.ascii	"DMA1_Stream5_IRQn\000"
 3063      5F537472 
 3063      65616D35 
 3063      5F495251 
 3063      6E00
 3064              	.LASF45:
 3065 0236 45585449 		.ascii	"EXTI9_5_IRQn\000"
ARM GAS  /tmp/ccSlBs59.s 			page 57


 3065      395F355F 
 3065      4952516E 
 3065      00
 3066              	.LASF144:
 3067 0243 43434552 		.ascii	"CCER\000"
 3067      00
 3068              	.LASF84:
 3069 0248 4554485F 		.ascii	"ETH_WKUP_IRQn\000"
 3069      574B5550 
 3069      5F495251 
 3069      6E00
 3070              	.LASF5:
 3071 0256 75696E74 		.ascii	"uint16_t\000"
 3071      31365F74 
 3071      00
 3072              	.LASF8:
 3073 025f 75696E74 		.ascii	"uint32_t\000"
 3073      33325F74 
 3073      00
 3074              	.LASF76:
 3075 0268 54494D36 		.ascii	"TIM6_DAC_IRQn\000"
 3075      5F444143 
 3075      5F495251 
 3075      6E00
 3076              	.LASF104:
 3077 0276 504C4C43 		.ascii	"PLLCFGR\000"
 3077      46475200 
 3078              	.LASF74:
 3079 027e 55415254 		.ascii	"UART4_IRQn\000"
 3079      345F4952 
 3079      516E00
 3080              	.LASF64:
 3081 0289 4F54475F 		.ascii	"OTG_FS_WKUP_IRQn\000"
 3081      46535F57 
 3081      4B55505F 
 3081      4952516E 
 3081      00
 3082              	.LASF90:
 3083 029a 444D4132 		.ascii	"DMA2_Stream5_IRQn\000"
 3083      5F537472 
 3083      65616D35 
 3083      5F495251 
 3083      6E00
 3084              	.LASF66:
 3085 02ac 54494D38 		.ascii	"TIM8_UP_TIM13_IRQn\000"
 3085      5F55505F 
 3085      54494D31 
 3085      335F4952 
 3085      516E00
 3086              	.LASF167:
 3087 02bf 70636372 		.ascii	"pccrp\000"
 3087      7000
 3088              	.LASF107:
 3089 02c5 41484232 		.ascii	"AHB2RSTR\000"
 3089      52535452 
 3089      00
 3090              	.LASF16:
ARM GAS  /tmp/ccSlBs59.s 			page 58


 3091 02ce 42757346 		.ascii	"BusFault_IRQn\000"
 3091      61756C74 
 3091      5F495251 
 3091      6E00
 3092              	.LASF20:
 3093 02dc 50656E64 		.ascii	"PendSV_IRQn\000"
 3093      53565F49 
 3093      52516E00 
 3094              	.LASF92:
 3095 02e8 444D4132 		.ascii	"DMA2_Stream7_IRQn\000"
 3095      5F537472 
 3095      65616D37 
 3095      5F495251 
 3095      6E00
 3096              	.LASF193:
 3097 02fa 6462675F 		.ascii	"dbg_check_enter_isr\000"
 3097      63686563 
 3097      6B5F656E 
 3097      7465725F 
 3097      69737200 
 3098              	.LASF0:
 3099 030e 756E7369 		.ascii	"unsigned int\000"
 3099      676E6564 
 3099      20696E74 
 3099      00
 3100              	.LASF36:
 3101 031b 444D4131 		.ascii	"DMA1_Stream3_IRQn\000"
 3101      5F537472 
 3101      65616D33 
 3101      5F495251 
 3101      6E00
 3102              	.LASF39:
 3103 032d 444D4131 		.ascii	"DMA1_Stream6_IRQn\000"
 3103      5F537472 
 3103      65616D36 
 3103      5F495251 
 3103      6E00
 3104              	.LASF15:
 3105 033f 4D656D6F 		.ascii	"MemoryManagement_IRQn\000"
 3105      72794D61 
 3105      6E616765 
 3105      6D656E74 
 3105      5F495251 
 3106              	.LASF94:
 3107 0355 49324333 		.ascii	"I2C3_EV_IRQn\000"
 3107      5F45565F 
 3107      4952516E 
 3107      00
 3108              	.LASF9:
 3109 0362 6C6F6E67 		.ascii	"long unsigned int\000"
 3109      20756E73 
 3109      69676E65 
 3109      6420696E 
 3109      7400
 3110              	.LASF168:
 3111 0374 69637563 		.ascii	"icucallback_t\000"
 3111      616C6C62 
ARM GAS  /tmp/ccSlBs59.s 			page 59


 3111      61636B5F 
 3111      7400
 3112              	.LASF131:
 3113 0382 5243435F 		.ascii	"RCC_TypeDef\000"
 3113      54797065 
 3113      44656600 
 3114              	.LASF195:
 3115 038e 5F706F72 		.ascii	"_port_irq_epilogue\000"
 3115      745F6972 
 3115      715F6570 
 3115      696C6F67 
 3115      756500
 3116              	.LASF179:
 3117 03a1 70657269 		.ascii	"period_cb\000"
 3117      6F645F63 
 3117      6200
 3118              	.LASF96:
 3119 03ab 4F54475F 		.ascii	"OTG_HS_EP1_OUT_IRQn\000"
 3119      48535F45 
 3119      50315F4F 
 3119      55545F49 
 3119      52516E00 
 3120              	.LASF71:
 3121 03bf 5344494F 		.ascii	"SDIO_IRQn\000"
 3121      5F495251 
 3121      6E00
 3122              	.LASF202:
 3123 03c9 6963755F 		.ascii	"icu_lld_serve_interrupt\000"
 3123      6C6C645F 
 3123      73657276 
 3123      655F696E 
 3123      74657272 
 3124              	.LASF18:
 3125 03e1 53564361 		.ascii	"SVCall_IRQn\000"
 3125      6C6C5F49 
 3125      52516E00 
 3126              	.LASF134:
 3127 03ed 534D4352 		.ascii	"SMCR\000"
 3127      00
 3128              	.LASF185:
 3129 03f2 6963755F 		.ascii	"icu_lld_init\000"
 3129      6C6C645F 
 3129      696E6974 
 3129      00
 3130              	.LASF130:
 3131 03ff 504C4C49 		.ascii	"PLLI2SCFGR\000"
 3131      32534346 
 3131      475200
 3132              	.LASF41:
 3133 040a 43414E31 		.ascii	"CAN1_TX_IRQn\000"
 3133      5F54585F 
 3133      4952516E 
 3133      00
 3134              	.LASF108:
 3135 0417 41484233 		.ascii	"AHB3RSTR\000"
 3135      52535452 
 3135      00
ARM GAS  /tmp/ccSlBs59.s 			page 60


 3136              	.LASF62:
 3137 0420 45585449 		.ascii	"EXTI15_10_IRQn\000"
 3137      31355F31 
 3137      305F4952 
 3137      516E00
 3138              	.LASF57:
 3139 042f 53504931 		.ascii	"SPI1_IRQn\000"
 3139      5F495251 
 3139      6E00
 3140              	.LASF162:
 3141 0439 49435544 		.ascii	"ICUDriver\000"
 3141      72697665 
 3141      7200
 3142              	.LASF114:
 3143 0443 41484232 		.ascii	"AHB2ENR\000"
 3143      454E5200 
 3144              	.LASF154:
 3145 044b 73746D33 		.ascii	"stm32_tim_t\000"
 3145      325F7469 
 3145      6D5F7400 
 3146              	.LASF125:
 3147 0457 41504232 		.ascii	"APB2LPENR\000"
 3147      4C50454E 
 3147      5200
 3148              	.LASF65:
 3149 0461 54494D38 		.ascii	"TIM8_BRK_TIM12_IRQn\000"
 3149      5F42524B 
 3149      5F54494D 
 3149      31325F49 
 3149      52516E00 
 3150              	.LASF158:
 3151 0475 4943555F 		.ascii	"ICU_WAITING\000"
 3151      57414954 
 3151      494E4700 
 3152              	.LASF21:
 3153 0481 53797354 		.ascii	"SysTick_IRQn\000"
 3153      69636B5F 
 3153      4952516E 
 3153      00
 3154              	.LASF49:
 3155 048e 54494D31 		.ascii	"TIM1_CC_IRQn\000"
 3155      5F43435F 
 3155      4952516E 
 3155      00
 3156              	.LASF67:
 3157 049b 54494D38 		.ascii	"TIM8_TRG_COM_TIM14_IRQn\000"
 3157      5F545247 
 3157      5F434F4D 
 3157      5F54494D 
 3157      31345F49 
 3158              	.LASF201:
 3159 04b3 4952516E 		.ascii	"IRQn\000"
 3159      00
 3160              	.LASF148:
 3161 04b8 42445452 		.ascii	"BDTR\000"
 3161      00
 3162              	.LASF12:
ARM GAS  /tmp/ccSlBs59.s 			page 61


 3163 04bd 73697A65 		.ascii	"sizetype\000"
 3163      74797065 
 3163      00
 3164              	.LASF83:
 3165 04c6 4554485F 		.ascii	"ETH_IRQn\000"
 3165      4952516E 
 3165      00
 3166              	.LASF47:
 3167 04cf 54494D31 		.ascii	"TIM1_UP_TIM10_IRQn\000"
 3167      5F55505F 
 3167      54494D31 
 3167      305F4952 
 3167      516E00
 3168              	.LASF81:
 3169 04e2 444D4132 		.ascii	"DMA2_Stream3_IRQn\000"
 3169      5F537472 
 3169      65616D33 
 3169      5F495251 
 3169      6E00
 3170              	.LASF37:
 3171 04f4 444D4131 		.ascii	"DMA1_Stream4_IRQn\000"
 3171      5F537472 
 3171      65616D34 
 3171      5F495251 
 3171      6E00
 3172              	.LASF80:
 3173 0506 444D4132 		.ascii	"DMA2_Stream2_IRQn\000"
 3173      5F537472 
 3173      65616D32 
 3173      5F495251 
 3173      6E00
 3174              	.LASF93:
 3175 0518 55534152 		.ascii	"USART6_IRQn\000"
 3175      54365F49 
 3175      52516E00 
 3176              	.LASF178:
 3177 0524 77696474 		.ascii	"width_cb\000"
 3177      685F6362 
 3177      00
 3178              	.LASF72:
 3179 052d 54494D35 		.ascii	"TIM5_IRQn\000"
 3179      5F495251 
 3179      6E00
 3180              	.LASF31:
 3181 0537 45585449 		.ascii	"EXTI3_IRQn\000"
 3181      335F4952 
 3181      516E00
 3182              	.LASF58:
 3183 0542 53504932 		.ascii	"SPI2_IRQn\000"
 3183      5F495251 
 3183      6E00
 3184              	.LASF35:
 3185 054c 444D4131 		.ascii	"DMA1_Stream2_IRQn\000"
 3185      5F537472 
 3185      65616D32 
 3185      5F495251 
 3185      6E00
ARM GAS  /tmp/ccSlBs59.s 			page 62


 3186              	.LASF85:
 3187 055e 43414E32 		.ascii	"CAN2_TX_IRQn\000"
 3187      5F54585F 
 3187      4952516E 
 3187      00
 3188              	.LASF121:
 3189 056b 41484232 		.ascii	"AHB2LPENR\000"
 3189      4C50454E 
 3189      5200
 3190              	.LASF156:
 3191 0575 4943555F 		.ascii	"ICU_STOP\000"
 3191      53544F50 
 3191      00
 3192              	.LASF200:
 3193 057e 2F686F6D 		.ascii	"/home/gokul/ChibiOS_2.5.0/os/hal/platforms/STM32/ic"
 3193      652F676F 
 3193      6B756C2F 
 3193      43686962 
 3193      694F535F 
 3194 05b1 755F6C6C 		.ascii	"u_lld.c\000"
 3194      642E6300 
 3195              	.LASF170:
 3196 05b9 4943555F 		.ascii	"ICU_INPUT_ACTIVE_LOW\000"
 3196      494E5055 
 3196      545F4143 
 3196      54495645 
 3196      5F4C4F57 
 3197              	.LASF110:
 3198 05ce 41504231 		.ascii	"APB1RSTR\000"
 3198      52535452 
 3198      00
 3199              	.LASF99:
 3200 05d7 4F54475F 		.ascii	"OTG_HS_IRQn\000"
 3200      48535F49 
 3200      52516E00 
 3201              	.LASF190:
 3202 05e3 6963755F 		.ascii	"icu_lld_disable\000"
 3202      6C6C645F 
 3202      64697361 
 3202      626C6500 
 3203              	.LASF109:
 3204 05f3 52455345 		.ascii	"RESERVED0\000"
 3204      52564544 
 3204      3000
 3205              	.LASF112:
 3206 05fd 52455345 		.ascii	"RESERVED1\000"
 3206      52564544 
 3206      3100
 3207              	.LASF116:
 3208 0607 52455345 		.ascii	"RESERVED2\000"
 3208      52564544 
 3208      3200
 3209              	.LASF119:
 3210 0611 52455345 		.ascii	"RESERVED3\000"
 3210      52564544 
 3210      3300
 3211              	.LASF123:
ARM GAS  /tmp/ccSlBs59.s 			page 63


 3212 061b 52455345 		.ascii	"RESERVED4\000"
 3212      52564544 
 3212      3400
 3213              	.LASF126:
 3214 0625 52455345 		.ascii	"RESERVED5\000"
 3214      52564544 
 3214      3500
 3215              	.LASF128:
 3216 062f 52455345 		.ascii	"RESERVED6\000"
 3216      52564544 
 3216      3600
 3217              	.LASF73:
 3218 0639 53504933 		.ascii	"SPI3_IRQn\000"
 3218      5F495251 
 3218      6E00
 3219              	.LASF192:
 3220 0643 49435544 		.ascii	"ICUD3\000"
 3220      3300
 3221              	.LASF199:
 3222 0649 474E5520 		.ascii	"GNU C 4.7.3 20130312 (release) [ARM/embedded-4_7-br"
 3222      4320342E 
 3222      372E3320 
 3222      32303133 
 3222      30333132 
 3223 067c 616E6368 		.ascii	"anch revision 196615]\000"
 3223      20726576 
 3223      6973696F 
 3223      6E203139 
 3223      36363135 
 3224              	.LASF188:
 3225 0692 69637570 		.ascii	"icup\000"
 3225      00
 3226              	.LASF82:
 3227 0697 444D4132 		.ascii	"DMA2_Stream4_IRQn\000"
 3227      5F537472 
 3227      65616D34 
 3227      5F495251 
 3227      6E00
 3228              	.LASF70:
 3229 06a9 46534D43 		.ascii	"FSMC_IRQn\000"
 3229      5F495251 
 3229      6E00
 3230              	.LASF19:
 3231 06b3 44656275 		.ascii	"DebugMonitor_IRQn\000"
 3231      674D6F6E 
 3231      69746F72 
 3231      5F495251 
 3231      6E00
 3232              	.LASF6:
 3233 06c5 696E7433 		.ascii	"int32_t\000"
 3233      325F7400 
 3234              	.LASF2:
 3235 06cd 756E7369 		.ascii	"unsigned char\000"
 3235      676E6564 
 3235      20636861 
 3235      7200
 3236              	.LASF46:
ARM GAS  /tmp/ccSlBs59.s 			page 64


 3237 06db 54494D31 		.ascii	"TIM1_BRK_TIM9_IRQn\000"
 3237      5F42524B 
 3237      5F54494D 
 3237      395F4952 
 3237      516E00
 3238              	.LASF191:
 3239 06ee 49544D5F 		.ascii	"ITM_RxBuffer\000"
 3239      52784275 
 3239      66666572 
 3239      00
 3240              	.LASF189:
 3241 06fb 6963755F 		.ascii	"icu_lld_enable\000"
 3241      6C6C645F 
 3241      656E6162 
 3241      6C6500
 3242              	.LASF102:
 3243 070a 48415348 		.ascii	"HASH_RNG_IRQn\000"
 3243      5F524E47 
 3243      5F495251 
 3243      6E00
 3244              	.LASF3:
 3245 0718 73686F72 		.ascii	"short int\000"
 3245      7420696E 
 3245      7400
 3246              	.LASF32:
 3247 0722 45585449 		.ascii	"EXTI4_IRQn\000"
 3247      345F4952 
 3247      516E00
 3248              	.LASF122:
 3249 072d 41484233 		.ascii	"AHB3LPENR\000"
 3249      4C50454E 
 3249      5200
 3250              	.LASF75:
 3251 0737 55415254 		.ascii	"UART5_IRQn\000"
 3251      355F4952 
 3251      516E00
 3252              	.LASF48:
 3253 0742 54494D31 		.ascii	"TIM1_TRG_COM_TIM11_IRQn\000"
 3253      5F545247 
 3253      5F434F4D 
 3253      5F54494D 
 3253      31315F49 
 3254              	.LASF171:
 3255 075a 6963756D 		.ascii	"icumode_t\000"
 3255      6F64655F 
 3255      7400
 3256              	.LASF4:
 3257 0764 73686F72 		.ascii	"short unsigned int\000"
 3257      7420756E 
 3257      7369676E 
 3257      65642069 
 3257      6E7400
 3258              	.LASF30:
 3259 0777 45585449 		.ascii	"EXTI2_IRQn\000"
 3259      325F4952 
 3259      516E00
 3260              	.LASF118:
ARM GAS  /tmp/ccSlBs59.s 			page 65


 3261 0782 41504232 		.ascii	"APB2ENR\000"
 3261      454E5200 
 3262              	.LASF175:
 3263 078a 69637563 		.ascii	"icuchannel_t\000"
 3263      68616E6E 
 3263      656C5F74 
 3263      00
 3264              	.LASF181:
 3265 0797 6368616E 		.ascii	"channel\000"
 3265      6E656C00 
 3266              	.LASF115:
 3267 079f 41484233 		.ascii	"AHB3ENR\000"
 3267      454E5200 
 3268              	.LASF26:
 3269 07a7 464C4153 		.ascii	"FLASH_IRQn\000"
 3269      485F4952 
 3269      516E00
 3270              	.LASF89:
 3271 07b2 4F54475F 		.ascii	"OTG_FS_IRQn\000"
 3271      46535F49 
 3271      52516E00 
 3272              	.LASF196:
 3273 07be 6963754F 		.ascii	"icuObjectInit\000"
 3273      626A6563 
 3273      74496E69 
 3273      7400
 3274              	.LASF60:
 3275 07cc 55534152 		.ascii	"USART2_IRQn\000"
 3275      54325F49 
 3275      52516E00 
 3276              	.LASF17:
 3277 07d8 55736167 		.ascii	"UsageFault_IRQn\000"
 3277      65466175 
 3277      6C745F49 
 3277      52516E00 
 3278              	.LASF183:
 3279 07e8 70726576 		.ascii	"previous_state\000"
 3279      696F7573 
 3279      5F737461 
 3279      746500
 3280              	.LASF203:
 3281 07f7 6E766963 		.ascii	"nvicDisableVector\000"
 3281      44697361 
 3281      626C6556 
 3281      6563746F 
 3281      7200
 3282              	.LASF135:
 3283 0809 5F726573 		.ascii	"_resvd2\000"
 3283      76643200 
 3284              	.LASF69:
 3285 0811 444D4131 		.ascii	"DMA1_Stream7_IRQn\000"
 3285      5F537472 
 3285      65616D37 
 3285      5F495251 
 3285      6E00
 3286              	.LASF13:
 3287 0823 63686172 		.ascii	"char\000"
ARM GAS  /tmp/ccSlBs59.s 			page 66


 3287      00
 3288              	.LASF176:
 3289 0828 6D6F6465 		.ascii	"mode\000"
 3289      00
 3290              	.LASF101:
 3291 082d 43525950 		.ascii	"CRYP_IRQn\000"
 3291      5F495251 
 3291      6E00
 3292              	.LASF164:
 3293 0837 636F6E66 		.ascii	"config\000"
 3293      696700
 3294              	.LASF151:
 3295 083e 444D4152 		.ascii	"DMAR\000"
 3295      00
 3296              	.LASF77:
 3297 0843 54494D37 		.ascii	"TIM7_IRQn\000"
 3297      5F495251 
 3297      6E00
 3298              	.LASF34:
 3299 084d 444D4131 		.ascii	"DMA1_Stream1_IRQn\000"
 3299      5F537472 
 3299      65616D31 
 3299      5F495251 
 3299      6E00
 3300              	.LASF97:
 3301 085f 4F54475F 		.ascii	"OTG_HS_EP1_IN_IRQn\000"
 3301      48535F45 
 3301      50315F49 
 3301      4E5F4952 
 3301      516E00
 3302              	.LASF14:
 3303 0872 4E6F6E4D 		.ascii	"NonMaskableInt_IRQn\000"
 3303      61736B61 
 3303      626C6549 
 3303      6E745F49 
 3303      52516E00 
 3304              	.LASF117:
 3305 0886 41504231 		.ascii	"APB1ENR\000"
 3305      454E5200 
 3306              	.LASF187:
 3307 088e 6963755F 		.ascii	"icu_lld_stop\000"
 3307      6C6C645F 
 3307      73746F70 
 3307      00
 3308              	.LASF24:
 3309 089b 54414D50 		.ascii	"TAMP_STAMP_IRQn\000"
 3309      5F535441 
 3309      4D505F49 
 3309      52516E00 
 3310              	.LASF172:
 3311 08ab 69637566 		.ascii	"icufreq_t\000"
 3311      7265715F 
 3311      7400
 3312              	.LASF194:
 3313 08b5 6462675F 		.ascii	"dbg_check_leave_isr\000"
 3313      63686563 
 3313      6B5F6C65 
ARM GAS  /tmp/ccSlBs59.s 			page 67


 3313      6176655F 
 3313      69737200 
 3314              	.LASF157:
 3315 08c9 4943555F 		.ascii	"ICU_READY\000"
 3315      52454144 
 3315      5900
 3316              	.LASF78:
 3317 08d3 444D4132 		.ascii	"DMA2_Stream0_IRQn\000"
 3317      5F537472 
 3317      65616D30 
 3317      5F495251 
 3317      6E00
 3318              	.LASF55:
 3319 08e5 49324332 		.ascii	"I2C2_EV_IRQn\000"
 3319      5F45565F 
 3319      4952516E 
 3319      00
 3320              	.LASF61:
 3321 08f2 55534152 		.ascii	"USART3_IRQn\000"
 3321      54335F49 
 3321      52516E00 
 3322              	.LASF129:
 3323 08fe 53534347 		.ascii	"SSCGR\000"
 3323      5200
 3324              	.LASF50:
 3325 0904 54494D32 		.ascii	"TIM2_IRQn\000"
 3325      5F495251 
 3325      6E00
 3326              	.LASF28:
 3327 090e 45585449 		.ascii	"EXTI0_IRQn\000"
 3327      305F4952 
 3327      516E00
 3328              	.LASF59:
 3329 0919 55534152 		.ascii	"USART1_IRQn\000"
 3329      54315F49 
 3329      52516E00 
 3330              	.LASF127:
 3331 0925 42444352 		.ascii	"BDCR\000"
 3331      00
 3332              	.LASF173:
 3333 092a 4943555F 		.ascii	"ICU_CHANNEL_1\000"
 3333      4348414E 
 3333      4E454C5F 
 3333      3100
 3334              	.LASF174:
 3335 0938 4943555F 		.ascii	"ICU_CHANNEL_2\000"
 3335      4348414E 
 3335      4E454C5F 
 3335      3200
 3336              	.LASF100:
 3337 0946 44434D49 		.ascii	"DCMI_IRQn\000"
 3337      5F495251 
 3337      6E00
 3338              	.LASF113:
 3339 0950 41484231 		.ascii	"AHB1ENR\000"
 3339      454E5200 
 3340              	.LASF136:
ARM GAS  /tmp/ccSlBs59.s 			page 68


 3341 0958 44494552 		.ascii	"DIER\000"
 3341      00
 3342              	.LASF103:
 3343 095d 4650555F 		.ascii	"FPU_IRQn\000"
 3343      4952516E 
 3343      00
 3344              	.LASF105:
 3345 0966 43464752 		.ascii	"CFGR\000"
 3345      00
 3346              	.LASF186:
 3347 096b 6963755F 		.ascii	"icu_lld_start\000"
 3347      6C6C645F 
 3347      73746172 
 3347      7400
 3348              	.LASF165:
 3349 0979 636C6F63 		.ascii	"clock\000"
 3349      6B00
 3350              	.LASF54:
 3351 097f 49324331 		.ascii	"I2C1_ER_IRQn\000"
 3351      5F45525F 
 3351      4952516E 
 3351      00
 3352              	.LASF40:
 3353 098c 4144435F 		.ascii	"ADC_IRQn\000"
 3353      4952516E 
 3353      00
 3354              	.LASF79:
 3355 0995 444D4132 		.ascii	"DMA2_Stream1_IRQn\000"
 3355      5F537472 
 3355      65616D31 
 3355      5F495251 
 3355      6E00
 3356              	.LASF166:
 3357 09a7 77636372 		.ascii	"wccrp\000"
 3357      7000
 3358              	.LASF44:
 3359 09ad 43414E31 		.ascii	"CAN1_SCE_IRQn\000"
 3359      5F534345 
 3359      5F495251 
 3359      6E00
 3360              	.LASF88:
 3361 09bb 43414E32 		.ascii	"CAN2_SCE_IRQn\000"
 3361      5F534345 
 3361      5F495251 
 3361      6E00
 3362              	.LASF27:
 3363 09c9 5243435F 		.ascii	"RCC_IRQn\000"
 3363      4952516E 
 3363      00
 3364              	.LASF98:
 3365 09d2 4F54475F 		.ascii	"OTG_HS_WKUP_IRQn\000"
 3365      48535F57 
 3365      4B55505F 
 3365      4952516E 
 3365      00
 3366              	.LASF51:
 3367 09e3 54494D33 		.ascii	"TIM3_IRQn\000"
ARM GAS  /tmp/ccSlBs59.s 			page 69


 3367      5F495251 
 3367      6E00
 3368              	.LASF29:
 3369 09ed 45585449 		.ascii	"EXTI1_IRQn\000"
 3369      315F4952 
 3369      516E00
 3370              	.LASF33:
 3371 09f8 444D4131 		.ascii	"DMA1_Stream0_IRQn\000"
 3371      5F537472 
 3371      65616D30 
 3371      5F495251 
 3371      6E00
 3372              		.ident	"GCC: (GNU Tools for ARM Embedded Processors) 4.7.3 20130312 (release) [ARM/embedded-4_7-br
ARM GAS  /tmp/ccSlBs59.s 			page 70


DEFINED SYMBOLS
                            *ABS*:00000000 icu_lld.c
     /tmp/ccSlBs59.s:19     .text.VectorB4:00000000 $t
     /tmp/ccSlBs59.s:25     .text.VectorB4:00000000 VectorB4
     /tmp/ccSlBs59.s:167    .text.VectorB4:0000009c $d
     /tmp/ccSlBs59.s:174    .text.icu_lld_init:00000000 $t
     /tmp/ccSlBs59.s:180    .text.icu_lld_init:00000000 icu_lld_init
     /tmp/ccSlBs59.s:560    .bss.ICUD3:00000000 .LANCHOR0
     /tmp/ccSlBs59.s:206    .text.icu_lld_start:00000000 $t
     /tmp/ccSlBs59.s:212    .text.icu_lld_start:00000000 icu_lld_start
     /tmp/ccSlBs59.s:386    .text.icu_lld_start:000000d8 $d
     /tmp/ccSlBs59.s:392    .text.icu_lld_stop:00000000 $t
     /tmp/ccSlBs59.s:398    .text.icu_lld_stop:00000000 icu_lld_stop
     /tmp/ccSlBs59.s:449    .text.icu_lld_stop:00000034 $d
     /tmp/ccSlBs59.s:454    .text.icu_lld_enable:00000000 $t
     /tmp/ccSlBs59.s:460    .text.icu_lld_enable:00000000 icu_lld_enable
     /tmp/ccSlBs59.s:531    .text.icu_lld_disable:00000000 $t
     /tmp/ccSlBs59.s:537    .text.icu_lld_disable:00000000 icu_lld_disable
     /tmp/ccSlBs59.s:563    .bss.ICUD3:00000000 ICUD3
     /tmp/ccSlBs59.s:559    .bss.ICUD3:00000000 $d
     /tmp/ccSlBs59.s:566    .rodata.str1.4:00000000 $d
                     .debug_frame:00000010 $d
     /tmp/ccSlBs59.s:453    .text.icu_lld_stop:00000038 $t

UNDEFINED SYMBOLS
dbg_check_enter_isr
dbg_check_leave_isr
_port_irq_epilogue
icuObjectInit
chDbgPanic
nvicEnableVector
nvicDisableVector
