ARM GAS  /tmp/ccSlBs59.s 			page 1


   1              		.syntax unified
   2              		.cpu cortex-m4
   3              		.fpu softvfp
   4              		.eabi_attribute 20, 1
   5              		.eabi_attribute 21, 1
   6              		.eabi_attribute 23, 3
   7              		.eabi_attribute 24, 1
   8              		.eabi_attribute 25, 1
   9              		.eabi_attribute 26, 1
  10              		.eabi_attribute 30, 2
  11              		.eabi_attribute 34, 1
  12              		.eabi_attribute 18, 4
  13              		.thumb
  14              		.file	"icu_lld.c"
  15              		.text
  16              	.Ltext0:
  17              		.cfi_sections	.debug_frame
  18              		.section	.text.VectorB4,"ax",%progbits
  19              		.align	2
  20              		.p2align 4,,15
  21              		.global	VectorB4
  22              		.thumb
  23              		.thumb_func
  24              		.type	VectorB4, %function
  25              	VectorB4:
  26              	.LFB119:
  27              		.file 1 "/home/gokul/ChibiOS_2.5.0/os/hal/platforms/STM32/icu_lld.c"
  28              		.loc 1 203 0
  29              		.cfi_startproc
  30              		@ args = 0, pretend = 0, frame = 0
  31              		@ frame_needed = 0, uses_anonymous_args = 0
  32 0000 38B5     		push	{r3, r4, r5, lr}
  33              	.LCFI0:
  34              		.cfi_def_cfa_offset 16
  35              		.cfi_offset 3, -16
  36              		.cfi_offset 4, -12
  37              		.cfi_offset 5, -8
  38              		.cfi_offset 14, -4
  39              	.LBB8:
  40              	.LBB9:
  41              		.loc 1 106 0
  42 0002 264C     		ldr	r4, .L30
  43              	.LBE9:
  44              	.LBE8:
  45              		.loc 1 205 0
  46 0004 FFF7FEFF 		bl	dbg_check_enter_isr
  47              	.LVL0:
  48              	.LBB14:
  49              	.LBB12:
  50              		.loc 1 106 0
  51 0008 E368     		ldr	r3, [r4, #12]
  52              		.loc 1 108 0
  53 000a 6268     		ldr	r2, [r4, #4]
  54              		.loc 1 106 0
  55 000c 188A     		ldrh	r0, [r3, #16]
  56 000e 9D89     		ldrh	r5, [r3, #12]
  57              		.loc 1 108 0
ARM GAS  /tmp/ccSlBs59.s 			page 2


  58 0010 117D     		ldrb	r1, [r2, #20]	@ zero_extendqisi2
  59              		.loc 1 106 0
  60 0012 ADB2     		uxth	r5, r5
  61 0014 0540     		ands	r5, r5, r0
  62              	.LVL1:
  63              		.loc 1 107 0
  64 0016 E843     		mvns	r0, r5
  65 0018 80B2     		uxth	r0, r0
  66 001a 1882     		strh	r0, [r3, #16]	@ movhi
  67              		.loc 1 109 0
  68 001c 05F00203 		and	r3, r5, #2
  69 0020 98B2     		uxth	r0, r3
  70              		.loc 1 108 0
  71 0022 C9B9     		cbnz	r1, .L2
  72              		.loc 1 109 0
  73 0024 38B1     		cbz	r0, .L4
  74              	.LBB10:
  75              		.loc 1 110 0
  76 0026 2078     		ldrb	r0, [r4, #0]	@ zero_extendqisi2
  77              	.LVL2:
  78 0028 0423     		movs	r3, #4
  79 002a 0328     		cmp	r0, #3
  80 002c 2370     		strb	r3, [r4, #0]
  81 002e 02D0     		beq	.L4
  82 0030 D268     		ldr	r2, [r2, #12]
  83 0032 2046     		mov	r0, r4
  84 0034 9047     		blx	r2
  85              	.LVL3:
  86              	.L4:
  87              	.LBE10:
  88              		.loc 1 111 0
  89 0036 05F00401 		and	r1, r5, #4
  90 003a 88B2     		uxth	r0, r1
  91 003c 0028     		cmp	r0, #0
  92 003e 26D1     		bne	.L27
  93              	.L7:
  94              		.loc 1 119 0
  95 0040 EB07     		lsls	r3, r5, #31
  96 0042 03D5     		bpl	.L10
  97              		.loc 1 120 0
  98 0044 6368     		ldr	r3, [r4, #4]
  99 0046 1548     		ldr	r0, .L30
 100 0048 1969     		ldr	r1, [r3, #16]
 101 004a 8847     		blx	r1
 102              	.LVL4:
 103              	.L10:
 104              	.LBE12:
 105              	.LBE14:
 106              		.loc 1 209 0
 107 004c FFF7FEFF 		bl	dbg_check_leave_isr
 108              	.LVL5:
 109              		.loc 1 210 0
 110 0050 BDE83840 		pop	{r3, r4, r5, lr}
 111              		.loc 1 209 0
 112 0054 FFF7FEBF 		b	_port_irq_epilogue
 113              	.LVL6:
 114              	.L2:
ARM GAS  /tmp/ccSlBs59.s 			page 3


 115              	.LBB15:
 116              	.LBB13:
 117              		.loc 1 114 0
 118 0058 70B9     		cbnz	r0, .L28
 119              		.loc 1 116 0
 120 005a 05F00403 		and	r3, r5, #4
 121 005e 98B2     		uxth	r0, r3
 122 0060 0028     		cmp	r0, #0
 123 0062 EDD0     		beq	.L7
 124              	.L29:
 125              	.LBB11:
 126              		.loc 1 117 0
 127 0064 2178     		ldrb	r1, [r4, #0]	@ zero_extendqisi2
 128              	.LVL7:
 129 0066 0D48     		ldr	r0, .L30
 130 0068 0422     		movs	r2, #4
 131 006a 0329     		cmp	r1, #3
 132 006c 2270     		strb	r2, [r4, #0]
 133 006e E7D0     		beq	.L7
 134 0070 4368     		ldr	r3, [r0, #4]
 135 0072 D968     		ldr	r1, [r3, #12]
 136 0074 8847     		blx	r1
 137              	.LVL8:
 138 0076 E3E7     		b	.L7
 139              	.L28:
 140              	.LBE11:
 141              		.loc 1 115 0
 142 0078 0521     		movs	r1, #5
 143 007a 2046     		mov	r0, r4
 144 007c 2170     		strb	r1, [r4, #0]
 145 007e 9268     		ldr	r2, [r2, #8]
 146 0080 9047     		blx	r2
 147              	.LVL9:
 148              		.loc 1 116 0
 149 0082 05F00403 		and	r3, r5, #4
 150 0086 98B2     		uxth	r0, r3
 151 0088 0028     		cmp	r0, #0
 152 008a D9D0     		beq	.L7
 153 008c EAE7     		b	.L29
 154              	.L27:
 155              		.loc 1 112 0
 156 008e 6368     		ldr	r3, [r4, #4]
 157 0090 0248     		ldr	r0, .L30
 158 0092 9968     		ldr	r1, [r3, #8]
 159 0094 0522     		movs	r2, #5
 160 0096 2270     		strb	r2, [r4, #0]
 161 0098 8847     		blx	r1
 162              	.LVL10:
 163 009a D1E7     		b	.L7
 164              	.L31:
 165              		.align	2
 166              	.L30:
 167 009c 00000000 		.word	.LANCHOR0
 168              	.LBE13:
 169              	.LBE15:
 170              		.cfi_endproc
 171              	.LFE119:
ARM GAS  /tmp/ccSlBs59.s 			page 4


 172              		.size	VectorB4, .-VectorB4
 173              		.section	.text.icu_lld_init,"ax",%progbits
 174              		.align	2
 175              		.p2align 4,,15
 176              		.global	icu_lld_init
 177              		.thumb
 178              		.thumb_func
 179              		.type	icu_lld_init, %function
 180              	icu_lld_init:
 181              	.LFB120:
 182              		.loc 1 308 0
 183              		.cfi_startproc
 184              		@ args = 0, pretend = 0, frame = 0
 185              		@ frame_needed = 0, uses_anonymous_args = 0
 186 0000 10B5     		push	{r4, lr}
 187              	.LCFI1:
 188              		.cfi_def_cfa_offset 8
 189              		.cfi_offset 4, -8
 190              		.cfi_offset 14, -4
 191              		.loc 1 324 0
 192 0002 40F20004 		movw	r4, #:lower16:.LANCHOR0
 193 0006 C0F20004 		movt	r4, #:upper16:.LANCHOR0
 194 000a 2046     		mov	r0, r4
 195 000c FFF7FEFF 		bl	icuObjectInit
 196              	.LVL11:
 197              		.loc 1 325 0
 198 0010 4FF48063 		mov	r3, #1024
 199 0014 C4F20003 		movt	r3, 16384
 200 0018 E360     		str	r3, [r4, #12]
 201 001a 10BD     		pop	{r4, pc}
 202              		.cfi_endproc
 203              	.LFE120:
 204              		.size	icu_lld_init, .-icu_lld_init
 205 001c AFF30080 		.section	.text.icu_lld_start,"ax",%progbits
 206              		.align	2
 207              		.p2align 4,,15
 208              		.global	icu_lld_start
 209              		.thumb
 210              		.thumb_func
 211              		.type	icu_lld_start, %function
 212              	icu_lld_start:
 213              	.LFB121:
 214              		.loc 1 354 0
 215              		.cfi_startproc
 216              		@ args = 0, pretend = 0, frame = 0
 217              		@ frame_needed = 0, uses_anonymous_args = 0
 218              	.LVL12:
 219 0000 38B5     		push	{r3, r4, r5, lr}
 220              	.LCFI2:
 221              		.cfi_def_cfa_offset 16
 222              		.cfi_offset 3, -16
 223              		.cfi_offset 4, -12
 224              		.cfi_offset 5, -8
 225              		.cfi_offset 14, -4
 226              		.loc 1 357 0
 227 0002 4368     		ldr	r3, [r0, #4]
 228              		.loc 1 354 0
ARM GAS  /tmp/ccSlBs59.s 			page 5


 229 0004 0446     		mov	r4, r0
 230              		.loc 1 357 0
 231 0006 187D     		ldrb	r0, [r3, #20]	@ zero_extendqisi2
 232              	.LVL13:
 233 0008 0128     		cmp	r0, #1
 234 000a 02D9     		bls	.L34
 235              		.loc 1 357 0 is_stmt 0 discriminator 1
 236 000c 3248     		ldr	r0, .L48
 237 000e FFF7FEFF 		bl	chDbgPanic
 238              	.LVL14:
 239              	.L34:
 240              		.loc 1 361 0 is_stmt 1
 241 0012 2178     		ldrb	r1, [r4, #0]	@ zero_extendqisi2
 242 0014 0129     		cmp	r1, #1
 243 0016 43D0     		beq	.L45
 244              		.loc 1 425 0
 245 0018 E568     		ldr	r5, [r4, #12]
 246 001a 0022     		movs	r2, #0
 247 001c 2A80     		strh	r2, [r5, #0]	@ movhi
 248              		.loc 1 426 0
 249 001e AA81     		strh	r2, [r5, #12]	@ movhi
 250              		.loc 1 427 0
 251 0020 2A82     		strh	r2, [r5, #16]	@ movhi
 252              		.loc 1 428 0
 253 0022 6A63     		str	r2, [r5, #52]
 254              		.loc 1 429 0
 255 0024 AA63     		str	r2, [r5, #56]
 256              		.loc 1 430 0
 257 0026 6A62     		str	r2, [r5, #36]
 258              	.L36:
 259              		.loc 1 434 0
 260 0028 6268     		ldr	r2, [r4, #4]
 261 002a A368     		ldr	r3, [r4, #8]
 262 002c 5068     		ldr	r0, [r2, #4]
 263 002e B3FBF0F1 		udiv	r1, r3, r0
 264 0032 4D1E     		subs	r5, r1, #1
 265              	.LVL15:
 266              		.loc 1 435 0
 267 0034 B5F5803F 		cmp	r5, #65536
 268 0038 03D2     		bcs	.L37
 269              		.loc 1 435 0 is_stmt 0 discriminator 2
 270 003a 00FB01F1 		mul	r1, r0, r1
 271 003e 8B42     		cmp	r3, r1
 272 0040 03D0     		beq	.L38
 273              	.L37:
 274              		.loc 1 435 0 discriminator 1
 275 0042 2548     		ldr	r0, .L48
 276 0044 FFF7FEFF 		bl	chDbgPanic
 277              	.LVL16:
 278 0048 6268     		ldr	r2, [r4, #4]
 279              	.L38:
 280              		.loc 1 441 0 is_stmt 1
 281 004a 117D     		ldrb	r1, [r2, #20]	@ zero_extendqisi2
 282              		.loc 1 438 0
 283 004c E368     		ldr	r3, [r4, #12]
 284              		.loc 1 454 0
 285 004e 1278     		ldrb	r2, [r2, #0]	@ zero_extendqisi2
ARM GAS  /tmp/ccSlBs59.s 			page 6


 286              		.loc 1 438 0
 287 0050 ADB2     		uxth	r5, r5
 288              	.LVL17:
 289              		.loc 1 439 0
 290 0052 4FF6FF70 		movw	r0, #65535
 291              		.loc 1 438 0
 292 0056 1D85     		strh	r5, [r3, #40]	@ movhi
 293              		.loc 1 439 0
 294 0058 D862     		str	r0, [r3, #44]
 295              		.loc 1 441 0
 296 005a 69B9     		cbnz	r1, .L39
 297              		.loc 1 445 0
 298 005c 40F20121 		movw	r1, #513
 299              		.loc 1 449 0
 300 0060 5420     		movs	r0, #84
 301              		.loc 1 445 0
 302 0062 1983     		strh	r1, [r3, #24]	@ movhi
 303              		.loc 1 449 0
 304 0064 1881     		strh	r0, [r3, #8]	@ movhi
 305              		.loc 1 454 0
 306 0066 C2B1     		cbz	r2, .L46
 307              		.loc 1 458 0
 308 0068 1322     		movs	r2, #19
 309 006a 1A84     		strh	r2, [r3, #32]	@ movhi
 310              	.L41:
 311              		.loc 1 462 0
 312 006c 03F13800 		add	r0, r3, #56
 313              		.loc 1 463 0
 314 0070 3433     		adds	r3, r3, #52
 315              		.loc 1 462 0
 316 0072 2061     		str	r0, [r4, #16]
 317              		.loc 1 463 0
 318 0074 6361     		str	r3, [r4, #20]
 319 0076 38BD     		pop	{r3, r4, r5, pc}
 320              	.L39:
 321              		.loc 1 468 0
 322 0078 4FF48171 		mov	r1, #258
 323              		.loc 1 472 0
 324 007c 6420     		movs	r0, #100
 325              		.loc 1 468 0
 326 007e 1983     		strh	r1, [r3, #24]	@ movhi
 327              		.loc 1 472 0
 328 0080 1881     		strh	r0, [r3, #8]	@ movhi
 329              		.loc 1 477 0
 330 0082 3AB1     		cbz	r2, .L47
 331              		.loc 1 481 0
 332 0084 3122     		movs	r2, #49
 333 0086 1A84     		strh	r2, [r3, #32]	@ movhi
 334              	.L44:
 335              		.loc 1 485 0
 336 0088 03F13400 		add	r0, r3, #52
 337              		.loc 1 486 0
 338 008c 3833     		adds	r3, r3, #56
 339              		.loc 1 485 0
 340 008e 2061     		str	r0, [r4, #16]
 341              		.loc 1 486 0
 342 0090 6361     		str	r3, [r4, #20]
ARM GAS  /tmp/ccSlBs59.s 			page 7


 343 0092 38BD     		pop	{r3, r4, r5, pc}
 344              	.L47:
 345              		.loc 1 478 0
 346 0094 1321     		movs	r1, #19
 347 0096 1984     		strh	r1, [r3, #32]	@ movhi
 348 0098 F6E7     		b	.L44
 349              	.L46:
 350              		.loc 1 455 0
 351 009a 3121     		movs	r1, #49
 352 009c 1984     		strh	r1, [r3, #32]	@ movhi
 353 009e E5E7     		b	.L41
 354              	.L45:
 355              		.loc 1 384 0
 356 00a0 0E4B     		ldr	r3, .L48+4
 357 00a2 9C42     		cmp	r4, r3
 358 00a4 C0D1     		bne	.L36
 359              		.loc 1 385 0
 360 00a6 4FF46051 		mov	r1, #14336
 361 00aa C4F20201 		movt	r1, 16386
 362 00ae 086C     		ldr	r0, [r1, #64]
 363 00b0 40F00205 		orr	r5, r0, #2
 364 00b4 0D64     		str	r5, [r1, #64]
 365              		.loc 1 386 0
 366 00b6 0A6A     		ldr	r2, [r1, #32]
 367 00b8 0025     		movs	r5, #0
 368 00ba 42F00203 		orr	r3, r2, #2
 369 00be 0B62     		str	r3, [r1, #32]
 370              		.loc 1 387 0
 371 00c0 1D20     		movs	r0, #29
 372              		.loc 1 386 0
 373 00c2 0D62     		str	r5, [r1, #32]
 374              		.loc 1 387 0
 375 00c4 7021     		movs	r1, #112
 376 00c6 FFF7FEFF 		bl	nvicEnableVector
 377              	.LVL18:
 378              		.loc 1 389 0
 379 00ca 4FF43D41 		mov	r1, #48384
 380 00ce C0F20151 		movt	r1, 1281
 381 00d2 A160     		str	r1, [r4, #8]
 382 00d4 A8E7     		b	.L36
 383              	.L49:
 384 00d6 00BF     		.align	2
 385              	.L48:
 386 00d8 00000000 		.word	.LC0
 387 00dc 00000000 		.word	.LANCHOR0
 388              		.cfi_endproc
 389              	.LFE121:
 390              		.size	icu_lld_start, .-icu_lld_start
 391              		.section	.text.icu_lld_stop,"ax",%progbits
 392              		.align	2
 393              		.p2align 4,,15
 394              		.global	icu_lld_stop
 395              		.thumb
 396              		.thumb_func
 397              		.type	icu_lld_stop, %function
 398              	icu_lld_stop:
 399              	.LFB122:
ARM GAS  /tmp/ccSlBs59.s 			page 8


 400              		.loc 1 497 0
 401              		.cfi_startproc
 402              		@ args = 0, pretend = 0, frame = 0
 403              		@ frame_needed = 0, uses_anonymous_args = 0
 404              	.LVL19:
 405 0000 08B5     		push	{r3, lr}
 406              	.LCFI3:
 407              		.cfi_def_cfa_offset 8
 408              		.cfi_offset 3, -8
 409              		.cfi_offset 14, -4
 410              		.loc 1 499 0
 411 0002 0378     		ldrb	r3, [r0, #0]	@ zero_extendqisi2
 412 0004 022B     		cmp	r3, #2
 413 0006 00D0     		beq	.L54
 414              	.LVL20:
 415              	.L50:
 416 0008 08BD     		pop	{r3, pc}
 417              	.LVL21:
 418              	.L54:
 419              		.loc 1 519 0
 420 000a 0A4B     		ldr	r3, .L55
 421              		.loc 1 501 0
 422 000c C168     		ldr	r1, [r0, #12]
 423 000e 0022     		movs	r2, #0
 424              		.loc 1 519 0
 425 0010 9842     		cmp	r0, r3
 426              		.loc 1 501 0
 427 0012 0A80     		strh	r2, [r1, #0]	@ movhi
 428              		.loc 1 502 0
 429 0014 8A81     		strh	r2, [r1, #12]	@ movhi
 430              		.loc 1 503 0
 431 0016 0A82     		strh	r2, [r1, #16]	@ movhi
 432              		.loc 1 519 0
 433 0018 F6D1     		bne	.L50
 434              		.loc 1 520 0
 435 001a 1D20     		movs	r0, #29
 436              	.LVL22:
 437 001c FFF7FEFF 		bl	nvicDisableVector
 438              	.LVL23:
 439              		.loc 1 521 0
 440 0020 4FF46050 		mov	r0, #14336
 441 0024 C4F20200 		movt	r0, 16386
 442 0028 016C     		ldr	r1, [r0, #64]
 443 002a 21F00202 		bic	r2, r1, #2
 444 002e 0264     		str	r2, [r0, #64]
 445 0030 EAE7     		b	.L50
 446              	.L56:
 447 0032 00BF     		.align	2
 448              	.L55:
 449 0034 00000000 		.word	.LANCHOR0
 450              		.cfi_endproc
 451              	.LFE122:
 452              		.size	icu_lld_stop, .-icu_lld_stop
 453 0038 AFF30080 		.section	.text.icu_lld_enable,"ax",%progbits
 453      AFF30080 
 454              		.align	2
 455              		.p2align 4,,15
ARM GAS  /tmp/ccSlBs59.s 			page 9


 456              		.global	icu_lld_enable
 457              		.thumb
 458              		.thumb_func
 459              		.type	icu_lld_enable, %function
 460              	icu_lld_enable:
 461              	.LFB123:
 462              		.loc 1 553 0
 463              		.cfi_startproc
 464              		@ args = 0, pretend = 0, frame = 0
 465              		@ frame_needed = 0, uses_anonymous_args = 0
 466              		@ link register save eliminated.
 467              	.LVL24:
 468              		.loc 1 556 0
 469 0000 4268     		ldr	r2, [r0, #4]
 470              		.loc 1 555 0
 471 0002 C368     		ldr	r3, [r0, #12]
 472              		.loc 1 556 0
 473 0004 117D     		ldrb	r1, [r2, #20]	@ zero_extendqisi2
 474              		.loc 1 555 0
 475 0006 0020     		movs	r0, #0
 476              	.LVL25:
 477 0008 1882     		strh	r0, [r3, #16]	@ movhi
 478              		.loc 1 556 0
 479 000a B9B9     		cbnz	r1, .L58
 480              		.loc 1 557 0
 481 000c D068     		ldr	r0, [r2, #12]
 482 000e 20B1     		cbz	r0, .L59
 483              		.loc 1 558 0
 484 0010 9989     		ldrh	r1, [r3, #12]
 485 0012 88B2     		uxth	r0, r1
 486 0014 40F00201 		orr	r1, r0, #2
 487 0018 9981     		strh	r1, [r3, #12]	@ movhi
 488              	.L59:
 489              		.loc 1 559 0
 490 001a 9068     		ldr	r0, [r2, #8]
 491 001c 20B1     		cbz	r0, .L61
 492              	.L77:
 493              		.loc 1 565 0
 494 001e 9989     		ldrh	r1, [r3, #12]
 495 0020 88B2     		uxth	r0, r1
 496 0022 40F00401 		orr	r1, r0, #4
 497 0026 9981     		strh	r1, [r3, #12]	@ movhi
 498              	.L61:
 499              		.loc 1 567 0
 500 0028 1269     		ldr	r2, [r2, #16]
 501 002a 22B1     		cbz	r2, .L64
 502              		.loc 1 568 0
 503 002c 9889     		ldrh	r0, [r3, #12]
 504 002e 81B2     		uxth	r1, r0
 505 0030 41F00102 		orr	r2, r1, #1
 506 0034 9A81     		strh	r2, [r3, #12]	@ movhi
 507              	.L64:
 508              		.loc 1 569 0
 509 0036 0520     		movs	r0, #5
 510 0038 1880     		strh	r0, [r3, #0]	@ movhi
 511 003a 7047     		bx	lr
 512              	.L58:
ARM GAS  /tmp/ccSlBs59.s 			page 10


 513              		.loc 1 562 0
 514 003c 9168     		ldr	r1, [r2, #8]
 515 003e 21B1     		cbz	r1, .L62
 516              		.loc 1 563 0
 517 0040 9889     		ldrh	r0, [r3, #12]
 518 0042 81B2     		uxth	r1, r0
 519 0044 41F00200 		orr	r0, r1, #2
 520 0048 9881     		strh	r0, [r3, #12]	@ movhi
 521              	.L62:
 522              		.loc 1 564 0
 523 004a D168     		ldr	r1, [r2, #12]
 524 004c 0029     		cmp	r1, #0
 525 004e E6D1     		bne	.L77
 526 0050 EAE7     		b	.L61
 527              		.cfi_endproc
 528              	.LFE123:
 529              		.size	icu_lld_enable, .-icu_lld_enable
 530 0052 00BFAFF3 		.section	.text.icu_lld_disable,"ax",%progbits
 530      0080AFF3 
 530      0080AFF3 
 530      0080
 531              		.align	2
 532              		.p2align 4,,15
 533              		.global	icu_lld_disable
 534              		.thumb
 535              		.thumb_func
 536              		.type	icu_lld_disable, %function
 537              	icu_lld_disable:
 538              	.LFB124:
 539              		.loc 1 579 0
 540              		.cfi_startproc
 541              		@ args = 0, pretend = 0, frame = 0
 542              		@ frame_needed = 0, uses_anonymous_args = 0
 543              		@ link register save eliminated.
 544              	.LVL26:
 545              		.loc 1 581 0
 546 0000 C368     		ldr	r3, [r0, #12]
 547 0002 0022     		movs	r2, #0
 548 0004 1A80     		strh	r2, [r3, #0]	@ movhi
 549              		.loc 1 582 0
 550 0006 1A82     		strh	r2, [r3, #16]	@ movhi
 551              		.loc 1 583 0
 552 0008 9A81     		strh	r2, [r3, #12]	@ movhi
 553 000a 7047     		bx	lr
 554              		.cfi_endproc
 555              	.LFE124:
 556              		.size	icu_lld_disable, .-icu_lld_disable
 557              		.global	ICUD3
 558 000c AFF30080 		.section	.bss.ICUD3,"aw",%nobits
 559              		.align	2
 560              		.set	.LANCHOR0,. + 0
 561              		.type	ICUD3, %object
 562              		.size	ICUD3, 24
 563              	ICUD3:
 564 0000 00000000 		.space	24
 564      00000000 
 564      00000000 
ARM GAS  /tmp/ccSlBs59.s 			page 11


 564      00000000 
 564      00000000 
 565              		.section	.rodata.str1.4,"aMS",%progbits,1
 566              		.align	2
 567              	.LC0:
 568 0000 6963755F 		.ascii	"icu_lld_start(), #1\000"
 568      6C6C645F 
 568      73746172 
 568      7428292C 
 568      20233100 
 569              		.text
 570              	.Letext0:
 571              		.file 2 "/opt/gcc-arm-none-eabi-4_7-2013q1/bin/../lib/gcc/arm-none-eabi/4.7.3/../../../../arm-none
 572              		.file 3 "/home/gokul/ChibiOS_2.5.0/os/hal/platforms/STM32F4xx/stm32f4xx.h"
 573              		.file 4 "/home/gokul/ChibiOS_2.5.0/os/hal/platforms/STM32/stm32.h"
 574              		.file 5 "/home/gokul/ChibiOS_2.5.0/os/hal/include/icu.h"
 575              		.file 6 "/home/gokul/ChibiOS_2.5.0/os/hal/platforms/STM32/icu_lld.h"
 576              		.file 7 "/home/gokul/ChibiOS_2.5.0/os/ports/common/ARMCMx/CMSIS/include/core_cm4.h"
 577              		.file 8 "/home/gokul/ChibiOS_2.5.0/os/kernel/include/chdebug.h"
 578              		.file 9 "/home/gokul/ChibiOS_2.5.0/os/ports/GCC/ARMCMx/chcore_v7m.h"
 579              		.file 10 "/home/gokul/ChibiOS_2.5.0/os/ports/common/ARMCMx/nvic.h"