ARM GAS  /tmp/ccBiHxvo.s 			page 1


   1              		.syntax unified
   2              		.cpu cortex-m4
   3              		.fpu softvfp
   4              		.eabi_attribute 20, 1
   5              		.eabi_attribute 21, 1
   6              		.eabi_attribute 23, 3
   7              		.eabi_attribute 24, 1
   8              		.eabi_attribute 25, 1
   9              		.eabi_attribute 26, 1
  10              		.eabi_attribute 30, 2
  11              		.eabi_attribute 34, 1
  12              		.eabi_attribute 18, 4
  13              		.thumb
  14              		.file	"pwm.c"
  15              		.text
  16              	.Ltext0:
  17              		.cfi_sections	.debug_frame
  18              		.section	.text.pwmInit,"ax",%progbits
  19              		.align	2
  20              		.p2align 4,,15
  21              		.global	pwmInit
  22              		.thumb
  23              		.thumb_func
  24              		.type	pwmInit, %function
  25              	pwmInit:
  26              	.LFB118:
  27              		.file 1 "/home/gokul/ChibiOS_2.5.0/os/hal/src/pwm.c"
  28              		.loc 1 61 0
  29              		.cfi_startproc
  30              		@ args = 0, pretend = 0, frame = 0
  31              		@ frame_needed = 0, uses_anonymous_args = 0
  32              		@ link register save eliminated.
  33              		.loc 1 64 0
  34              		.loc 1 63 0
  35 0000 FFF7FEBF 		b	pwm_lld_init
  36              	.LVL0:
  37              		.cfi_endproc
  38              	.LFE118:
  39              		.size	pwmInit, .-pwmInit
  40 0004 AFF30080 		.section	.text.pwmObjectInit,"ax",%progbits
  40      AFF30080 
  40      AFF30080 
  41              		.align	2
  42              		.p2align 4,,15
  43              		.global	pwmObjectInit
  44              		.thumb
  45              		.thumb_func
  46              		.type	pwmObjectInit, %function
  47              	pwmObjectInit:
  48              	.LFB119:
  49              		.loc 1 73 0
  50              		.cfi_startproc
  51              		@ args = 0, pretend = 0, frame = 0
  52              		@ frame_needed = 0, uses_anonymous_args = 0
  53              		@ link register save eliminated.
  54              	.LVL1:
  55              		.loc 1 75 0
ARM GAS  /tmp/ccBiHxvo.s 			page 2


  56 0000 0123     		movs	r3, #1
  57              		.loc 1 76 0
  58 0002 0021     		movs	r1, #0
  59              		.loc 1 75 0
  60 0004 0370     		strb	r3, [r0, #0]
  61              		.loc 1 76 0
  62 0006 4160     		str	r1, [r0, #4]
  63 0008 7047     		bx	lr
  64              		.cfi_endproc
  65              	.LFE119:
  66              		.size	pwmObjectInit, .-pwmObjectInit
  67 000a 00BFAFF3 		.section	.text.pwmStart,"ax",%progbits
  67      0080
  68              		.align	2
  69              		.p2align 4,,15
  70              		.global	pwmStart
  71              		.thumb
  72              		.thumb_func
  73              		.type	pwmStart, %function
  74              	pwmStart:
  75              	.LFB120:
  76              		.loc 1 92 0
  77              		.cfi_startproc
  78              		@ args = 0, pretend = 0, frame = 0
  79              		@ frame_needed = 0, uses_anonymous_args = 0
  80              	.LVL2:
  81 0000 38B5     		push	{r3, r4, r5, lr}
  82              	.LCFI0:
  83              		.cfi_def_cfa_offset 16
  84              		.cfi_offset 3, -16
  85              		.cfi_offset 4, -12
  86              		.cfi_offset 5, -8
  87              		.cfi_offset 14, -4
  88              		.loc 1 94 0
  89 0002 0446     		mov	r4, r0
  90              		.loc 1 92 0
  91 0004 0D46     		mov	r5, r1
  92              		.loc 1 94 0
  93 0006 D0B1     		cbz	r0, .L4
  94              		.loc 1 94 0 is_stmt 0 discriminator 2
  95 0008 C9B1     		cbz	r1, .L4
  96              	.LVL3:
  97              	.L5:
  98              	.LBB2:
  99              		.loc 1 96 0 is_stmt 1
 100 000a 2023     		movs	r3, #32
 101              	.LVL4:
 102              	@ 96 "/home/gokul/ChibiOS_2.5.0/os/hal/src/pwm.c" 1
 103 000c 83F31188 		msr     BASEPRI, r3
 104              	@ 0 "" 2
 105              	.LVL5:
 106              		.thumb
 107              	.LBE2:
 108 0010 FFF7FEFF 		bl	dbg_check_lock
 109              	.LVL6:
 110              		.loc 1 97 0
 111 0014 2378     		ldrb	r3, [r4, #0]	@ zero_extendqisi2
ARM GAS  /tmp/ccBiHxvo.s 			page 3


 112 0016 581E     		subs	r0, r3, #1
 113 0018 0128     		cmp	r0, #1
 114 001a 02D9     		bls	.L6
 115              		.loc 1 97 0 is_stmt 0 discriminator 1
 116 001c 0A48     		ldr	r0, .L11
 117 001e FFF7FEFF 		bl	chDbgPanic
 118              	.LVL7:
 119              	.L6:
 120              		.loc 1 100 0 is_stmt 1
 121 0022 A988     		ldrh	r1, [r5, #4]
 122              		.loc 1 99 0
 123 0024 6560     		str	r5, [r4, #4]
 124              		.loc 1 101 0
 125 0026 2046     		mov	r0, r4
 126              		.loc 1 100 0
 127 0028 2181     		strh	r1, [r4, #8]	@ movhi
 128              		.loc 1 101 0
 129 002a FFF7FEFF 		bl	pwm_lld_start
 130              	.LVL8:
 131              		.loc 1 102 0
 132 002e 0222     		movs	r2, #2
 133 0030 2270     		strb	r2, [r4, #0]
 134              		.loc 1 103 0
 135 0032 FFF7FEFF 		bl	dbg_check_unlock
 136              	.LVL9:
 137              	.LBB3:
 138 0036 0023     		movs	r3, #0
 139              	.LVL10:
 140              	@ 103 "/home/gokul/ChibiOS_2.5.0/os/hal/src/pwm.c" 1
 141 0038 83F31188 		msr     BASEPRI, r3
 142              	@ 0 "" 2
 143              	.LVL11:
 144              		.thumb
 145 003c 38BD     		pop	{r3, r4, r5, pc}
 146              	.LVL12:
 147              	.L4:
 148              	.LBE3:
 149              		.loc 1 94 0 discriminator 1
 150 003e 0348     		ldr	r0, .L11+4
 151              	.LVL13:
 152 0040 FFF7FEFF 		bl	chDbgPanic
 153              	.LVL14:
 154 0044 E1E7     		b	.L5
 155              	.L12:
 156 0046 00BF     		.align	2
 157              	.L11:
 158 0048 10000000 		.word	.LC1
 159 004c 00000000 		.word	.LC0
 160              		.cfi_endproc
 161              	.LFE120:
 162              		.size	pwmStart, .-pwmStart
 163              		.section	.text.pwmStop,"ax",%progbits
 164              		.align	2
 165              		.p2align 4,,15
 166              		.global	pwmStop
 167              		.thumb
 168              		.thumb_func
ARM GAS  /tmp/ccBiHxvo.s 			page 4


 169              		.type	pwmStop, %function
 170              	pwmStop:
 171              	.LFB121:
 172              		.loc 1 113 0
 173              		.cfi_startproc
 174              		@ args = 0, pretend = 0, frame = 0
 175              		@ frame_needed = 0, uses_anonymous_args = 0
 176              	.LVL15:
 177 0000 10B5     		push	{r4, lr}
 178              	.LCFI1:
 179              		.cfi_def_cfa_offset 8
 180              		.cfi_offset 4, -8
 181              		.cfi_offset 14, -4
 182              		.loc 1 115 0
 183 0002 0446     		mov	r4, r0
 184 0004 B0B1     		cbz	r0, .L16
 185              	.LVL16:
 186              	.L14:
 187              	.LBB4:
 188              		.loc 1 117 0
 189 0006 2023     		movs	r3, #32
 190              	.LVL17:
 191              	@ 117 "/home/gokul/ChibiOS_2.5.0/os/hal/src/pwm.c" 1
 192 0008 83F31188 		msr     BASEPRI, r3
 193              	@ 0 "" 2
 194              	.LVL18:
 195              		.thumb
 196              	.LBE4:
 197 000c FFF7FEFF 		bl	dbg_check_lock
 198              	.LVL19:
 199              		.loc 1 118 0
 200 0010 2378     		ldrb	r3, [r4, #0]	@ zero_extendqisi2
 201 0012 581E     		subs	r0, r3, #1
 202 0014 0128     		cmp	r0, #1
 203 0016 02D9     		bls	.L15
 204              		.loc 1 118 0 is_stmt 0 discriminator 1
 205 0018 0848     		ldr	r0, .L17
 206 001a FFF7FEFF 		bl	chDbgPanic
 207              	.LVL20:
 208              	.L15:
 209              		.loc 1 120 0 is_stmt 1
 210 001e 2046     		mov	r0, r4
 211 0020 FFF7FEFF 		bl	pwm_lld_stop
 212              	.LVL21:
 213              		.loc 1 121 0
 214 0024 0121     		movs	r1, #1
 215 0026 2170     		strb	r1, [r4, #0]
 216              		.loc 1 122 0
 217 0028 FFF7FEFF 		bl	dbg_check_unlock
 218              	.LVL22:
 219              	.LBB5:
 220 002c 0023     		movs	r3, #0
 221              	.LVL23:
 222              	@ 122 "/home/gokul/ChibiOS_2.5.0/os/hal/src/pwm.c" 1
 223 002e 83F31188 		msr     BASEPRI, r3
 224              	@ 0 "" 2
 225              	.LVL24:
ARM GAS  /tmp/ccBiHxvo.s 			page 5


 226              		.thumb
 227 0032 10BD     		pop	{r4, pc}
 228              	.LVL25:
 229              	.L16:
 230              	.LBE5:
 231              		.loc 1 115 0 discriminator 1
 232 0034 0248     		ldr	r0, .L17+4
 233              	.LVL26:
 234 0036 FFF7FEFF 		bl	chDbgPanic
 235              	.LVL27:
 236 003a E4E7     		b	.L14
 237              	.L18:
 238              		.align	2
 239              	.L17:
 240 003c 2C000000 		.word	.LC3
 241 0040 20000000 		.word	.LC2
 242              		.cfi_endproc
 243              	.LFE121:
 244              		.size	pwmStop, .-pwmStop
 245 0044 AFF30080 		.section	.text.pwmChangePeriod,"ax",%progbits
 245      AFF30080 
 245      AFF30080 
 246              		.align	2
 247              		.p2align 4,,15
 248              		.global	pwmChangePeriod
 249              		.thumb
 250              		.thumb_func
 251              		.type	pwmChangePeriod, %function
 252              	pwmChangePeriod:
 253              	.LFB122:
 254              		.loc 1 140 0
 255              		.cfi_startproc
 256              		@ args = 0, pretend = 0, frame = 0
 257              		@ frame_needed = 0, uses_anonymous_args = 0
 258              	.LVL28:
 259 0000 38B5     		push	{r3, r4, r5, lr}
 260              	.LCFI2:
 261              		.cfi_def_cfa_offset 16
 262              		.cfi_offset 3, -16
 263              		.cfi_offset 4, -12
 264              		.cfi_offset 5, -8
 265              		.cfi_offset 14, -4
 266              		.loc 1 142 0
 267 0002 0446     		mov	r4, r0
 268              		.loc 1 140 0
 269 0004 0D46     		mov	r5, r1
 270              		.loc 1 142 0
 271 0006 A8B1     		cbz	r0, .L25
 272              	.LVL29:
 273              	.L20:
 274              	.LBB6:
 275              		.loc 1 144 0
 276 0008 2023     		movs	r3, #32
 277              	.LVL30:
 278              	@ 144 "/home/gokul/ChibiOS_2.5.0/os/hal/src/pwm.c" 1
 279 000a 83F31188 		msr     BASEPRI, r3
 280              	@ 0 "" 2
ARM GAS  /tmp/ccBiHxvo.s 			page 6


 281              	.LVL31:
 282              		.thumb
 283              	.LBE6:
 284 000e FFF7FEFF 		bl	dbg_check_lock
 285              	.LVL32:
 286              		.loc 1 145 0
 287 0012 2378     		ldrb	r3, [r4, #0]	@ zero_extendqisi2
 288 0014 022B     		cmp	r3, #2
 289 0016 02D0     		beq	.L21
 290              		.loc 1 145 0 is_stmt 0 discriminator 1
 291 0018 0848     		ldr	r0, .L26
 292 001a FFF7FEFF 		bl	chDbgPanic
 293              	.LVL33:
 294              	.L21:
 295              		.loc 1 147 0 is_stmt 1
 296 001e 2069     		ldr	r0, [r4, #16]
 297 0020 2581     		strh	r5, [r4, #8]	@ movhi
 298 0022 691E     		subs	r1, r5, #1
 299 0024 8DB2     		uxth	r5, r1
 300 0026 C562     		str	r5, [r0, #44]
 301              		.loc 1 148 0
 302 0028 FFF7FEFF 		bl	dbg_check_unlock
 303              	.LVL34:
 304              	.LBB7:
 305 002c 0023     		movs	r3, #0
 306              	.LVL35:
 307              	@ 148 "/home/gokul/ChibiOS_2.5.0/os/hal/src/pwm.c" 1
 308 002e 83F31188 		msr     BASEPRI, r3
 309              	@ 0 "" 2
 310              	.LVL36:
 311              		.thumb
 312 0032 38BD     		pop	{r3, r4, r5, pc}
 313              	.LVL37:
 314              	.L25:
 315              	.LBE7:
 316              		.loc 1 142 0 discriminator 1
 317 0034 0248     		ldr	r0, .L26+4
 318              	.LVL38:
 319 0036 FFF7FEFF 		bl	chDbgPanic
 320              	.LVL39:
 321 003a E5E7     		b	.L20
 322              	.L27:
 323              		.align	2
 324              	.L26:
 325 003c 50000000 		.word	.LC5
 326 0040 3C000000 		.word	.LC4
 327              		.cfi_endproc
 328              	.LFE122:
 329              		.size	pwmChangePeriod, .-pwmChangePeriod
 330 0044 AFF30080 		.section	.text.pwmEnableChannel,"ax",%progbits
 330      AFF30080 
 330      AFF30080 
 331              		.align	2
 332              		.p2align 4,,15
 333              		.global	pwmEnableChannel
 334              		.thumb
 335              		.thumb_func
ARM GAS  /tmp/ccBiHxvo.s 			page 7


 336              		.type	pwmEnableChannel, %function
 337              	pwmEnableChannel:
 338              	.LFB123:
 339              		.loc 1 167 0
 340              		.cfi_startproc
 341              		@ args = 0, pretend = 0, frame = 0
 342              		@ frame_needed = 0, uses_anonymous_args = 0
 343              	.LVL40:
 344 0000 70B5     		push	{r4, r5, r6, lr}
 345              	.LCFI3:
 346              		.cfi_def_cfa_offset 16
 347              		.cfi_offset 4, -16
 348              		.cfi_offset 5, -12
 349              		.cfi_offset 6, -8
 350              		.cfi_offset 14, -4
 351              		.loc 1 169 0
 352 0002 0446     		mov	r4, r0
 353              		.loc 1 167 0
 354 0004 0D46     		mov	r5, r1
 355 0006 1646     		mov	r6, r2
 356              		.loc 1 169 0
 357 0008 B8B1     		cbz	r0, .L29
 358              		.loc 1 169 0 is_stmt 0 discriminator 2
 359 000a 0329     		cmp	r1, #3
 360 000c 15D8     		bhi	.L29
 361              	.LVL41:
 362              	.L30:
 363              	.LBB8:
 364              		.loc 1 172 0 is_stmt 1
 365 000e 2023     		movs	r3, #32
 366              	.LVL42:
 367              	@ 172 "/home/gokul/ChibiOS_2.5.0/os/hal/src/pwm.c" 1
 368 0010 83F31188 		msr     BASEPRI, r3
 369              	@ 0 "" 2
 370              	.LVL43:
 371              		.thumb
 372              	.LBE8:
 373 0014 FFF7FEFF 		bl	dbg_check_lock
 374              	.LVL44:
 375              		.loc 1 173 0
 376 0018 2378     		ldrb	r3, [r4, #0]	@ zero_extendqisi2
 377 001a 022B     		cmp	r3, #2
 378 001c 02D0     		beq	.L31
 379              		.loc 1 173 0 is_stmt 0 discriminator 1
 380 001e 0948     		ldr	r0, .L38
 381 0020 FFF7FEFF 		bl	chDbgPanic
 382              	.LVL45:
 383              	.L31:
 384              		.loc 1 175 0 is_stmt 1
 385 0024 2046     		mov	r0, r4
 386 0026 2946     		mov	r1, r5
 387 0028 3246     		mov	r2, r6
 388 002a FFF7FEFF 		bl	pwm_lld_enable_channel
 389              	.LVL46:
 390              		.loc 1 176 0
 391 002e FFF7FEFF 		bl	dbg_check_unlock
 392              	.LVL47:
ARM GAS  /tmp/ccBiHxvo.s 			page 8


 393              	.LBB9:
 394 0032 0023     		movs	r3, #0
 395              	.LVL48:
 396              	@ 176 "/home/gokul/ChibiOS_2.5.0/os/hal/src/pwm.c" 1
 397 0034 83F31188 		msr     BASEPRI, r3
 398              	@ 0 "" 2
 399              	.LVL49:
 400              		.thumb
 401 0038 70BD     		pop	{r4, r5, r6, pc}
 402              	.LVL50:
 403              	.L29:
 404              	.LBE9:
 405              		.loc 1 169 0 discriminator 1
 406 003a 0348     		ldr	r0, .L38+4
 407              	.LVL51:
 408 003c FFF7FEFF 		bl	chDbgPanic
 409              	.LVL52:
 410 0040 E5E7     		b	.L30
 411              	.L39:
 412 0042 00BF     		.align	2
 413              	.L38:
 414 0044 80000000 		.word	.LC7
 415 0048 68000000 		.word	.LC6
 416              		.cfi_endproc
 417              	.LFE123:
 418              		.size	pwmEnableChannel, .-pwmEnableChannel
 419 004c AFF30080 		.section	.text.pwmDisableChannel,"ax",%progbits
 420              		.align	2
 421              		.p2align 4,,15
 422              		.global	pwmDisableChannel
 423              		.thumb
 424              		.thumb_func
 425              		.type	pwmDisableChannel, %function
 426              	pwmDisableChannel:
 427              	.LFB124:
 428              		.loc 1 193 0
 429              		.cfi_startproc
 430              		@ args = 0, pretend = 0, frame = 0
 431              		@ frame_needed = 0, uses_anonymous_args = 0
 432              	.LVL53:
 433 0000 38B5     		push	{r3, r4, r5, lr}
 434              	.LCFI4:
 435              		.cfi_def_cfa_offset 16
 436              		.cfi_offset 3, -16
 437              		.cfi_offset 4, -12
 438              		.cfi_offset 5, -8
 439              		.cfi_offset 14, -4
 440              		.loc 1 195 0
 441 0002 0446     		mov	r4, r0
 442              		.loc 1 193 0
 443 0004 0D46     		mov	r5, r1
 444              		.loc 1 195 0
 445 0006 B0B1     		cbz	r0, .L41
 446              		.loc 1 195 0 is_stmt 0 discriminator 2
 447 0008 0329     		cmp	r1, #3
 448 000a 14D8     		bhi	.L41
 449              	.LVL54:
ARM GAS  /tmp/ccBiHxvo.s 			page 9


 450              	.L42:
 451              	.LBB10:
 452              		.loc 1 198 0 is_stmt 1
 453 000c 2023     		movs	r3, #32
 454              	.LVL55:
 455              	@ 198 "/home/gokul/ChibiOS_2.5.0/os/hal/src/pwm.c" 1
 456 000e 83F31188 		msr     BASEPRI, r3
 457              	@ 0 "" 2
 458              	.LVL56:
 459              		.thumb
 460              	.LBE10:
 461 0012 FFF7FEFF 		bl	dbg_check_lock
 462              	.LVL57:
 463              		.loc 1 199 0
 464 0016 2378     		ldrb	r3, [r4, #0]	@ zero_extendqisi2
 465 0018 022B     		cmp	r3, #2
 466 001a 02D0     		beq	.L43
 467              		.loc 1 199 0 is_stmt 0 discriminator 1
 468 001c 0848     		ldr	r0, .L50
 469 001e FFF7FEFF 		bl	chDbgPanic
 470              	.LVL58:
 471              	.L43:
 472              		.loc 1 201 0 is_stmt 1
 473 0022 2046     		mov	r0, r4
 474 0024 2946     		mov	r1, r5
 475 0026 FFF7FEFF 		bl	pwm_lld_disable_channel
 476              	.LVL59:
 477              		.loc 1 202 0
 478 002a FFF7FEFF 		bl	dbg_check_unlock
 479              	.LVL60:
 480              	.LBB11:
 481 002e 0023     		movs	r3, #0
 482              	.LVL61:
 483              	@ 202 "/home/gokul/ChibiOS_2.5.0/os/hal/src/pwm.c" 1
 484 0030 83F31188 		msr     BASEPRI, r3
 485              	@ 0 "" 2
 486              	.LVL62:
 487              		.thumb
 488 0034 38BD     		pop	{r3, r4, r5, pc}
 489              	.LVL63:
 490              	.L41:
 491              	.LBE11:
 492              		.loc 1 195 0 discriminator 1
 493 0036 0348     		ldr	r0, .L50+4
 494              	.LVL64:
 495 0038 FFF7FEFF 		bl	chDbgPanic
 496              	.LVL65:
 497 003c E6E7     		b	.L42
 498              	.L51:
 499 003e 00BF     		.align	2
 500              	.L50:
 501 0040 98000000 		.word	.LC8
 502 0044 68000000 		.word	.LC6
 503              		.cfi_endproc
 504              	.LFE124:
 505              		.size	pwmDisableChannel, .-pwmDisableChannel
 506 0048 AFF30080 		.section	.rodata.str1.4,"aMS",%progbits,1
ARM GAS  /tmp/ccBiHxvo.s 			page 10


 506      AFF30080 
 507              		.align	2
 508              	.LC0:
 509 0000 2270776D 		.ascii	"\"pwmStart\"()\000"
 509      53746172 
 509      74222829 
 509      00
 510 000d 000000   		.space	3
 511              	.LC1:
 512 0010 70776D53 		.ascii	"pwmStart(), #1\000"
 512      74617274 
 512      28292C20 
 512      233100
 513 001f 00       		.space	1
 514              	.LC2:
 515 0020 2270776D 		.ascii	"\"pwmStop\"()\000"
 515      53746F70 
 515      22282900 
 516              	.LC3:
 517 002c 70776D53 		.ascii	"pwmStop(), #1\000"
 517      746F7028 
 517      292C2023 
 517      3100
 518 003a 0000     		.space	2
 519              	.LC4:
 520 003c 2270776D 		.ascii	"\"pwmChangePeriod\"()\000"
 520      4368616E 
 520      67655065 
 520      72696F64 
 520      22282900 
 521              	.LC5:
 522 0050 70776D43 		.ascii	"pwmChangePeriod(), #1\000"
 522      68616E67 
 522      65506572 
 522      696F6428 
 522      292C2023 
 523 0066 0000     		.space	2
 524              	.LC6:
 525 0068 2270776D 		.ascii	"\"pwmEnableChannel\"()\000"
 525      456E6162 
 525      6C654368 
 525      616E6E65 
 525      6C222829 
 526 007d 000000   		.space	3
 527              	.LC7:
 528 0080 70776D45 		.ascii	"pwmEnableChannel(), #1\000"
 528      6E61626C 
 528      65436861 
 528      6E6E656C 
 528      28292C20 
 529 0097 00       		.space	1
 530              	.LC8:
 531 0098 70776D44 		.ascii	"pwmDisableChannel(), #1\000"
 531      69736162 
 531      6C654368 
 531      616E6E65 
 531      6C28292C 
ARM GAS  /tmp/ccBiHxvo.s 			page 11


 532              		.text
 533              	.Letext0:
 534              		.file 2 "/opt/gcc-arm-none-eabi-4_7-2013q1/bin/../lib/gcc/arm-none-eabi/4.7.3/../../../../arm-none
 535              		.file 3 "/home/gokul/ChibiOS_2.5.0/os/hal/platforms/STM32/stm32.h"
 536              		.file 4 "/home/gokul/ChibiOS_2.5.0/os/hal/include/pwm.h"
 537              		.file 5 "/home/gokul/ChibiOS_2.5.0/os/hal/platforms/STM32/pwm_lld.h"
 538              		.file 6 "/home/gokul/ChibiOS_2.5.0/os/kernel/include/chdebug.h"
 539              		.file 7 "/home/gokul/ChibiOS_2.5.0/os/ports/common/ARMCMx/CMSIS/include/core_cm4.h"