ARM GAS  /tmp/ccVuR9Of.s 			page 1


   1              		.syntax unified
   2              		.cpu cortex-m4
   3              		.fpu softvfp
   4              		.eabi_attribute 20, 1
   5              		.eabi_attribute 21, 1
   6              		.eabi_attribute 23, 3
   7              		.eabi_attribute 24, 1
   8              		.eabi_attribute 25, 1
   9              		.eabi_attribute 26, 1
  10              		.eabi_attribute 30, 2
  11              		.eabi_attribute 34, 1
  12              		.eabi_attribute 18, 4
  13              		.thumb
  14              		.file	"pwm_lld.c"
  15              		.text
  16              	.Ltext0:
  17              		.cfi_sections	.debug_frame
  18              		.section	.text.VectorB8,"ax",%progbits
  19              		.align	2
  20              		.p2align 4,,15
  21              		.global	VectorB8
  22              		.thumb
  23              		.thumb_func
  24              		.type	VectorB8, %function
  25              	VectorB8:
  26              	.LFB119:
  27              		.file 1 "/home/gokul/ChibiOS_2.5.0/os/hal/platforms/STM32/pwm_lld.c"
  28              		.loc 1 227 0
  29              		.cfi_startproc
  30              		@ args = 0, pretend = 0, frame = 0
  31              		@ frame_needed = 0, uses_anonymous_args = 0
  32 0000 38B5     		push	{r3, r4, r5, lr}
  33              	.LCFI0:
  34              		.cfi_def_cfa_offset 16
  35              		.cfi_offset 3, -16
  36              		.cfi_offset 4, -12
  37              		.cfi_offset 5, -8
  38              		.cfi_offset 14, -4
  39              	.LBB4:
  40              	.LBB5:
  41              		.loc 1 107 0
  42 0002 1E4D     		ldr	r5, .L27
  43              	.LBE5:
  44              	.LBE4:
  45              		.loc 1 229 0
  46 0004 FFF7FEFF 		bl	dbg_check_enter_isr
  47              	.LVL0:
  48              	.LBB8:
  49              	.LBB6:
  50              		.loc 1 107 0
  51 0008 2B69     		ldr	r3, [r5, #16]
  52 000a 1A8A     		ldrh	r2, [r3, #16]
  53 000c 9C89     		ldrh	r4, [r3, #12]
  54 000e A4B2     		uxth	r4, r4
  55 0010 1440     		ands	r4, r4, r2
  56              	.LVL1:
  57              		.loc 1 108 0
ARM GAS  /tmp/ccVuR9Of.s 			page 2


  58 0012 E143     		mvns	r1, r4
  59              		.loc 1 109 0
  60 0014 04F00200 		and	r0, r4, #2
  61              		.loc 1 108 0
  62 0018 89B2     		uxth	r1, r1
  63              		.loc 1 109 0
  64 001a 82B2     		uxth	r2, r0
  65              		.loc 1 108 0
  66 001c 1982     		strh	r1, [r3, #16]	@ movhi
  67              		.loc 1 109 0
  68 001e 002A     		cmp	r2, #0
  69 0020 27D1     		bne	.L23
  70              	.L2:
  71              		.loc 1 111 0
  72 0022 04F00400 		and	r0, r4, #4
  73 0026 82B2     		uxth	r2, r0
  74 0028 002A     		cmp	r2, #0
  75 002a 1DD1     		bne	.L24
  76              	.L3:
  77              		.loc 1 113 0
  78 002c 04F00800 		and	r0, r4, #8
  79 0030 82B2     		uxth	r2, r0
  80 0032 A2B9     		cbnz	r2, .L25
  81              	.L4:
  82              		.loc 1 115 0
  83 0034 04F01000 		and	r0, r4, #16
  84 0038 82B2     		uxth	r2, r0
  85 003a 5AB9     		cbnz	r2, .L26
  86              	.L5:
  87              		.loc 1 117 0
  88 003c E307     		lsls	r3, r4, #31
  89 003e 03D5     		bpl	.L6
  90              		.loc 1 118 0
  91 0040 6A68     		ldr	r2, [r5, #4]
  92 0042 0E48     		ldr	r0, .L27
  93 0044 9368     		ldr	r3, [r2, #8]
  94 0046 9847     		blx	r3
  95              	.LVL2:
  96              	.L6:
  97              	.LBE6:
  98              	.LBE8:
  99              		.loc 1 233 0
 100 0048 FFF7FEFF 		bl	dbg_check_leave_isr
 101              	.LVL3:
 102              		.loc 1 234 0
 103 004c BDE83840 		pop	{r3, r4, r5, lr}
 104              		.loc 1 233 0
 105 0050 FFF7FEBF 		b	_port_irq_epilogue
 106              	.LVL4:
 107              	.L26:
 108              	.LBB9:
 109              	.LBB7:
 110              		.loc 1 116 0
 111 0054 6B68     		ldr	r3, [r5, #4]
 112 0056 0948     		ldr	r0, .L27
 113 0058 996A     		ldr	r1, [r3, #40]
 114 005a 8847     		blx	r1
ARM GAS  /tmp/ccVuR9Of.s 			page 3


 115              	.LVL5:
 116 005c EEE7     		b	.L5
 117              	.L25:
 118              		.loc 1 114 0
 119 005e 6B68     		ldr	r3, [r5, #4]
 120 0060 0648     		ldr	r0, .L27
 121 0062 196A     		ldr	r1, [r3, #32]
 122 0064 8847     		blx	r1
 123              	.LVL6:
 124 0066 E5E7     		b	.L4
 125              	.L24:
 126              		.loc 1 112 0
 127 0068 6B68     		ldr	r3, [r5, #4]
 128 006a 0448     		ldr	r0, .L27
 129 006c 9969     		ldr	r1, [r3, #24]
 130 006e 8847     		blx	r1
 131              	.LVL7:
 132 0070 DCE7     		b	.L3
 133              	.L23:
 134              		.loc 1 110 0
 135 0072 6B68     		ldr	r3, [r5, #4]
 136 0074 2846     		mov	r0, r5
 137 0076 1969     		ldr	r1, [r3, #16]
 138 0078 8847     		blx	r1
 139              	.LVL8:
 140 007a D2E7     		b	.L2
 141              	.L28:
 142              		.align	2
 143              	.L27:
 144 007c 00000000 		.word	.LANCHOR0
 145              	.LBE7:
 146              	.LBE9:
 147              		.cfi_endproc
 148              	.LFE119:
 149              		.size	VectorB8, .-VectorB8
 150              		.section	.text.pwm_lld_init,"ax",%progbits
 151              		.align	2
 152              		.p2align 4,,15
 153              		.global	pwm_lld_init
 154              		.thumb
 155              		.thumb_func
 156              		.type	pwm_lld_init, %function
 157              	pwm_lld_init:
 158              	.LFB120:
 159              		.loc 1 319 0
 160              		.cfi_startproc
 161              		@ args = 0, pretend = 0, frame = 0
 162              		@ frame_needed = 0, uses_anonymous_args = 0
 163 0000 10B5     		push	{r4, lr}
 164              	.LCFI1:
 165              		.cfi_def_cfa_offset 8
 166              		.cfi_offset 4, -8
 167              		.cfi_offset 14, -4
 168              		.loc 1 341 0
 169 0002 40F20004 		movw	r4, #:lower16:.LANCHOR0
 170 0006 C0F20004 		movt	r4, #:upper16:.LANCHOR0
 171 000a 2046     		mov	r0, r4
ARM GAS  /tmp/ccVuR9Of.s 			page 4


 172 000c FFF7FEFF 		bl	pwmObjectInit
 173              	.LVL9:
 174              		.loc 1 342 0
 175 0010 4FF40063 		mov	r3, #2048
 176 0014 C4F20003 		movt	r3, 16384
 177 0018 2361     		str	r3, [r4, #16]
 178 001a 10BD     		pop	{r4, pc}
 179              		.cfi_endproc
 180              	.LFE120:
 181              		.size	pwm_lld_init, .-pwm_lld_init
 182 001c AFF30080 		.section	.text.pwm_lld_start,"ax",%progbits
 183              		.align	2
 184              		.p2align 4,,15
 185              		.global	pwm_lld_start
 186              		.thumb
 187              		.thumb_func
 188              		.type	pwm_lld_start, %function
 189              	pwm_lld_start:
 190              	.LFB121:
 191              		.loc 1 367 0
 192              		.cfi_startproc
 193              		@ args = 0, pretend = 0, frame = 0
 194              		@ frame_needed = 0, uses_anonymous_args = 0
 195              	.LVL10:
 196              		.loc 1 371 0
 197 0000 0378     		ldrb	r3, [r0, #0]	@ zero_extendqisi2
 198 0002 012B     		cmp	r3, #1
 199              		.loc 1 367 0
 200 0004 70B5     		push	{r4, r5, r6, lr}
 201              	.LCFI2:
 202              		.cfi_def_cfa_offset 16
 203              		.cfi_offset 4, -16
 204              		.cfi_offset 5, -12
 205              		.cfi_offset 6, -8
 206              		.cfi_offset 14, -4
 207              		.loc 1 367 0
 208 0006 0446     		mov	r4, r0
 209              		.loc 1 371 0
 210 0008 6BD0     		beq	.L59
 211              		.loc 1 446 0
 212 000a 0369     		ldr	r3, [r0, #16]
 213 000c 0022     		movs	r2, #0
 214 000e 1A80     		strh	r2, [r3, #0]	@ movhi
 215              		.loc 1 447 0
 216 0010 9A81     		strh	r2, [r3, #12]	@ movhi
 217              		.loc 1 448 0
 218 0012 1A82     		strh	r2, [r3, #16]	@ movhi
 219              		.loc 1 449 0
 220 0014 5A63     		str	r2, [r3, #52]
 221              		.loc 1 450 0
 222 0016 9A63     		str	r2, [r3, #56]
 223              		.loc 1 451 0
 224 0018 DA63     		str	r2, [r3, #60]
 225              		.loc 1 452 0
 226 001a 1A64     		str	r2, [r3, #64]
 227              		.loc 1 453 0
 228 001c 5A62     		str	r2, [r3, #36]
ARM GAS  /tmp/ccVuR9Of.s 			page 5


 229              	.LVL11:
 230              	.L33:
 231              		.loc 1 457 0
 232 001e 6268     		ldr	r2, [r4, #4]
 233 0020 E168     		ldr	r1, [r4, #12]
 234 0022 1668     		ldr	r6, [r2, #0]
 235 0024 B1FBF6F0 		udiv	r0, r1, r6
 236 0028 451E     		subs	r5, r0, #1
 237              	.LVL12:
 238              		.loc 1 458 0
 239 002a B5F5803F 		cmp	r5, #65536
 240 002e 03D2     		bcs	.L34
 241              		.loc 1 458 0 is_stmt 0 discriminator 2
 242 0030 06FB00F0 		mul	r0, r6, r0
 243 0034 8142     		cmp	r1, r0
 244 0036 04D0     		beq	.L35
 245              	.L34:
 246              		.loc 1 458 0 discriminator 1
 247 0038 3A48     		ldr	r0, .L67
 248 003a FFF7FEFF 		bl	chDbgPanic
 249              	.LVL13:
 250 003e 6268     		ldr	r2, [r4, #4]
 251 0040 2369     		ldr	r3, [r4, #16]
 252              	.L35:
 253              		.loc 1 462 0 is_stmt 1
 254 0042 2489     		ldrh	r4, [r4, #8]
 255              	.LVL14:
 256              		.loc 1 467 0
 257 0044 D168     		ldr	r1, [r2, #12]
 258              		.loc 1 463 0
 259 0046 908D     		ldrh	r0, [r2, #44]
 260              		.loc 1 462 0
 261 0048 013C     		subs	r4, r4, #1
 262              		.loc 1 467 0
 263 004a 01F00F01 		and	r1, r1, #15
 264              		.loc 1 461 0
 265 004e ADB2     		uxth	r5, r5
 266              	.LVL15:
 267              		.loc 1 462 0
 268 0050 A4B2     		uxth	r4, r4
 269              		.loc 1 467 0
 270 0052 0129     		cmp	r1, #1
 271              		.loc 1 461 0
 272 0054 1D85     		strh	r5, [r3, #40]	@ movhi
 273              		.loc 1 462 0
 274 0056 DC62     		str	r4, [r3, #44]
 275              		.loc 1 463 0
 276 0058 9880     		strh	r0, [r3, #4]	@ movhi
 277              	.LVL16:
 278              		.loc 1 467 0
 279 005a 03D0     		beq	.L36
 280              		.loc 1 466 0
 281 005c 0229     		cmp	r1, #2
 282 005e 0CBF     		ite	eq
 283 0060 0321     		moveq	r1, #3
 284 0062 0021     		movne	r1, #0
 285              	.L36:
ARM GAS  /tmp/ccVuR9Of.s 			page 6


 286              	.LVL17:
 287              		.loc 1 475 0
 288 0064 5069     		ldr	r0, [r2, #20]
 289 0066 00F00F00 		and	r0, r0, #15
 290 006a 0128     		cmp	r0, #1
 291 006c 1ED0     		beq	.L40
 292 006e 0228     		cmp	r0, #2
 293 0070 1AD0     		beq	.L60
 294              		.loc 1 483 0
 295 0072 D069     		ldr	r0, [r2, #28]
 296 0074 00F00F00 		and	r0, r0, #15
 297 0078 0128     		cmp	r0, #1
 298 007a 1ED0     		beq	.L43
 299              	.LVL18:
 300              	.L63:
 301 007c 0228     		cmp	r0, #2
 302 007e 2BD0     		beq	.L61
 303              	.LVL19:
 304              		.loc 1 491 0
 305 0080 506A     		ldr	r0, [r2, #36]
 306 0082 00F00F00 		and	r0, r0, #15
 307 0086 0128     		cmp	r0, #1
 308 0088 1ED0     		beq	.L46
 309              	.LVL20:
 310              	.L64:
 311 008a 0228     		cmp	r0, #2
 312 008c 1FD0     		beq	.L62
 313              	.L45:
 314              	.LVL21:
 315              		.loc 1 538 0
 316 008e 9268     		ldr	r2, [r2, #8]
 317              		.loc 1 536 0
 318 0090 1984     		strh	r1, [r3, #32]	@ movhi
 319              		.loc 1 538 0
 320 0092 101C     		adds	r0, r2, #0
 321 0094 18BF     		it	ne
 322 0096 0120     		movne	r0, #1
 323              		.loc 1 537 0
 324 0098 0121     		movs	r1, #1
 325              	.LVL22:
 326 009a 9982     		strh	r1, [r3, #20]	@ movhi
 327              		.loc 1 539 0
 328 009c 0022     		movs	r2, #0
 329              		.loc 1 538 0
 330 009e 9881     		strh	r0, [r3, #12]	@ movhi
 331              		.loc 1 548 0
 332 00a0 8520     		movs	r0, #133
 333              		.loc 1 539 0
 334 00a2 1A82     		strh	r2, [r3, #16]	@ movhi
 335              		.loc 1 548 0
 336 00a4 1880     		strh	r0, [r3, #0]	@ movhi
 337 00a6 70BD     		pop	{r4, r5, r6, pc}
 338              	.LVL23:
 339              	.L60:
 340              		.loc 1 477 0
 341 00a8 41F02001 		orr	r1, r1, #32
 342              	.LVL24:
ARM GAS  /tmp/ccVuR9Of.s 			page 7


 343              	.L40:
 344              		.loc 1 483 0
 345 00ac D069     		ldr	r0, [r2, #28]
 346 00ae 00F00F00 		and	r0, r0, #15
 347 00b2 0128     		cmp	r0, #1
 348              		.loc 1 479 0
 349 00b4 41F01001 		orr	r1, r1, #16
 350              	.LVL25:
 351              		.loc 1 483 0
 352 00b8 E0D1     		bne	.L63
 353              	.LVL26:
 354              	.L43:
 355              		.loc 1 487 0
 356 00ba 41F48071 		orr	r1, r1, #256
 357              	.LVL27:
 358              	.L65:
 359              		.loc 1 491 0
 360 00be 506A     		ldr	r0, [r2, #36]
 361 00c0 00F00F00 		and	r0, r0, #15
 362 00c4 0128     		cmp	r0, #1
 363 00c6 E0D1     		bne	.L64
 364              	.LVL28:
 365              	.L46:
 366              		.loc 1 495 0
 367 00c8 41F48051 		orr	r1, r1, #4096
 368              	.LVL29:
 369 00cc DFE7     		b	.L45
 370              	.LVL30:
 371              	.L62:
 372              		.loc 1 493 0
 373 00ce 41F40051 		orr	r1, r1, #8192
 374              	.LVL31:
 375              		.loc 1 495 0
 376 00d2 41F48051 		orr	r1, r1, #4096
 377              	.LVL32:
 378 00d6 DAE7     		b	.L45
 379              	.LVL33:
 380              	.L61:
 381              		.loc 1 485 0
 382 00d8 41F40071 		orr	r1, r1, #512
 383              	.LVL34:
 384              		.loc 1 487 0
 385 00dc 41F48071 		orr	r1, r1, #256
 386              	.LVL35:
 387 00e0 EDE7     		b	.L65
 388              	.LVL36:
 389              	.L59:
 390              		.loc 1 403 0
 391 00e2 1148     		ldr	r0, .L67+4
 392              	.LVL37:
 393 00e4 8442     		cmp	r4, r0
 394 00e6 05D0     		beq	.L66
 395              	.L32:
 396              		.loc 1 435 0
 397 00e8 2369     		ldr	r3, [r4, #16]
 398 00ea 46F66801 		movw	r1, #26728
 399 00ee 1983     		strh	r1, [r3, #24]	@ movhi
ARM GAS  /tmp/ccVuR9Of.s 			page 8


 400              		.loc 1 439 0
 401 00f0 9983     		strh	r1, [r3, #28]	@ movhi
 402 00f2 94E7     		b	.L33
 403              	.L66:
 404              		.loc 1 404 0
 405 00f4 4FF46051 		mov	r1, #14336
 406 00f8 C4F20201 		movt	r1, 16386
 407              		.loc 1 406 0
 408 00fc 1E20     		movs	r0, #30
 409              		.loc 1 404 0
 410 00fe 0D6C     		ldr	r5, [r1, #64]
 411 0100 45F00406 		orr	r6, r5, #4
 412 0104 0E64     		str	r6, [r1, #64]
 413              		.loc 1 405 0
 414 0106 0B6A     		ldr	r3, [r1, #32]
 415 0108 0025     		movs	r5, #0
 416 010a 43F00402 		orr	r2, r3, #4
 417 010e 0A62     		str	r2, [r1, #32]
 418 0110 0D62     		str	r5, [r1, #32]
 419              		.loc 1 406 0
 420 0112 7021     		movs	r1, #112
 421 0114 FFF7FEFF 		bl	nvicEnableVector
 422              	.LVL38:
 423              		.loc 1 408 0
 424 0118 4FF43D40 		mov	r0, #48384
 425 011c C0F20150 		movt	r0, 1281
 426 0120 E060     		str	r0, [r4, #12]
 427 0122 E1E7     		b	.L32
 428              	.L68:
 429              		.align	2
 430              	.L67:
 431 0124 00000000 		.word	.LC0
 432 0128 00000000 		.word	.LANCHOR0
 433              		.cfi_endproc
 434              	.LFE121:
 435              		.size	pwm_lld_start, .-pwm_lld_start
 436 012c AFF30080 		.section	.text.pwm_lld_stop,"ax",%progbits
 437              		.align	2
 438              		.p2align 4,,15
 439              		.global	pwm_lld_stop
 440              		.thumb
 441              		.thumb_func
 442              		.type	pwm_lld_stop, %function
 443              	pwm_lld_stop:
 444              	.LFB122:
 445              		.loc 1 558 0
 446              		.cfi_startproc
 447              		@ args = 0, pretend = 0, frame = 0
 448              		@ frame_needed = 0, uses_anonymous_args = 0
 449              	.LVL39:
 450 0000 08B5     		push	{r3, lr}
 451              	.LCFI3:
 452              		.cfi_def_cfa_offset 8
 453              		.cfi_offset 3, -8
 454              		.cfi_offset 14, -4
 455              		.loc 1 561 0
 456 0002 0378     		ldrb	r3, [r0, #0]	@ zero_extendqisi2
ARM GAS  /tmp/ccVuR9Of.s 			page 9


 457 0004 022B     		cmp	r3, #2
 458 0006 00D0     		beq	.L73
 459              	.LVL40:
 460              	.L69:
 461 0008 08BD     		pop	{r3, pc}
 462              	.LVL41:
 463              	.L73:
 464              		.loc 1 589 0
 465 000a 0A4B     		ldr	r3, .L74
 466              		.loc 1 562 0
 467 000c 0169     		ldr	r1, [r0, #16]
 468 000e 0022     		movs	r2, #0
 469              		.loc 1 589 0
 470 0010 9842     		cmp	r0, r3
 471              		.loc 1 562 0
 472 0012 0A80     		strh	r2, [r1, #0]	@ movhi
 473              		.loc 1 563 0
 474 0014 8A81     		strh	r2, [r1, #12]	@ movhi
 475              		.loc 1 564 0
 476 0016 0A82     		strh	r2, [r1, #16]	@ movhi
 477              		.loc 1 589 0
 478 0018 F6D1     		bne	.L69
 479              		.loc 1 590 0
 480 001a 1E20     		movs	r0, #30
 481              	.LVL42:
 482 001c FFF7FEFF 		bl	nvicDisableVector
 483              	.LVL43:
 484              		.loc 1 591 0
 485 0020 4FF46050 		mov	r0, #14336
 486 0024 C4F20200 		movt	r0, 16386
 487 0028 016C     		ldr	r1, [r0, #64]
 488 002a 21F00402 		bic	r2, r1, #4
 489 002e 0264     		str	r2, [r0, #64]
 490 0030 EAE7     		b	.L69
 491              	.L75:
 492 0032 00BF     		.align	2
 493              	.L74:
 494 0034 00000000 		.word	.LANCHOR0
 495              		.cfi_endproc
 496              	.LFE122:
 497              		.size	pwm_lld_stop, .-pwm_lld_stop
 498 0038 AFF30080 		.section	.text.pwm_lld_enable_channel,"ax",%progbits
 498      AFF30080 
 499              		.align	2
 500              		.p2align 4,,15
 501              		.global	pwm_lld_enable_channel
 502              		.thumb
 503              		.thumb_func
 504              		.type	pwm_lld_enable_channel, %function
 505              	pwm_lld_enable_channel:
 506              	.LFB123:
 507              		.loc 1 624 0
 508              		.cfi_startproc
 509              		@ args = 0, pretend = 0, frame = 0
 510              		@ frame_needed = 0, uses_anonymous_args = 0
 511              		@ link register save eliminated.
 512              	.LVL44:
ARM GAS  /tmp/ccVuR9Of.s 			page 10


 513 0000 10B4     		push	{r4}
 514              	.LCFI4:
 515              		.cfi_def_cfa_offset 4
 516              		.cfi_offset 4, -4
 517              		.loc 1 629 0
 518 0002 4468     		ldr	r4, [r0, #4]
 519              		.loc 1 626 0
 520 0004 0369     		ldr	r3, [r0, #16]
 521              		.loc 1 629 0
 522 0006 04EBC100 		add	r0, r4, r1, lsl #3
 523              	.LVL45:
 524              		.loc 1 626 0
 525 000a 01F10C04 		add	r4, r1, #12
 526 000e 03EB8404 		add	r4, r3, r4, lsl #2
 527              		.loc 1 629 0
 528 0012 0069     		ldr	r0, [r0, #16]
 529              		.loc 1 626 0
 530 0014 6260     		str	r2, [r4, #4]
 531              		.loc 1 629 0
 532 0016 60B1     		cbz	r0, .L76
 533              	.LBB10:
 534              		.loc 1 630 0
 535 0018 9A89     		ldrh	r2, [r3, #12]
 536              	.LVL46:
 537              		.loc 1 633 0
 538 001a 0220     		movs	r0, #2
 539              		.loc 1 630 0
 540 001c 92B2     		uxth	r2, r2
 541              	.LVL47:
 542              		.loc 1 633 0
 543 001e 00FA01F1 		lsl	r1, r0, r1
 544              	.LVL48:
 545 0022 1142     		tst	r1, r2
 546 0024 05D1     		bne	.L76
 547              		.loc 1 634 0
 548 0026 89B2     		uxth	r1, r1
 549              		.loc 1 635 0
 550 0028 C843     		mvns	r0, r1
 551              		.loc 1 634 0
 552 002a 1143     		orrs	r1, r1, r2
 553              		.loc 1 635 0
 554 002c 82B2     		uxth	r2, r0
 555              	.LVL49:
 556              		.loc 1 634 0
 557 002e 9981     		strh	r1, [r3, #12]	@ movhi
 558              		.loc 1 635 0
 559 0030 1A82     		strh	r2, [r3, #16]	@ movhi
 560              	.L76:
 561              	.LBE10:
 562              		.loc 1 638 0
 563 0032 10BC     		pop	{r4}
 564 0034 7047     		bx	lr
 565              		.cfi_endproc
 566              	.LFE123:
 567              		.size	pwm_lld_enable_channel, .-pwm_lld_enable_channel
 568 0036 00BFAFF3 		.section	.text.pwm_lld_disable_channel,"ax",%progbits
 568      0080AFF3 
ARM GAS  /tmp/ccVuR9Of.s 			page 11


 568      0080
 569              		.align	2
 570              		.p2align 4,,15
 571              		.global	pwm_lld_disable_channel
 572              		.thumb
 573              		.thumb_func
 574              		.type	pwm_lld_disable_channel, %function
 575              	pwm_lld_disable_channel:
 576              	.LFB124:
 577              		.loc 1 652 0
 578              		.cfi_startproc
 579              		@ args = 0, pretend = 0, frame = 0
 580              		@ frame_needed = 0, uses_anonymous_args = 0
 581              		@ link register save eliminated.
 582              	.LVL50:
 583              		.loc 1 654 0
 584 0000 0369     		ldr	r3, [r0, #16]
 585 0002 01F10C02 		add	r2, r1, #12
 586 0006 03EB8202 		add	r2, r3, r2, lsl #2
 587 000a 0020     		movs	r0, #0
 588              	.LVL51:
 589 000c 5060     		str	r0, [r2, #4]
 590              		.loc 1 655 0
 591 000e 9A89     		ldrh	r2, [r3, #12]
 592 0010 0220     		movs	r0, #2
 593 0012 92B2     		uxth	r2, r2
 594 0014 00FA01F1 		lsl	r1, r0, r1
 595              	.LVL52:
 596 0018 22EA0102 		bic	r2, r2, r1
 597 001c 9A81     		strh	r2, [r3, #12]	@ movhi
 598 001e 7047     		bx	lr
 599              		.cfi_endproc
 600              	.LFE124:
 601              		.size	pwm_lld_disable_channel, .-pwm_lld_disable_channel
 602              		.global	PWMD4
 603              		.section	.bss.PWMD4,"aw",%nobits
 604              		.align	2
 605              		.set	.LANCHOR0,. + 0
 606              		.type	PWMD4, %object
 607              		.size	PWMD4, 20
 608              	PWMD4:
 609 0000 00000000 		.space	20
 609      00000000 
 609      00000000 
 609      00000000 
 609      00000000 
 610              		.section	.rodata.str1.4,"aMS",%progbits,1
 611              		.align	2
 612              	.LC0:
 613 0000 70776D5F 		.ascii	"pwm_lld_start(), #1\000"
 613      6C6C645F 
 613      73746172 
 613      7428292C 
 613      20233100 
 614              		.text
 615              	.Letext0:
 616              		.file 2 "/opt/gcc-arm-none-eabi-4_7-2013q1/bin/../lib/gcc/arm-none-eabi/4.7.3/../../../../arm-none
ARM GAS  /tmp/ccVuR9Of.s 			page 12


 617              		.file 3 "/home/gokul/ChibiOS_2.5.0/os/hal/platforms/STM32F4xx/stm32f4xx.h"
 618              		.file 4 "/home/gokul/ChibiOS_2.5.0/os/hal/platforms/STM32/stm32.h"
 619              		.file 5 "/home/gokul/ChibiOS_2.5.0/os/hal/include/pwm.h"
 620              		.file 6 "/home/gokul/ChibiOS_2.5.0/os/hal/platforms/STM32/pwm_lld.h"
 621              		.file 7 "/home/gokul/ChibiOS_2.5.0/os/ports/common/ARMCMx/CMSIS/include/core_cm4.h"
 622              		.file 8 "/home/gokul/ChibiOS_2.5.0/os/kernel/include/chdebug.h"
 623              		.file 9 "/home/gokul/ChibiOS_2.5.0/os/ports/GCC/ARMCMx/chcore_v7m.h"
 624              		.file 10 "/home/gokul/ChibiOS_2.5.0/os/ports/common/ARMCMx/nvic.h"