ARM GAS  /tmp/ccZY3iSh.s 			page 1


   1              		.syntax unified
   2              		.cpu cortex-m4
   3              		.fpu softvfp
   4              		.eabi_attribute 20, 1
   5              		.eabi_attribute 21, 1
   6              		.eabi_attribute 23, 3
   7              		.eabi_attribute 24, 1
   8              		.eabi_attribute 25, 1
   9              		.eabi_attribute 26, 1
  10              		.eabi_attribute 30, 2
  11              		.eabi_attribute 34, 1
  12              		.eabi_attribute 18, 4
  13              		.thumb
  14              		.file	"USB.c"
  15              		.text
  16              	.Ltext0:
  17              		.cfi_sections	.debug_frame
  18              		.section	.text.requestsHook,"ax",%progbits
  19              		.align	2
  20              		.p2align 4,,15
  21              		.global	requestsHook
  22              		.thumb
  23              		.thumb_func
  24              		.type	requestsHook, %function
  25              	requestsHook:
  26              	.LFB119:
  27              		.file 1 "USB.c"
  28              		.loc 1 45 0
  29              		.cfi_startproc
  30              		@ args = 0, pretend = 0, frame = 0
  31              		@ frame_needed = 0, uses_anonymous_args = 0
  32              		@ link register save eliminated.
  33              	.LVL0:
  34              		.loc 1 48 0
  35 0000 0020     		movs	r0, #0
  36              	.LVL1:
  37 0002 7047     		bx	lr
  38              		.cfi_endproc
  39              	.LFE119:
  40              		.size	requestsHook, .-requestsHook
  41 0004 AFF30080 		.section	.text.get_descriptor,"ax",%progbits
  41      AFF30080 
  41      AFF30080 
  42              		.align	2
  43              		.p2align 4,,15
  44              		.thumb
  45              		.thumb_func
  46              		.type	get_descriptor, %function
  47              	get_descriptor:
  48              	.LFB122:
  49              		.loc 1 158 0
  50              		.cfi_startproc
  51              		@ args = 0, pretend = 0, frame = 0
  52              		@ frame_needed = 0, uses_anonymous_args = 0
  53              		@ link register save eliminated.
  54              	.LVL2:
  55              		.loc 1 163 0
ARM GAS  /tmp/ccZY3iSh.s 			page 2


  56 0000 0229     		cmp	r1, #2
  57 0002 06D0     		beq	.L7
  58 0004 0329     		cmp	r1, #3
  59 0006 06D0     		beq	.L6
  60              		.loc 1 176 0
  61 0008 0748     		ldr	r0, .L10
  62              	.LVL3:
  63 000a 0129     		cmp	r1, #1
  64 000c 18BF     		it	ne
  65 000e 0020     		movne	r0, #0
  66 0010 7047     		bx	lr
  67              	.LVL4:
  68              	.L7:
  69              		.loc 1 167 0
  70 0012 0648     		ldr	r0, .L10+4
  71              	.LVL5:
  72 0014 7047     		bx	lr
  73              	.LVL6:
  74              	.L6:
  75              		.loc 1 169 0
  76 0016 032A     		cmp	r2, #3
  77 0018 03D8     		bhi	.L8
  78              		.loc 1 170 0
  79 001a 0548     		ldr	r0, .L10+8
  80              	.LVL7:
  81 001c 00EBC200 		add	r0, r0, r2, lsl #3
  82 0020 7047     		bx	lr
  83              	.LVL8:
  84              	.L8:
  85              		.loc 1 173 0
  86 0022 0448     		ldr	r0, .L10+12
  87              	.LVL9:
  88              		.loc 1 177 0
  89 0024 7047     		bx	lr
  90              	.L11:
  91 0026 00BF     		.align	2
  92              	.L10:
  93 0028 00000000 		.word	.LANCHOR0
  94 002c 00000000 		.word	.LANCHOR1
  95 0030 00000000 		.word	.LANCHOR2
  96 0034 20000000 		.word	.LANCHOR2+32
  97              		.cfi_endproc
  98              	.LFE122:
  99              		.size	get_descriptor, .-get_descriptor
 100 0038 AFF30080 		.section	.text.usb_event,"ax",%progbits
 100      AFF30080 
 101              		.align	2
 102              		.p2align 4,,15
 103              		.thumb
 104              		.thumb_func
 105              		.type	usb_event, %function
 106              	usb_event:
 107              	.LFB121:
 108              		.loc 1 121 0
 109              		.cfi_startproc
 110              		@ args = 0, pretend = 0, frame = 0
 111              		@ frame_needed = 0, uses_anonymous_args = 0
ARM GAS  /tmp/ccZY3iSh.s 			page 3


 112              	.LVL10:
 113 0000 38B5     		push	{r3, r4, r5, lr}
 114              	.LCFI0:
 115              		.cfi_def_cfa_offset 16
 116              		.cfi_offset 3, -16
 117              		.cfi_offset 4, -12
 118              		.cfi_offset 5, -8
 119              		.cfi_offset 14, -4
 120              		.loc 1 123 0
 121 0002 0C46     		mov	r4, r1
 122              		.loc 1 121 0
 123 0004 0546     		mov	r5, r0
 124              		.loc 1 123 0
 125 0006 11B9     		cbnz	r1, .L16
 126              		.loc 1 126 0
 127 0008 0E48     		ldr	r0, .L18
 128              	.LVL11:
 129 000a 0170     		strb	r1, [r0, #0]
 130              		.loc 1 127 0
 131 000c 38BD     		pop	{r3, r4, r5, pc}
 132              	.LVL12:
 133              	.L16:
 134              		.loc 1 123 0
 135 000e 0229     		cmp	r1, #2
 136 0010 00D0     		beq	.L17
 137 0012 38BD     		pop	{r3, r4, r5, pc}
 138              	.L17:
 139              	.LVL13:
 140              	.LBB12:
 141              	.LBB13:
 142              	.LBB14:
 143              		.loc 1 135 0
 144 0014 2023     		movs	r3, #32
 145              	.LVL14:
 146              	@ 135 "USB.c" 1
 147 0016 83F31188 		msr     BASEPRI, r3
 148              	@ 0 "" 2
 149              	.LVL15:
 150              		.thumb
 151              	.LBE14:
 152 001a FFF7FEFF 		bl	dbg_check_lock_from_isr
 153              	.LVL16:
 154              		.loc 1 136 0
 155 001e 2846     		mov	r0, r5
 156 0020 0121     		movs	r1, #1
 157 0022 094A     		ldr	r2, .L18+4
 158 0024 FFF7FEFF 		bl	usbInitEndpointI
 159              	.LVL17:
 160              		.loc 1 137 0
 161 0028 2846     		mov	r0, r5
 162 002a 2146     		mov	r1, r4
 163 002c 074A     		ldr	r2, .L18+8
 164 002e FFF7FEFF 		bl	usbInitEndpointI
 165              	.LVL18:
 166              		.loc 1 138 0
 167 0032 FFF7FEFF 		bl	dbg_check_unlock_from_isr
 168              	.LVL19:
ARM GAS  /tmp/ccZY3iSh.s 			page 4


 169              	.LBB15:
 170 0036 0023     		movs	r3, #0
 171              	.LVL20:
 172              	@ 138 "USB.c" 1
 173 0038 83F31188 		msr     BASEPRI, r3
 174              	@ 0 "" 2
 175              	.LVL21:
 176              		.thumb
 177              	.LBE15:
 178              		.loc 1 140 0
 179 003c 044B     		ldr	r3, .L18+12
 180              	.LVL22:
 181 003e 0122     		movs	r2, #1
 182 0040 1A70     		strb	r2, [r3, #0]
 183 0042 38BD     		pop	{r3, r4, r5, pc}
 184              	.L19:
 185              		.align	2
 186              	.L18:
 187 0044 00000000 		.word	.LANCHOR3
 188 0048 00000000 		.word	.LANCHOR4
 189 004c 00000000 		.word	.LANCHOR5
 190 0050 00000000 		.word	.LANCHOR6
 191              	.LBE13:
 192              	.LBE12:
 193              		.cfi_endproc
 194              	.LFE121:
 195              		.size	usb_event, .-usb_event
 196              		.section	.text.dataReceived,"ax",%progbits
 197              		.align	2
 198              		.p2align 4,,15
 199              		.global	dataReceived
 200              		.thumb
 201              		.thumb_func
 202              		.type	dataReceived, %function
 203              	dataReceived:
 204              	.LFB120:
 205              		.loc 1 75 0
 206              		.cfi_startproc
 207              		@ args = 0, pretend = 0, frame = 0
 208              		@ frame_needed = 0, uses_anonymous_args = 0
 209              	.LVL23:
 210 0000 10B5     		push	{r4, lr}
 211              	.LCFI1:
 212              		.cfi_def_cfa_offset 8
 213              		.cfi_offset 4, -8
 214              		.cfi_offset 14, -4
 215              		.loc 1 80 0
 216 0002 0C4B     		ldr	r3, .L25
 217 0004 1978     		ldrb	r1, [r3, #0]	@ zero_extendqisi2
 218              	.LVL24:
 219              		.loc 1 75 0
 220 0006 0446     		mov	r4, r0
 221              	.LVL25:
 222              		.loc 1 80 0
 223 0008 91B1     		cbz	r1, .L20
 224              	.LVL26:
 225              	.LBB20:
ARM GAS  /tmp/ccZY3iSh.s 			page 5


 226              	.LBB21:
 227              		.loc 1 89 0
 228 000a 4023     		movs	r3, #64
 229 000c 0221     		movs	r1, #2
 230 000e 0A4A     		ldr	r2, .L25+4
 231 0010 FFF7FEFF 		bl	usbPrepareReceive
 232              	.LVL27:
 233              	.LBB22:
 234              		.loc 1 91 0
 235 0014 2023     		movs	r3, #32
 236              	.LVL28:
 237              	@ 91 "USB.c" 1
 238 0016 83F31188 		msr     BASEPRI, r3
 239              	@ 0 "" 2
 240              	.LVL29:
 241              		.thumb
 242              	.LBE22:
 243 001a FFF7FEFF 		bl	dbg_check_lock_from_isr
 244              	.LVL30:
 245              		.loc 1 92 0
 246 001e 0221     		movs	r1, #2
 247 0020 2046     		mov	r0, r4
 248 0022 FFF7FEFF 		bl	usbStartReceiveI
 249              	.LVL31:
 250              		.loc 1 93 0
 251 0026 FFF7FEFF 		bl	dbg_check_unlock_from_isr
 252              	.LVL32:
 253              	.LBB23:
 254 002a 0023     		movs	r3, #0
 255              	.LVL33:
 256              	@ 93 "USB.c" 1
 257 002c 83F31188 		msr     BASEPRI, r3
 258              	@ 0 "" 2
 259              	.LVL34:
 260              		.thumb
 261              	.L20:
 262 0030 10BD     		pop	{r4, pc}
 263              	.L26:
 264 0032 00BF     		.align	2
 265              	.L25:
 266 0034 00000000 		.word	.LANCHOR3
 267 0038 00000000 		.word	.LANCHOR7
 268              	.LBE23:
 269              	.LBE21:
 270              	.LBE20:
 271              		.cfi_endproc
 272              	.LFE120:
 273              		.size	dataReceived, .-dataReceived
 274 003c AFF30080 		.section	.text.dataTransmitted,"ax",%progbits
 275              		.align	2
 276              		.p2align 4,,15
 277              		.global	dataTransmitted
 278              		.thumb
 279              		.thumb_func
 280              		.type	dataTransmitted, %function
 281              	dataTransmitted:
 282              	.LFB118:
ARM GAS  /tmp/ccZY3iSh.s 			page 6


 283              		.loc 1 29 0
 284              		.cfi_startproc
 285              		@ args = 0, pretend = 0, frame = 0
 286              		@ frame_needed = 0, uses_anonymous_args = 0
 287              	.LVL35:
 288 0000 10B5     		push	{r4, lr}
 289              	.LCFI2:
 290              		.cfi_def_cfa_offset 8
 291              		.cfi_offset 4, -8
 292              		.cfi_offset 14, -4
 293              		.loc 1 34 0
 294 0002 0C4B     		ldr	r3, .L32
 295 0004 1978     		ldrb	r1, [r3, #0]	@ zero_extendqisi2
 296              	.LVL36:
 297              		.loc 1 29 0
 298 0006 0446     		mov	r4, r0
 299              		.loc 1 34 0
 300 0008 99B1     		cbz	r1, .L27
 301              	.LVL37:
 302              	.LBB28:
 303              	.LBB29:
 304              		.loc 1 37 0
 305 000a 0121     		movs	r1, #1
 306 000c 0A4A     		ldr	r2, .L32+4
 307 000e 4FF48073 		mov	r3, #256
 308 0012 FFF7FEFF 		bl	usbPrepareTransmit
 309              	.LVL38:
 310              	.LBB30:
 311              		.loc 1 39 0
 312 0016 2023     		movs	r3, #32
 313              	.LVL39:
 314              	@ 39 "USB.c" 1
 315 0018 83F31188 		msr     BASEPRI, r3
 316              	@ 0 "" 2
 317              	.LVL40:
 318              		.thumb
 319              	.LBE30:
 320 001c FFF7FEFF 		bl	dbg_check_lock_from_isr
 321              	.LVL41:
 322              		.loc 1 40 0
 323 0020 0121     		movs	r1, #1
 324 0022 2046     		mov	r0, r4
 325 0024 FFF7FEFF 		bl	usbStartTransmitI
 326              	.LVL42:
 327              		.loc 1 41 0
 328 0028 FFF7FEFF 		bl	dbg_check_unlock_from_isr
 329              	.LVL43:
 330              	.LBB31:
 331 002c 0023     		movs	r3, #0
 332              	.LVL44:
 333              	@ 41 "USB.c" 1
 334 002e 83F31188 		msr     BASEPRI, r3
 335              	@ 0 "" 2
 336              	.LVL45:
 337              		.thumb
 338              	.L27:
 339 0032 10BD     		pop	{r4, pc}
ARM GAS  /tmp/ccZY3iSh.s 			page 7


 340              	.L33:
 341              		.align	2
 342              	.L32:
 343 0034 00000000 		.word	.LANCHOR3
 344 0038 00000000 		.word	.LANCHOR8
 345              	.LBE31:
 346              	.LBE29:
 347              	.LBE28:
 348              		.cfi_endproc
 349              	.LFE118:
 350              		.size	dataTransmitted, .-dataTransmitted
 351 003c AFF30080 		.section	.text.myUSBinit,"ax",%progbits
 352              		.align	2
 353              		.p2align 4,,15
 354              		.global	myUSBinit
 355              		.thumb
 356              		.thumb_func
 357              		.type	myUSBinit, %function
 358              	myUSBinit:
 359              	.LFB123:
 360              		.loc 1 193 0
 361              		.cfi_startproc
 362              		@ args = 0, pretend = 0, frame = 0
 363              		@ frame_needed = 0, uses_anonymous_args = 0
 364 0000 10B5     		push	{r4, lr}
 365              	.LCFI3:
 366              		.cfi_def_cfa_offset 8
 367              		.cfi_offset 4, -8
 368              		.cfi_offset 14, -4
 369              		.loc 1 206 0
 370 0002 40F20004 		movw	r4, #:lower16:.LANCHOR9
 371 0006 C0F20004 		movt	r4, #:upper16:.LANCHOR9
 372              		.loc 1 198 0
 373 000a FFF7FEFF 		bl	shellInit
 374              	.LVL46:
 375              		.loc 1 206 0
 376 000e 2368     		ldr	r3, [r4, #0]
 377 0010 D96B     		ldr	r1, [r3, #60]
 378 0012 8A6B     		ldr	r2, [r1, #56]
 379 0014 22F40023 		bic	r3, r2, #524288
 380 0018 8B63     		str	r3, [r1, #56]
 381              		.loc 1 207 0
 382 001a 4FF47A70 		mov	r0, #1000
 383 001e FFF7FEFF 		bl	chThdSleep
 384              	.LVL47:
 385              		.loc 1 208 0
 386 0022 40F20001 		movw	r1, #:lower16:.LANCHOR10
 387 0026 2068     		ldr	r0, [r4, #0]
 388 0028 C0F20001 		movt	r1, #:upper16:.LANCHOR10
 389 002c FFF7FEFF 		bl	usbStart
 390              	.LVL48:
 391              		.loc 1 209 0
 392 0030 2068     		ldr	r0, [r4, #0]
 393 0032 C16B     		ldr	r1, [r0, #60]
 394 0034 8A6B     		ldr	r2, [r1, #56]
 395 0036 42F40023 		orr	r3, r2, #524288
 396 003a 8B63     		str	r3, [r1, #56]
ARM GAS  /tmp/ccZY3iSh.s 			page 8


 397 003c 10BD     		pop	{r4, pc}
 398              		.cfi_endproc
 399              	.LFE123:
 400              		.size	myUSBinit, .-myUSBinit
 401 003e 00BF     		.section	.text.send_data,"ax",%progbits
 402              		.align	2
 403              		.p2align 4,,15
 404              		.global	send_data
 405              		.thumb
 406              		.thumb_func
 407              		.type	send_data, %function
 408              	send_data:
 409              	.LFB124:
 410              		.loc 1 214 0
 411              		.cfi_startproc
 412              		@ args = 0, pretend = 0, frame = 0
 413              		@ frame_needed = 0, uses_anonymous_args = 0
 414 0000 70B5     		push	{r4, r5, r6, lr}
 415              	.LCFI4:
 416              		.cfi_def_cfa_offset 16
 417              		.cfi_offset 4, -16
 418              		.cfi_offset 5, -12
 419              		.cfi_offset 6, -8
 420              		.cfi_offset 14, -4
 421              		.loc 1 216 0
 422 0002 0F4C     		ldr	r4, .L40
 423              		.loc 1 215 0
 424 0004 0F4A     		ldr	r2, .L40+4
 425              		.loc 1 216 0
 426 0006 2378     		ldrb	r3, [r4, #0]	@ zero_extendqisi2
 427              		.loc 1 215 0
 428 0008 0125     		movs	r5, #1
 429 000a 1570     		strb	r5, [r2, #0]
 430              		.loc 1 216 0
 431 000c ABB1     		cbz	r3, .L36
 432              		.loc 1 217 0
 433 000e 0E4E     		ldr	r6, .L40+8
 434 0010 0E4A     		ldr	r2, .L40+12
 435 0012 3068     		ldr	r0, [r6, #0]
 436 0014 2946     		mov	r1, r5
 437 0016 4FF48073 		mov	r3, #256
 438 001a FFF7FEFF 		bl	usbPrepareTransmit
 439              	.LVL49:
 440              	.LBB32:
 441              		.loc 1 218 0
 442 001e 2023     		movs	r3, #32
 443              	.LVL50:
 444              	@ 218 "USB.c" 1
 445 0020 83F31188 		msr     BASEPRI, r3
 446              	@ 0 "" 2
 447              	.LVL51:
 448              		.thumb
 449              	.LBE32:
 450 0024 FFF7FEFF 		bl	dbg_check_lock
 451              	.LVL52:
 452              		.loc 1 219 0
 453 0028 2946     		mov	r1, r5
ARM GAS  /tmp/ccZY3iSh.s 			page 9


 454 002a 3068     		ldr	r0, [r6, #0]
 455 002c FFF7FEFF 		bl	usbStartTransmitI
 456              	.LVL53:
 457              		.loc 1 220 0
 458 0030 FFF7FEFF 		bl	dbg_check_unlock
 459              	.LVL54:
 460              	.LBB33:
 461 0034 0023     		movs	r3, #0
 462              	.LVL55:
 463              	@ 220 "USB.c" 1
 464 0036 83F31188 		msr     BASEPRI, r3
 465              	@ 0 "" 2
 466              	.LVL56:
 467              		.thumb
 468              	.L36:
 469              	.LBE33:
 470              		.loc 1 223 0
 471 003a 0020     		movs	r0, #0
 472 003c 2070     		strb	r0, [r4, #0]
 473 003e 70BD     		pop	{r4, r5, r6, pc}
 474              	.L41:
 475              		.align	2
 476              	.L40:
 477 0040 00000000 		.word	.LANCHOR6
 478 0044 00000000 		.word	.LANCHOR3
 479 0048 00000000 		.word	.LANCHOR9
 480 004c 00000000 		.word	.LANCHOR8
 481              		.cfi_endproc
 482              	.LFE124:
 483              		.size	send_data, .-send_data
 484              		.section	.text.receive_data,"ax",%progbits
 485              		.align	2
 486              		.p2align 4,,15
 487              		.global	receive_data
 488              		.thumb
 489              		.thumb_func
 490              		.type	receive_data, %function
 491              	receive_data:
 492              	.LFB125:
 493              		.loc 1 227 0
 494              		.cfi_startproc
 495              		@ args = 0, pretend = 0, frame = 0
 496              		@ frame_needed = 0, uses_anonymous_args = 0
 497 0000 38B5     		push	{r3, r4, r5, lr}
 498              	.LCFI5:
 499              		.cfi_def_cfa_offset 16
 500              		.cfi_offset 3, -16
 501              		.cfi_offset 4, -12
 502              		.cfi_offset 5, -8
 503              		.cfi_offset 14, -4
 504              		.loc 1 230 0
 505 0002 0F4C     		ldr	r4, .L47
 506              		.loc 1 229 0
 507 0004 0F4A     		ldr	r2, .L47+4
 508              		.loc 1 230 0
 509 0006 2378     		ldrb	r3, [r4, #0]	@ zero_extendqisi2
 510              		.loc 1 229 0
ARM GAS  /tmp/ccZY3iSh.s 			page 10


 511 0008 0121     		movs	r1, #1
 512 000a 1170     		strb	r1, [r2, #0]
 513              		.loc 1 230 0
 514 000c A3B1     		cbz	r3, .L43
 515              		.loc 1 231 0
 516 000e 0E4D     		ldr	r5, .L47+8
 517 0010 0E4A     		ldr	r2, .L47+12
 518 0012 2868     		ldr	r0, [r5, #0]
 519 0014 4023     		movs	r3, #64
 520 0016 0221     		movs	r1, #2
 521 0018 FFF7FEFF 		bl	usbPrepareReceive
 522              	.LVL57:
 523              	.LBB34:
 524              		.loc 1 232 0
 525 001c 2023     		movs	r3, #32
 526              	.LVL58:
 527              	@ 232 "USB.c" 1
 528 001e 83F31188 		msr     BASEPRI, r3
 529              	@ 0 "" 2
 530              	.LVL59:
 531              		.thumb
 532              	.LBE34:
 533 0022 FFF7FEFF 		bl	dbg_check_lock
 534              	.LVL60:
 535              		.loc 1 233 0
 536 0026 0221     		movs	r1, #2
 537 0028 2868     		ldr	r0, [r5, #0]
 538 002a FFF7FEFF 		bl	usbStartReceiveI
 539              	.LVL61:
 540              		.loc 1 234 0
 541 002e FFF7FEFF 		bl	dbg_check_unlock
 542              	.LVL62:
 543              	.LBB35:
 544 0032 0023     		movs	r3, #0
 545              	.LVL63:
 546              	@ 234 "USB.c" 1
 547 0034 83F31188 		msr     BASEPRI, r3
 548              	@ 0 "" 2
 549              	.LVL64:
 550              		.thumb
 551              	.L43:
 552              	.LBE35:
 553              		.loc 1 237 0
 554 0038 0020     		movs	r0, #0
 555 003a 2070     		strb	r0, [r4, #0]
 556              		.loc 1 239 0
 557 003c 38BD     		pop	{r3, r4, r5, pc}
 558              	.L48:
 559 003e 00BF     		.align	2
 560              	.L47:
 561 0040 00000000 		.word	.LANCHOR6
 562 0044 00000000 		.word	.LANCHOR3
 563 0048 00000000 		.word	.LANCHOR9
 564 004c 00000000 		.word	.LANCHOR7
 565              		.cfi_endproc
 566              	.LFE125:
 567              		.size	receive_data, .-receive_data
ARM GAS  /tmp/ccZY3iSh.s 			page 11


 568              		.global	config
 569              		.global	ep2outstate
 570              		.global	usbStatus
 571              		.global	initUSB
 572              		.global	usbp
 573              		.global	transferBuf
 574              		.global	receiveBuf
 575              		.section	.rodata.ep1config,"a",%progbits
 576              		.align	2
 577              		.set	.LANCHOR4,. + 0
 578              		.type	ep1config, %object
 579              		.size	ep1config, 36
 580              	ep1config:
 581 0000 02000000 		.word	2
 582 0004 00000000 		.word	0
 583 0008 00000000 		.word	dataTransmitted
 584 000c 00000000 		.word	0
 585 0010 4000     		.short	64
 586 0012 0000     		.short	0
 587 0014 00000000 		.word	ep1instate
 588 0018 00000000 		.word	0
 589 001c 0400     		.short	4
 590 001e 0000     		.space	2
 591 0020 00000000 		.word	0
 592              		.section	.data.usbp,"aw",%progbits
 593              		.align	2
 594              		.set	.LANCHOR9,. + 0
 595              		.type	usbp, %object
 596              		.size	usbp, 4
 597              	usbp:
 598 0000 00000000 		.word	USBD1
 599              		.section	.rodata.stringVendor,"a",%progbits
 600              		.align	2
 601              		.type	stringVendor, %object
 602              		.size	stringVendor, 38
 603              	stringVendor:
 604 0000 26       		.byte	38
 605 0001 03       		.byte	3
 606 0002 53       		.byte	83
 607 0003 00       		.byte	0
 608 0004 54       		.byte	84
 609 0005 00       		.byte	0
 610 0006 4D       		.byte	77
 611 0007 00       		.byte	0
 612 0008 69       		.byte	105
 613 0009 00       		.byte	0
 614 000a 63       		.byte	99
 615 000b 00       		.byte	0
 616 000c 72       		.byte	114
 617 000d 00       		.byte	0
 618 000e 6F       		.byte	111
 619 000f 00       		.byte	0
 620 0010 65       		.byte	101
 621 0011 00       		.byte	0
 622 0012 6C       		.byte	108
 623 0013 00       		.byte	0
 624 0014 65       		.byte	101
ARM GAS  /tmp/ccZY3iSh.s 			page 12


 625 0015 00       		.byte	0
 626 0016 63       		.byte	99
 627 0017 00       		.byte	0
 628 0018 74       		.byte	116
 629 0019 00       		.byte	0
 630 001a 72       		.byte	114
 631 001b 00       		.byte	0
 632 001c 6F       		.byte	111
 633 001d 00       		.byte	0
 634 001e 6E       		.byte	110
 635 001f 00       		.byte	0
 636 0020 69       		.byte	105
 637 0021 00       		.byte	0
 638 0022 63       		.byte	99
 639 0023 00       		.byte	0
 640 0024 73       		.byte	115
 641 0025 00       		.byte	0
 642 0026 0000     		.section	.bss.ep1instate,"aw",%nobits
 643              		.align	2
 644              		.type	ep1instate, %object
 645              		.size	ep1instate, 16
 646              	ep1instate:
 647 0000 00000000 		.space	16
 647      00000000 
 647      00000000 
 647      00000000 
 648              		.section	.bss.usbStatus,"aw",%nobits
 649              		.set	.LANCHOR3,. + 0
 650              		.type	usbStatus, %object
 651              		.size	usbStatus, 1
 652              	usbStatus:
 653 0000 00       		.space	1
 654              		.section	.rodata.vcom_configuration_descriptor,"a",%progbits
 655              		.align	2
 656              		.set	.LANCHOR1,. + 0
 657              		.type	vcom_configuration_descriptor, %object
 658              		.size	vcom_configuration_descriptor, 8
 659              	vcom_configuration_descriptor:
 660 0000 20000000 		.word	32
 661 0004 00000000 		.word	vcom_configuration_descriptor_data
 662              		.section	.rodata.ep2config,"a",%progbits
 663              		.align	2
 664              		.set	.LANCHOR5,. + 0
 665              		.type	ep2config, %object
 666              		.size	ep2config, 36
 667              	ep2config:
 668 0000 02000000 		.word	2
 669 0004 00000000 		.word	0
 670 0008 00000000 		.word	0
 671 000c 00000000 		.word	dataReceived
 672 0010 0000     		.short	0
 673 0012 4000     		.short	64
 674 0014 00000000 		.word	0
 675 0018 00000000 		.word	ep2outstate
 676 001c 0100     		.short	1
 677 001e 0000     		.space	2
 678 0020 00000000 		.word	0
ARM GAS  /tmp/ccZY3iSh.s 			page 13


 679              		.section	.rodata.stringSerialNumber,"a",%progbits
 680              		.align	2
 681              		.type	stringSerialNumber, %object
 682              		.size	stringSerialNumber, 12
 683              	stringSerialNumber:
 684 0000 0C       		.byte	12
 685 0001 03       		.byte	3
 686 0002 32       		.byte	50
 687 0003 00       		.byte	0
 688 0004 2E       		.byte	46
 689 0005 00       		.byte	0
 690 0006 35       		.byte	53
 691 0007 00       		.byte	0
 692 0008 2E       		.byte	46
 693 0009 00       		.byte	0
 694 000a 30       		.byte	48
 695 000b 00       		.byte	0
 696              		.section	.rodata.stringNotFound,"a",%progbits
 697              		.align	2
 698              		.type	stringNotFound, %object
 699              		.size	stringNotFound, 34
 700              	stringNotFound:
 701 0000 22       		.byte	34
 702 0001 03       		.byte	3
 703 0002 53       		.byte	83
 704 0003 00       		.byte	0
 705 0004 74       		.byte	116
 706 0005 00       		.byte	0
 707 0006 72       		.byte	114
 708 0007 00       		.byte	0
 709 0008 69       		.byte	105
 710 0009 00       		.byte	0
 711 000a 6E       		.byte	110
 712 000b 00       		.byte	0
 713 000c 67       		.byte	103
 714 000d 00       		.byte	0
 715 000e 20       		.byte	32
 716 000f 00       		.byte	0
 717 0010 6E       		.byte	110
 718 0011 00       		.byte	0
 719 0012 6F       		.byte	111
 720 0013 00       		.byte	0
 721 0014 74       		.byte	116
 722 0015 00       		.byte	0
 723 0016 20       		.byte	32
 724 0017 00       		.byte	0
 725 0018 66       		.byte	102
 726 0019 00       		.byte	0
 727 001a 6F       		.byte	111
 728 001b 00       		.byte	0
 729 001c 75       		.byte	117
 730 001d 00       		.byte	0
 731 001e 6E       		.byte	110
 732 001f 00       		.byte	0
 733 0020 64       		.byte	100
 734 0021 00       		.byte	0
 735 0022 0000     		.section	.rodata.stringDeviceDescriptor,"a",%progbits
ARM GAS  /tmp/ccZY3iSh.s 			page 14


 736              		.align	2
 737              		.type	stringDeviceDescriptor, %object
 738              		.size	stringDeviceDescriptor, 48
 739              	stringDeviceDescriptor:
 740 0000 30       		.byte	48
 741 0001 03       		.byte	3
 742 0002 43       		.byte	67
 743 0003 00       		.byte	0
 744 0004 68       		.byte	104
 745 0005 00       		.byte	0
 746 0006 69       		.byte	105
 747 0007 00       		.byte	0
 748 0008 62       		.byte	98
 749 0009 00       		.byte	0
 750 000a 69       		.byte	105
 751 000b 00       		.byte	0
 752 000c 4F       		.byte	79
 753 000d 00       		.byte	0
 754 000e 53       		.byte	83
 755 000f 00       		.byte	0
 756 0010 2F       		.byte	47
 757 0011 00       		.byte	0
 758 0012 43       		.byte	67
 759 0013 00       		.byte	0
 760 0014 75       		.byte	117
 761 0015 00       		.byte	0
 762 0016 73       		.byte	115
 763 0017 00       		.byte	0
 764 0018 74       		.byte	116
 765 0019 00       		.byte	0
 766 001a 6F       		.byte	111
 767 001b 00       		.byte	0
 768 001c 6D       		.byte	109
 769 001d 00       		.byte	0
 770 001e 20       		.byte	32
 771 001f 00       		.byte	0
 772 0020 48       		.byte	72
 773 0021 00       		.byte	0
 774 0022 61       		.byte	97
 775 0023 00       		.byte	0
 776 0024 72       		.byte	114
 777 0025 00       		.byte	0
 778 0026 64       		.byte	100
 779 0027 00       		.byte	0
 780 0028 77       		.byte	119
 781 0029 00       		.byte	0
 782 002a 61       		.byte	97
 783 002b 00       		.byte	0
 784 002c 72       		.byte	114
 785 002d 00       		.byte	0
 786 002e 65       		.byte	101
 787 002f 00       		.byte	0
 788              		.section	.bss.initUSB,"aw",%nobits
 789              		.set	.LANCHOR6,. + 0
 790              		.type	initUSB, %object
 791              		.size	initUSB, 1
 792              	initUSB:
ARM GAS  /tmp/ccZY3iSh.s 			page 15


 793 0000 00       		.space	1
 794              		.section	.bss.transferBuf,"aw",%nobits
 795              		.align	2
 796              		.set	.LANCHOR8,. + 0
 797              		.type	transferBuf, %object
 798              		.size	transferBuf, 256
 799              	transferBuf:
 800 0000 00000000 		.space	256
 800      00000000 
 800      00000000 
 800      00000000 
 800      00000000 
 801              		.section	.rodata.stringLanguage,"a",%progbits
 802              		.align	2
 803              		.type	stringLanguage, %object
 804              		.size	stringLanguage, 4
 805              	stringLanguage:
 806 0000 04       		.byte	4
 807 0001 03       		.byte	3
 808 0002 09       		.byte	9
 809 0003 04       		.byte	4
 810              		.section	.bss.receiveBuf,"aw",%nobits
 811              		.align	2
 812              		.set	.LANCHOR7,. + 0
 813              		.type	receiveBuf, %object
 814              		.size	receiveBuf, 64
 815              	receiveBuf:
 816 0000 00000000 		.space	64
 816      00000000 
 816      00000000 
 816      00000000 
 816      00000000 
 817              		.section	.bss.ep2outstate,"aw",%nobits
 818              		.align	2
 819              		.type	ep2outstate, %object
 820              		.size	ep2outstate, 16
 821              	ep2outstate:
 822 0000 00000000 		.space	16
 822      00000000 
 822      00000000 
 822      00000000 
 823              		.section	.rodata.config,"a",%progbits
 824              		.align	2
 825              		.set	.LANCHOR10,. + 0
 826              		.type	config, %object
 827              		.size	config, 16
 828              	config:
 829 0000 00000000 		.word	usb_event
 830 0004 00000000 		.word	get_descriptor
 831 0008 00000000 		.word	requestsHook
 832 000c 00000000 		.word	0
 833              		.section	.rodata.vcom_device_descriptor_data,"a",%progbits
 834              		.align	2
 835              		.type	vcom_device_descriptor_data, %object
 836              		.size	vcom_device_descriptor_data, 18
 837              	vcom_device_descriptor_data:
 838 0000 12       		.byte	18
ARM GAS  /tmp/ccZY3iSh.s 			page 16


 839 0001 01       		.byte	1
 840 0002 10       		.byte	16
 841 0003 01       		.byte	1
 842 0004 FF       		.byte	-1
 843 0005 00       		.byte	0
 844 0006 00       		.byte	0
 845 0007 40       		.byte	64
 846 0008 83       		.byte	-125
 847 0009 04       		.byte	4
 848 000a FF       		.byte	-1
 849 000b FF       		.byte	-1
 850 000c 00       		.byte	0
 851 000d 02       		.byte	2
 852 000e 01       		.byte	1
 853 000f 02       		.byte	2
 854 0010 03       		.byte	3
 855 0011 01       		.byte	1
 856 0012 0000     		.section	.rodata.vcom_strings,"a",%progbits
 857              		.align	2
 858              		.set	.LANCHOR2,. + 0
 859              		.type	vcom_strings, %object
 860              		.size	vcom_strings, 40
 861              	vcom_strings:
 862 0000 04000000 		.word	4
 863 0004 00000000 		.word	stringLanguage
 864 0008 26000000 		.word	38
 865 000c 00000000 		.word	stringVendor
 866 0010 30000000 		.word	48
 867 0014 00000000 		.word	stringDeviceDescriptor
 868 0018 0C000000 		.word	12
 869 001c 00000000 		.word	stringSerialNumber
 870 0020 22000000 		.word	34
 871 0024 00000000 		.word	stringNotFound
 872              		.section	.rodata.vcom_configuration_descriptor_data,"a",%progbits
 873              		.align	2
 874              		.type	vcom_configuration_descriptor_data, %object
 875              		.size	vcom_configuration_descriptor_data, 32
 876              	vcom_configuration_descriptor_data:
 877 0000 09       		.byte	9
 878 0001 02       		.byte	2
 879 0002 20       		.byte	32
 880 0003 00       		.byte	0
 881 0004 01       		.byte	1
 882 0005 01       		.byte	1
 883 0006 00       		.byte	0
 884 0007 C0       		.byte	-64
 885 0008 32       		.byte	50
 886 0009 09       		.byte	9
 887 000a 04       		.byte	4
 888 000b 00       		.byte	0
 889 000c 00       		.byte	0
 890 000d 02       		.byte	2
 891 000e FF       		.byte	-1
 892 000f 00       		.byte	0
 893 0010 00       		.byte	0
 894 0011 00       		.byte	0
 895 0012 07       		.byte	7
ARM GAS  /tmp/ccZY3iSh.s 			page 17


 896 0013 05       		.byte	5
 897 0014 81       		.byte	-127
 898 0015 02       		.byte	2
 899 0016 40       		.byte	64
 900 0017 00       		.byte	0
 901 0018 00       		.byte	0
 902 0019 07       		.byte	7
 903 001a 05       		.byte	5
 904 001b 02       		.byte	2
 905 001c 02       		.byte	2
 906 001d 40       		.byte	64
 907 001e 00       		.byte	0
 908 001f 00       		.byte	0
 909              		.section	.rodata.vcom_device_descriptor,"a",%progbits
 910              		.align	2
 911              		.set	.LANCHOR0,. + 0
 912              		.type	vcom_device_descriptor, %object
 913              		.size	vcom_device_descriptor, 8
 914              	vcom_device_descriptor:
 915 0000 12000000 		.word	18
 916 0004 00000000 		.word	vcom_device_descriptor_data
 917              		.text
 918              	.Letext0:
 919              		.file 2 "/opt/gcc-arm-none-eabi-4_7-2013q1/bin/../lib/gcc/arm-none-eabi/4.7.3/include/stddef.h"
 920              		.file 3 "/opt/gcc-arm-none-eabi-4_7-2013q1/bin/../lib/gcc/arm-none-eabi/4.7.3/../../../../arm-none
 921              		.file 4 "/home/gokul/ChibiOS_2.5.0/os/ports/GCC/ARMCMx/chtypes.h"
 922              		.file 5 "/home/gokul/ChibiOS_2.5.0/os/kernel/include/chlists.h"
 923              		.file 6 "/home/gokul/ChibiOS_2.5.0/os/kernel/include/chthreads.h"
 924              		.file 7 "/home/gokul/ChibiOS_2.5.0/os/ports/GCC/ARMCMx/chcore_v7m.h"
 925              		.file 8 "/home/gokul/ChibiOS_2.5.0/os/kernel/include/chmtx.h"
 926              		.file 9 "/home/gokul/ChibiOS_2.5.0/os/kernel/include/chqueues.h"
 927              		.file 10 "/home/gokul/ChibiOS_2.5.0/os/hal/include/usb.h"
 928              		.file 11 "/home/gokul/ChibiOS_2.5.0/os/hal/platforms/STM32/OTGv1/usb_lld.h"
 929              		.file 12 "/home/gokul/ChibiOS_2.5.0/os/hal/platforms/STM32/OTGv1/stm32_otg.h"
 930              		.file 13 "usbdescriptor.h"
 931              		.file 14 "/home/gokul/ChibiOS_2.5.0/os/ports/common/ARMCMx/CMSIS/include/core_cm4.h"
 932              		.file 15 "/home/gokul/ChibiOS_2.5.0/os/kernel/include/chdebug.h"
 933              		.file 16 "/home/gokul/ChibiOS_2.5.0/os/various/shell.h"